Archive member included to satisfy reference by file (symbol)

/usr/lib/gcc/arm-none-eabi/10.3.1/../../../arm-none-eabi/lib/thumb/v8-m.main+fp/hard/libc_nano.a(lib_a-atexit.o)
                              /usr/lib/gcc/arm-none-eabi/10.3.1/../../../arm-none-eabi/lib/thumb/v8-m.main+fp/hard/crt0.o (atexit)
/usr/lib/gcc/arm-none-eabi/10.3.1/../../../arm-none-eabi/lib/thumb/v8-m.main+fp/hard/libc_nano.a(lib_a-exit.o)
                              /usr/lib/gcc/arm-none-eabi/10.3.1/../../../arm-none-eabi/lib/thumb/v8-m.main+fp/hard/crt0.o (exit)
/usr/lib/gcc/arm-none-eabi/10.3.1/../../../arm-none-eabi/lib/thumb/v8-m.main+fp/hard/libc_nano.a(lib_a-fflush.o)
                              build/main.o (fflush)
/usr/lib/gcc/arm-none-eabi/10.3.1/../../../arm-none-eabi/lib/thumb/v8-m.main+fp/hard/libc_nano.a(lib_a-findfp.o)
                              /usr/lib/gcc/arm-none-eabi/10.3.1/../../../arm-none-eabi/lib/thumb/v8-m.main+fp/hard/libc_nano.a(lib_a-fflush.o) (__sinit)
/usr/lib/gcc/arm-none-eabi/10.3.1/../../../arm-none-eabi/lib/thumb/v8-m.main+fp/hard/libc_nano.a(lib_a-fini.o)
                              /usr/lib/gcc/arm-none-eabi/10.3.1/../../../arm-none-eabi/lib/thumb/v8-m.main+fp/hard/crt0.o (__libc_fini_array)
/usr/lib/gcc/arm-none-eabi/10.3.1/../../../arm-none-eabi/lib/thumb/v8-m.main+fp/hard/libc_nano.a(lib_a-fwalk.o)
                              /usr/lib/gcc/arm-none-eabi/10.3.1/../../../arm-none-eabi/lib/thumb/v8-m.main+fp/hard/libc_nano.a(lib_a-findfp.o) (_fwalk)
/usr/lib/gcc/arm-none-eabi/10.3.1/../../../arm-none-eabi/lib/thumb/v8-m.main+fp/hard/libc_nano.a(lib_a-impure.o)
                              /usr/lib/gcc/arm-none-eabi/10.3.1/../../../arm-none-eabi/lib/thumb/v8-m.main+fp/hard/libc_nano.a(lib_a-exit.o) (_global_impure_ptr)
/usr/lib/gcc/arm-none-eabi/10.3.1/../../../arm-none-eabi/lib/thumb/v8-m.main+fp/hard/libc_nano.a(lib_a-init.o)
                              /usr/lib/gcc/arm-none-eabi/10.3.1/../../../arm-none-eabi/lib/thumb/v8-m.main+fp/hard/crt0.o (__libc_init_array)
/usr/lib/gcc/arm-none-eabi/10.3.1/../../../arm-none-eabi/lib/thumb/v8-m.main+fp/hard/libc_nano.a(lib_a-memmove.o)
                              build/stm32u5xx_hal_dma_ex.o (memmove)
/usr/lib/gcc/arm-none-eabi/10.3.1/../../../arm-none-eabi/lib/thumb/v8-m.main+fp/hard/libc_nano.a(lib_a-memset.o)
                              /usr/lib/gcc/arm-none-eabi/10.3.1/../../../arm-none-eabi/lib/thumb/v8-m.main+fp/hard/crt0.o (memset)
/usr/lib/gcc/arm-none-eabi/10.3.1/../../../arm-none-eabi/lib/thumb/v8-m.main+fp/hard/libc_nano.a(lib_a-nano-freer.o)
                              /usr/lib/gcc/arm-none-eabi/10.3.1/../../../arm-none-eabi/lib/thumb/v8-m.main+fp/hard/libc_nano.a(lib_a-fflush.o) (_free_r)
/usr/lib/gcc/arm-none-eabi/10.3.1/../../../arm-none-eabi/lib/thumb/v8-m.main+fp/hard/libc_nano.a(lib_a-nano-mallocr.o)
                              /usr/lib/gcc/arm-none-eabi/10.3.1/../../../arm-none-eabi/lib/thumb/v8-m.main+fp/hard/libc_nano.a(lib_a-findfp.o) (_malloc_r)
/usr/lib/gcc/arm-none-eabi/10.3.1/../../../arm-none-eabi/lib/thumb/v8-m.main+fp/hard/libc_nano.a(lib_a-printf.o)
                              build/main.o (printf)
/usr/lib/gcc/arm-none-eabi/10.3.1/../../../arm-none-eabi/lib/thumb/v8-m.main+fp/hard/libc_nano.a(lib_a-puts.o)
                              build/main.o (puts)
/usr/lib/gcc/arm-none-eabi/10.3.1/../../../arm-none-eabi/lib/thumb/v8-m.main+fp/hard/libc_nano.a(lib_a-sbrkr.o)
                              /usr/lib/gcc/arm-none-eabi/10.3.1/../../../arm-none-eabi/lib/thumb/v8-m.main+fp/hard/libc_nano.a(lib_a-nano-mallocr.o) (_sbrk_r)
/usr/lib/gcc/arm-none-eabi/10.3.1/../../../arm-none-eabi/lib/thumb/v8-m.main+fp/hard/libc_nano.a(lib_a-snprintf.o)
                              build/ux_device_descriptors.o (snprintf)
/usr/lib/gcc/arm-none-eabi/10.3.1/../../../arm-none-eabi/lib/thumb/v8-m.main+fp/hard/libc_nano.a(lib_a-stdio.o)
                              /usr/lib/gcc/arm-none-eabi/10.3.1/../../../arm-none-eabi/lib/thumb/v8-m.main+fp/hard/libc_nano.a(lib_a-findfp.o) (__sread)
/usr/lib/gcc/arm-none-eabi/10.3.1/../../../arm-none-eabi/lib/thumb/v8-m.main+fp/hard/libc_nano.a(lib_a-strlen-stub.o)
                              build/cmd.o (strlen)
/usr/lib/gcc/arm-none-eabi/10.3.1/../../../arm-none-eabi/lib/thumb/v8-m.main+fp/hard/libc_nano.a(lib_a-wbuf.o)
                              /usr/lib/gcc/arm-none-eabi/10.3.1/../../../arm-none-eabi/lib/thumb/v8-m.main+fp/hard/libc_nano.a(lib_a-puts.o) (__swbuf_r)
/usr/lib/gcc/arm-none-eabi/10.3.1/../../../arm-none-eabi/lib/thumb/v8-m.main+fp/hard/libc_nano.a(lib_a-writer.o)
                              /usr/lib/gcc/arm-none-eabi/10.3.1/../../../arm-none-eabi/lib/thumb/v8-m.main+fp/hard/libc_nano.a(lib_a-stdio.o) (_write_r)
/usr/lib/gcc/arm-none-eabi/10.3.1/../../../arm-none-eabi/lib/thumb/v8-m.main+fp/hard/libc_nano.a(lib_a-wsetup.o)
                              /usr/lib/gcc/arm-none-eabi/10.3.1/../../../arm-none-eabi/lib/thumb/v8-m.main+fp/hard/libc_nano.a(lib_a-puts.o) (__swsetup_r)
/usr/lib/gcc/arm-none-eabi/10.3.1/../../../arm-none-eabi/lib/thumb/v8-m.main+fp/hard/libc_nano.a(lib_a-__atexit.o)
                              /usr/lib/gcc/arm-none-eabi/10.3.1/../../../arm-none-eabi/lib/thumb/v8-m.main+fp/hard/libc_nano.a(lib_a-atexit.o) (__register_exitproc)
/usr/lib/gcc/arm-none-eabi/10.3.1/../../../arm-none-eabi/lib/thumb/v8-m.main+fp/hard/libc_nano.a(lib_a-__call_atexit.o)
                              /usr/lib/gcc/arm-none-eabi/10.3.1/../../../arm-none-eabi/lib/thumb/v8-m.main+fp/hard/libc_nano.a(lib_a-__atexit.o) (__call_exitprocs)
/usr/lib/gcc/arm-none-eabi/10.3.1/../../../arm-none-eabi/lib/thumb/v8-m.main+fp/hard/libc_nano.a(lib_a-closer.o)
                              /usr/lib/gcc/arm-none-eabi/10.3.1/../../../arm-none-eabi/lib/thumb/v8-m.main+fp/hard/libc_nano.a(lib_a-stdio.o) (_close_r)
/usr/lib/gcc/arm-none-eabi/10.3.1/../../../arm-none-eabi/lib/thumb/v8-m.main+fp/hard/libc_nano.a(lib_a-lseekr.o)
                              /usr/lib/gcc/arm-none-eabi/10.3.1/../../../arm-none-eabi/lib/thumb/v8-m.main+fp/hard/libc_nano.a(lib_a-stdio.o) (_lseek_r)
/usr/lib/gcc/arm-none-eabi/10.3.1/../../../arm-none-eabi/lib/thumb/v8-m.main+fp/hard/libc_nano.a(lib_a-makebuf.o)
                              /usr/lib/gcc/arm-none-eabi/10.3.1/../../../arm-none-eabi/lib/thumb/v8-m.main+fp/hard/libc_nano.a(lib_a-wsetup.o) (__smakebuf_r)
/usr/lib/gcc/arm-none-eabi/10.3.1/../../../arm-none-eabi/lib/thumb/v8-m.main+fp/hard/libc_nano.a(lib_a-mlock.o)
                              /usr/lib/gcc/arm-none-eabi/10.3.1/../../../arm-none-eabi/lib/thumb/v8-m.main+fp/hard/libc_nano.a(lib_a-nano-freer.o) (__malloc_lock)
/usr/lib/gcc/arm-none-eabi/10.3.1/../../../arm-none-eabi/lib/thumb/v8-m.main+fp/hard/libc_nano.a(lib_a-nano-svfprintf.o)
                              /usr/lib/gcc/arm-none-eabi/10.3.1/../../../arm-none-eabi/lib/thumb/v8-m.main+fp/hard/libc_nano.a(lib_a-snprintf.o) (_svfprintf_r)
/usr/lib/gcc/arm-none-eabi/10.3.1/../../../arm-none-eabi/lib/thumb/v8-m.main+fp/hard/libc_nano.a(lib_a-nano-vfprintf.o)
                              /usr/lib/gcc/arm-none-eabi/10.3.1/../../../arm-none-eabi/lib/thumb/v8-m.main+fp/hard/libc_nano.a(lib_a-printf.o) (_vfprintf_r)
/usr/lib/gcc/arm-none-eabi/10.3.1/../../../arm-none-eabi/lib/thumb/v8-m.main+fp/hard/libc_nano.a(lib_a-nano-vfprintf_i.o)
                              /usr/lib/gcc/arm-none-eabi/10.3.1/../../../arm-none-eabi/lib/thumb/v8-m.main+fp/hard/libc_nano.a(lib_a-nano-svfprintf.o) (_printf_i)
/usr/lib/gcc/arm-none-eabi/10.3.1/../../../arm-none-eabi/lib/thumb/v8-m.main+fp/hard/libc_nano.a(lib_a-readr.o)
                              /usr/lib/gcc/arm-none-eabi/10.3.1/../../../arm-none-eabi/lib/thumb/v8-m.main+fp/hard/libc_nano.a(lib_a-stdio.o) (_read_r)
/usr/lib/gcc/arm-none-eabi/10.3.1/../../../arm-none-eabi/lib/thumb/v8-m.main+fp/hard/libc_nano.a(lib_a-reent.o)
                              /usr/lib/gcc/arm-none-eabi/10.3.1/../../../arm-none-eabi/lib/thumb/v8-m.main+fp/hard/libc_nano.a(lib_a-sbrkr.o) (errno)
/usr/lib/gcc/arm-none-eabi/10.3.1/../../../arm-none-eabi/lib/thumb/v8-m.main+fp/hard/libc_nano.a(lib_a-fstatr.o)
                              /usr/lib/gcc/arm-none-eabi/10.3.1/../../../arm-none-eabi/lib/thumb/v8-m.main+fp/hard/libc_nano.a(lib_a-makebuf.o) (_fstat_r)
/usr/lib/gcc/arm-none-eabi/10.3.1/../../../arm-none-eabi/lib/thumb/v8-m.main+fp/hard/libc_nano.a(lib_a-fvwrite.o)
                              /usr/lib/gcc/arm-none-eabi/10.3.1/../../../arm-none-eabi/lib/thumb/v8-m.main+fp/hard/libc_nano.a(lib_a-nano-vfprintf.o) (__sfvwrite_r)
/usr/lib/gcc/arm-none-eabi/10.3.1/../../../arm-none-eabi/lib/thumb/v8-m.main+fp/hard/libc_nano.a(lib_a-isattyr.o)
                              /usr/lib/gcc/arm-none-eabi/10.3.1/../../../arm-none-eabi/lib/thumb/v8-m.main+fp/hard/libc_nano.a(lib_a-makebuf.o) (_isatty_r)
/usr/lib/gcc/arm-none-eabi/10.3.1/../../../arm-none-eabi/lib/thumb/v8-m.main+fp/hard/libc_nano.a(lib_a-memchr-stub.o)
                              /usr/lib/gcc/arm-none-eabi/10.3.1/../../../arm-none-eabi/lib/thumb/v8-m.main+fp/hard/libc_nano.a(lib_a-nano-svfprintf.o) (memchr)
/usr/lib/gcc/arm-none-eabi/10.3.1/../../../arm-none-eabi/lib/thumb/v8-m.main+fp/hard/libc_nano.a(lib_a-memcpy.o)
                              /usr/lib/gcc/arm-none-eabi/10.3.1/../../../arm-none-eabi/lib/thumb/v8-m.main+fp/hard/libc_nano.a(lib_a-nano-svfprintf.o) (memcpy)
/usr/lib/gcc/arm-none-eabi/10.3.1/../../../arm-none-eabi/lib/thumb/v8-m.main+fp/hard/libc_nano.a(lib_a-nano-reallocr.o)
                              /usr/lib/gcc/arm-none-eabi/10.3.1/../../../arm-none-eabi/lib/thumb/v8-m.main+fp/hard/libc_nano.a(lib_a-nano-svfprintf.o) (_realloc_r)
/usr/lib/gcc/arm-none-eabi/10.3.1/../../../arm-none-eabi/lib/thumb/v8-m.main+fp/hard/libc_nano.a(lib_a-nano-msizer.o)
                              /usr/lib/gcc/arm-none-eabi/10.3.1/../../../arm-none-eabi/lib/thumb/v8-m.main+fp/hard/libc_nano.a(lib_a-nano-reallocr.o) (_malloc_usable_size_r)
/usr/lib/gcc/arm-none-eabi/10.3.1/../../../arm-none-eabi/lib/thumb/v8-m.main+fp/hard/libnosys.a(close.o)
                              /usr/lib/gcc/arm-none-eabi/10.3.1/../../../arm-none-eabi/lib/thumb/v8-m.main+fp/hard/libc_nano.a(lib_a-closer.o) (_close)
/usr/lib/gcc/arm-none-eabi/10.3.1/../../../arm-none-eabi/lib/thumb/v8-m.main+fp/hard/libnosys.a(fstat.o)
                              /usr/lib/gcc/arm-none-eabi/10.3.1/../../../arm-none-eabi/lib/thumb/v8-m.main+fp/hard/libc_nano.a(lib_a-fstatr.o) (_fstat)
/usr/lib/gcc/arm-none-eabi/10.3.1/../../../arm-none-eabi/lib/thumb/v8-m.main+fp/hard/libnosys.a(isatty.o)
                              /usr/lib/gcc/arm-none-eabi/10.3.1/../../../arm-none-eabi/lib/thumb/v8-m.main+fp/hard/libc_nano.a(lib_a-isattyr.o) (_isatty)
/usr/lib/gcc/arm-none-eabi/10.3.1/../../../arm-none-eabi/lib/thumb/v8-m.main+fp/hard/libnosys.a(lseek.o)
                              /usr/lib/gcc/arm-none-eabi/10.3.1/../../../arm-none-eabi/lib/thumb/v8-m.main+fp/hard/libc_nano.a(lib_a-lseekr.o) (_lseek)
/usr/lib/gcc/arm-none-eabi/10.3.1/../../../arm-none-eabi/lib/thumb/v8-m.main+fp/hard/libnosys.a(sbrk.o)
                              /usr/lib/gcc/arm-none-eabi/10.3.1/../../../arm-none-eabi/lib/thumb/v8-m.main+fp/hard/libc_nano.a(lib_a-sbrkr.o) (_sbrk)
/usr/lib/gcc/arm-none-eabi/10.3.1/../../../arm-none-eabi/lib/thumb/v8-m.main+fp/hard/libnosys.a(_exit.o)
                              /usr/lib/gcc/arm-none-eabi/10.3.1/../../../arm-none-eabi/lib/thumb/v8-m.main+fp/hard/libc_nano.a(lib_a-exit.o) (_exit)
/usr/lib/gcc/arm-none-eabi/10.3.1/thumb/v8-m.main+fp/hard/libgcc.a(_aeabi_ldivmod.o)
                              build/stm32u5xx_ll_lpuart.o (__aeabi_ldivmod)
/usr/lib/gcc/arm-none-eabi/10.3.1/thumb/v8-m.main+fp/hard/libgcc.a(_aeabi_uldivmod.o)
                              build/stm32u5xx_ll_lpuart.o (__aeabi_uldivmod)
/usr/lib/gcc/arm-none-eabi/10.3.1/thumb/v8-m.main+fp/hard/libgcc.a(_udivmoddi4.o)
                              /usr/lib/gcc/arm-none-eabi/10.3.1/thumb/v8-m.main+fp/hard/libgcc.a(_aeabi_ldivmod.o) (__udivmoddi4)
/usr/lib/gcc/arm-none-eabi/10.3.1/thumb/v8-m.main+fp/hard/libgcc.a(_dvmd_tls.o)
                              /usr/lib/gcc/arm-none-eabi/10.3.1/thumb/v8-m.main+fp/hard/libgcc.a(_aeabi_ldivmod.o) (__aeabi_ldiv0)

Discarded input sections

 .text          0x0000000000000000        0x0 /usr/lib/gcc/arm-none-eabi/10.3.1/thumb/v8-m.main+fp/hard/crti.o
 .data          0x0000000000000000        0x0 /usr/lib/gcc/arm-none-eabi/10.3.1/thumb/v8-m.main+fp/hard/crti.o
 .bss           0x0000000000000000        0x0 /usr/lib/gcc/arm-none-eabi/10.3.1/thumb/v8-m.main+fp/hard/crti.o
 .data          0x0000000000000000        0x4 /usr/lib/gcc/arm-none-eabi/10.3.1/thumb/v8-m.main+fp/hard/crtbegin.o
 .rodata        0x0000000000000000       0x24 /usr/lib/gcc/arm-none-eabi/10.3.1/thumb/v8-m.main+fp/hard/crtbegin.o
 .text          0x0000000000000000       0x70 /usr/lib/gcc/arm-none-eabi/10.3.1/../../../arm-none-eabi/lib/thumb/v8-m.main+fp/hard/crt0.o
 .data          0x0000000000000000        0x0 /usr/lib/gcc/arm-none-eabi/10.3.1/../../../arm-none-eabi/lib/thumb/v8-m.main+fp/hard/crt0.o
 .bss           0x0000000000000000        0x0 /usr/lib/gcc/arm-none-eabi/10.3.1/../../../arm-none-eabi/lib/thumb/v8-m.main+fp/hard/crt0.o
 .ARM.extab     0x0000000000000000        0x0 /usr/lib/gcc/arm-none-eabi/10.3.1/../../../arm-none-eabi/lib/thumb/v8-m.main+fp/hard/crt0.o
 .ARM.exidx     0x0000000000000000       0x10 /usr/lib/gcc/arm-none-eabi/10.3.1/../../../arm-none-eabi/lib/thumb/v8-m.main+fp/hard/crt0.o
 .debug_line    0x0000000000000000       0x87 /usr/lib/gcc/arm-none-eabi/10.3.1/../../../arm-none-eabi/lib/thumb/v8-m.main+fp/hard/crt0.o
 .debug_info    0x0000000000000000       0x26 /usr/lib/gcc/arm-none-eabi/10.3.1/../../../arm-none-eabi/lib/thumb/v8-m.main+fp/hard/crt0.o
 .debug_abbrev  0x0000000000000000       0x14 /usr/lib/gcc/arm-none-eabi/10.3.1/../../../arm-none-eabi/lib/thumb/v8-m.main+fp/hard/crt0.o
 .debug_aranges
                0x0000000000000000       0x20 /usr/lib/gcc/arm-none-eabi/10.3.1/../../../arm-none-eabi/lib/thumb/v8-m.main+fp/hard/crt0.o
 .debug_str     0x0000000000000000       0x9c /usr/lib/gcc/arm-none-eabi/10.3.1/../../../arm-none-eabi/lib/thumb/v8-m.main+fp/hard/crt0.o
 .ARM.attributes
                0x0000000000000000       0x20 /usr/lib/gcc/arm-none-eabi/10.3.1/../../../arm-none-eabi/lib/thumb/v8-m.main+fp/hard/crt0.o
 .text          0x0000000000000000        0x0 build/system_stm32u5xx.o
 .data          0x0000000000000000        0x0 build/system_stm32u5xx.o
 .bss           0x0000000000000000        0x0 build/system_stm32u5xx.o
 .text.SystemCoreClockUpdate
                0x0000000000000000      0x110 build/system_stm32u5xx.o
 .rodata.AHBPrescTable
                0x0000000000000000       0x10 build/system_stm32u5xx.o
 .rodata.APBPrescTable
                0x0000000000000000        0x8 build/system_stm32u5xx.o
 .rodata.MSIRangeTable
                0x0000000000000000       0x40 build/system_stm32u5xx.o
 .text          0x0000000000000000        0x0 build/stm32u5xx_ll_adc.o
 .data          0x0000000000000000        0x0 build/stm32u5xx_ll_adc.o
 .bss           0x0000000000000000        0x0 build/stm32u5xx_ll_adc.o
 .text.LL_ADC_CommonDeInit
                0x0000000000000000       0x38 build/stm32u5xx_ll_adc.o
 .text.LL_ADC_CommonInit
                0x0000000000000000       0x34 build/stm32u5xx_ll_adc.o
 .text.LL_ADC_CommonStructInit
                0x0000000000000000        0x8 build/stm32u5xx_ll_adc.o
 .text.LL_ADC_DeInit
                0x0000000000000000      0x28c build/stm32u5xx_ll_adc.o
 .text.LL_ADC_Init
                0x0000000000000000       0x60 build/stm32u5xx_ll_adc.o
 .text.LL_ADC_StructInit
                0x0000000000000000       0x1c build/stm32u5xx_ll_adc.o
 .text.LL_ADC_REG_Init
                0x0000000000000000       0x9c build/stm32u5xx_ll_adc.o
 .text.LL_ADC_REG_StructInit
                0x0000000000000000       0x20 build/stm32u5xx_ll_adc.o
 .text.LL_ADC_INJ_Init
                0x0000000000000000       0x36 build/stm32u5xx_ll_adc.o
 .text.LL_ADC_INJ_StructInit
                0x0000000000000000        0xc build/stm32u5xx_ll_adc.o
 .comment       0x0000000000000000       0x34 build/stm32u5xx_ll_adc.o
 .ARM.attributes
                0x0000000000000000       0x3a build/stm32u5xx_ll_adc.o
 .text          0x0000000000000000        0x0 build/stm32u5xx_ll_dma.o
 .data          0x0000000000000000        0x0 build/stm32u5xx_ll_dma.o
 .bss           0x0000000000000000        0x0 build/stm32u5xx_ll_dma.o
 .text.LL_DMA_DeInit
                0x0000000000000000      0x194 build/stm32u5xx_ll_dma.o
 .text.LL_DMA_Init
                0x0000000000000000      0x1ac build/stm32u5xx_ll_dma.o
 .text.LL_DMA_StructInit
                0x0000000000000000       0x54 build/stm32u5xx_ll_dma.o
 .text.LL_DMA_ListStructInit
                0x0000000000000000       0x10 build/stm32u5xx_ll_dma.o
 .text.LL_DMA_List_DeInit
                0x0000000000000000        0x4 build/stm32u5xx_ll_dma.o
 .text.LL_DMA_List_Init
                0x0000000000000000       0x34 build/stm32u5xx_ll_dma.o
 .text.LL_DMA_NodeStructInit
                0x0000000000000000       0x54 build/stm32u5xx_ll_dma.o
 .text.LL_DMA_CreateLinkNode
                0x0000000000000000      0x168 build/stm32u5xx_ll_dma.o
 .text.LL_DMA_ConnectLinkNode
                0x0000000000000000       0x20 build/stm32u5xx_ll_dma.o
 .text.LL_DMA_DisconnectNextLinkNode
                0x0000000000000000        0x8 build/stm32u5xx_ll_dma.o
 .rodata.LL_DMA_CH_OFFSET_TAB
                0x0000000000000000       0x40 build/stm32u5xx_ll_dma.o
 .comment       0x0000000000000000       0x34 build/stm32u5xx_ll_dma.o
 .ARM.attributes
                0x0000000000000000       0x3a build/stm32u5xx_ll_dma.o
 .text          0x0000000000000000        0x0 build/stm32u5xx_ll_exti.o
 .data          0x0000000000000000        0x0 build/stm32u5xx_ll_exti.o
 .bss           0x0000000000000000        0x0 build/stm32u5xx_ll_exti.o
 .text.LL_EXTI_DeInit
                0x0000000000000000       0x24 build/stm32u5xx_ll_exti.o
 .text.LL_EXTI_Init
                0x0000000000000000       0xc4 build/stm32u5xx_ll_exti.o
 .text.LL_EXTI_StructInit
                0x0000000000000000        0xc build/stm32u5xx_ll_exti.o
 .comment       0x0000000000000000       0x34 build/stm32u5xx_ll_exti.o
 .ARM.attributes
                0x0000000000000000       0x3a build/stm32u5xx_ll_exti.o
 .text          0x0000000000000000        0x0 build/stm32u5xx_ll_gpio.o
 .data          0x0000000000000000        0x0 build/stm32u5xx_ll_gpio.o
 .bss           0x0000000000000000        0x0 build/stm32u5xx_ll_gpio.o
 .text.LL_AHB2_GRP1_ForceReset
                0x0000000000000000       0x10 build/stm32u5xx_ll_gpio.o
 .text.LL_GPIO_DeInit
                0x0000000000000000       0xc4 build/stm32u5xx_ll_gpio.o
 .text.LL_GPIO_StructInit
                0x0000000000000000       0x16 build/stm32u5xx_ll_gpio.o
 .text          0x0000000000000000        0x0 build/stm32u5xx_ll_pwr.o
 .data          0x0000000000000000        0x0 build/stm32u5xx_ll_pwr.o
 .bss           0x0000000000000000        0x0 build/stm32u5xx_ll_pwr.o
 .text.LL_PWR_DeInit
                0x0000000000000000       0x1c build/stm32u5xx_ll_pwr.o
 .comment       0x0000000000000000       0x34 build/stm32u5xx_ll_pwr.o
 .ARM.attributes
                0x0000000000000000       0x3a build/stm32u5xx_ll_pwr.o
 .text          0x0000000000000000        0x0 build/stm32u5xx_ll_rcc.o
 .data          0x0000000000000000        0x0 build/stm32u5xx_ll_rcc.o
 .bss           0x0000000000000000        0x0 build/stm32u5xx_ll_rcc.o
 .text.LL_RCC_HSI_IsReady
                0x0000000000000000       0x10 build/stm32u5xx_ll_rcc.o
 .text.LL_RCC_HSI48_IsReady
                0x0000000000000000       0x10 build/stm32u5xx_ll_rcc.o
 .text.LL_RCC_LSE_IsReady
                0x0000000000000000       0x10 build/stm32u5xx_ll_rcc.o
 .text.LL_RCC_MSI_IsEnabledRangeSelect
                0x0000000000000000       0x10 build/stm32u5xx_ll_rcc.o
 .text.LL_RCC_PLL1_IsReady
                0x0000000000000000       0x10 build/stm32u5xx_ll_rcc.o
 .text.LL_RCC_PLL1_IsEnabledDomain_SAI
                0x0000000000000000       0x10 build/stm32u5xx_ll_rcc.o
 .text.LL_RCC_PLL1_IsEnabledDomain_48M
                0x0000000000000000       0x10 build/stm32u5xx_ll_rcc.o
 .text.LL_RCC_PLL2_IsReady
                0x0000000000000000       0x10 build/stm32u5xx_ll_rcc.o
 .text.RCC_GetHCLKClockFreq
                0x0000000000000000       0x18 build/stm32u5xx_ll_rcc.o
 .text.RCC_GetPCLK1ClockFreq
                0x0000000000000000       0x18 build/stm32u5xx_ll_rcc.o
 .text.RCC_GetPCLK3ClockFreq
                0x0000000000000000       0x18 build/stm32u5xx_ll_rcc.o
 .text.RCC_GetSystemClockFreq
                0x0000000000000000      0x118 build/stm32u5xx_ll_rcc.o
 .text.RCC_PLL2_GetFreqDomain_SAI
                0x0000000000000000       0x94 build/stm32u5xx_ll_rcc.o
 .text.RCC_PLL3_GetFreqDomain_48M
                0x0000000000000000       0x88 build/stm32u5xx_ll_rcc.o
 .text.RCC_PLL2_GetFreqDomain_48M
                0x0000000000000000       0x88 build/stm32u5xx_ll_rcc.o
 .text.RCC_PLL1_GetFreqDomain_48M
                0x0000000000000000       0x88 build/stm32u5xx_ll_rcc.o
 .text.RCC_PLL1_GetFreqDomain_SAI
                0x0000000000000000       0x94 build/stm32u5xx_ll_rcc.o
 .text.LL_RCC_DeInit
                0x0000000000000000       0x7c build/stm32u5xx_ll_rcc.o
 .text.LL_RCC_GetSystemClocksFreq
                0x0000000000000000       0x3c build/stm32u5xx_ll_rcc.o
 .text.LL_RCC_GetUSARTClockFreq
                0x0000000000000000       0xa8 build/stm32u5xx_ll_rcc.o
 .text.LL_RCC_GetUARTClockFreq
                0x0000000000000000       0xa4 build/stm32u5xx_ll_rcc.o
 .text.LL_RCC_GetSPIClockFreq
                0x0000000000000000      0x12c build/stm32u5xx_ll_rcc.o
 .text.LL_RCC_GetI2CClockFreq
                0x0000000000000000      0x124 build/stm32u5xx_ll_rcc.o
 .text.LL_RCC_GetLPUARTClockFreq
                0x0000000000000000       0x54 build/stm32u5xx_ll_rcc.o
 .text.LL_RCC_GetLPTIMClockFreq
                0x0000000000000000      0x11c build/stm32u5xx_ll_rcc.o
 .text.LL_RCC_GetSAIClockFreq
                0x0000000000000000      0x10c build/stm32u5xx_ll_rcc.o
 .text.LL_RCC_GetSDMMCClockFreq
                0x0000000000000000       0xb0 build/stm32u5xx_ll_rcc.o
 .text.LL_RCC_GetSDMMCKernelClockFreq
                0x0000000000000000       0x40 build/stm32u5xx_ll_rcc.o
 .text.LL_RCC_GetRNGClockFreq
                0x0000000000000000       0x50 build/stm32u5xx_ll_rcc.o
 .text.LL_RCC_GetUSBClockFreq
                0x0000000000000000       0xb0 build/stm32u5xx_ll_rcc.o
 .text.LL_RCC_GetADCDACClockFreq
                0x0000000000000000       0xb8 build/stm32u5xx_ll_rcc.o
 .text.LL_RCC_GetADF1ClockFreq
                0x0000000000000000       0xa8 build/stm32u5xx_ll_rcc.o
 .text.LL_RCC_GetMDF1ClockFreq
                0x0000000000000000       0x9c build/stm32u5xx_ll_rcc.o
 .text.LL_RCC_GetDAC1ClockFreq
                0x0000000000000000       0x24 build/stm32u5xx_ll_rcc.o
 .text.LL_RCC_GetOCTOSPIClockFreq
                0x0000000000000000       0xa4 build/stm32u5xx_ll_rcc.o
 .text.LL_RCC_GetFDCANClockFreq
                0x0000000000000000       0x5c build/stm32u5xx_ll_rcc.o
 .comment       0x0000000000000000       0x34 build/stm32u5xx_ll_rcc.o
 .ARM.attributes
                0x0000000000000000       0x3a build/stm32u5xx_ll_rcc.o
 .text          0x0000000000000000        0x0 build/stm32u5xx_ll_rtc.o
 .data          0x0000000000000000        0x0 build/stm32u5xx_ll_rtc.o
 .bss           0x0000000000000000        0x0 build/stm32u5xx_ll_rtc.o
 .text.LL_RTC_StructInit
                0x0000000000000000        0xe build/stm32u5xx_ll_rtc.o
 .text.LL_RTC_TIME_StructInit
                0x0000000000000000        0xa build/stm32u5xx_ll_rtc.o
 .text.LL_RTC_DATE_StructInit
                0x0000000000000000        0xe build/stm32u5xx_ll_rtc.o
 .text.LL_RTC_ALMA_Init
                0x0000000000000000       0xe4 build/stm32u5xx_ll_rtc.o
 .text.LL_RTC_ALMB_Init
                0x0000000000000000       0xe4 build/stm32u5xx_ll_rtc.o
 .text.LL_RTC_ALMA_StructInit
                0x0000000000000000       0x12 build/stm32u5xx_ll_rtc.o
 .text.LL_RTC_ALMB_StructInit
                0x0000000000000000        0x4 build/stm32u5xx_ll_rtc.o
 .text.LL_RTC_EnterInitMode
                0x0000000000000000       0x52 build/stm32u5xx_ll_rtc.o
 .text.LL_RTC_Init
                0x0000000000000000       0x50 build/stm32u5xx_ll_rtc.o
 .text.LL_RTC_ExitInitMode
                0x0000000000000000        0xc build/stm32u5xx_ll_rtc.o
 .text.LL_RTC_WaitForSynchro
                0x0000000000000000       0x84 build/stm32u5xx_ll_rtc.o
 .text.LL_RTC_DeInit
                0x0000000000000000       0x68 build/stm32u5xx_ll_rtc.o
 .text.LL_RTC_TIME_Init
                0x0000000000000000       0xaa build/stm32u5xx_ll_rtc.o
 .text.LL_RTC_DATE_Init
                0x0000000000000000       0xb0 build/stm32u5xx_ll_rtc.o
 .comment       0x0000000000000000       0x34 build/stm32u5xx_ll_rtc.o
 .ARM.attributes
                0x0000000000000000       0x3a build/stm32u5xx_ll_rtc.o
 .text          0x0000000000000000        0x0 build/stm32u5xx_ll_spi.o
 .data          0x0000000000000000        0x0 build/stm32u5xx_ll_spi.o
 .bss           0x0000000000000000        0x0 build/stm32u5xx_ll_spi.o
 .text.LL_SPI_DeInit
                0x0000000000000000       0x6c build/stm32u5xx_ll_spi.o
 .text.LL_SPI_Init
                0x0000000000000000       0x88 build/stm32u5xx_ll_spi.o
 .text.LL_SPI_StructInit
                0x0000000000000000       0x1a build/stm32u5xx_ll_spi.o
 .comment       0x0000000000000000       0x34 build/stm32u5xx_ll_spi.o
 .ARM.attributes
                0x0000000000000000       0x3a build/stm32u5xx_ll_spi.o
 .text          0x0000000000000000        0x0 build/stm32u5xx_ll_tim.o
 .data          0x0000000000000000        0x0 build/stm32u5xx_ll_tim.o
 .bss           0x0000000000000000        0x0 build/stm32u5xx_ll_tim.o
 .text.LL_TIM_DeInit
                0x0000000000000000      0x140 build/stm32u5xx_ll_tim.o
 .text.LL_TIM_StructInit
                0x0000000000000000       0x12 build/stm32u5xx_ll_tim.o
 .text.LL_TIM_Init
                0x0000000000000000      0x160 build/stm32u5xx_ll_tim.o
 .text.LL_TIM_OC_StructInit
                0x0000000000000000       0x14 build/stm32u5xx_ll_tim.o
 .text.LL_TIM_OC_Init
                0x0000000000000000      0x410 build/stm32u5xx_ll_tim.o
 .text.LL_TIM_IC_StructInit
                0x0000000000000000       0x10 build/stm32u5xx_ll_tim.o
 .text.LL_TIM_IC_Init
                0x0000000000000000       0xde build/stm32u5xx_ll_tim.o
 .text.LL_TIM_ENCODER_StructInit
                0x0000000000000000       0x1c build/stm32u5xx_ll_tim.o
 .text.LL_TIM_ENCODER_Init
                0x0000000000000000       0x5e build/stm32u5xx_ll_tim.o
 .text.LL_TIM_HALLSENSOR_StructInit
                0x0000000000000000        0xc build/stm32u5xx_ll_tim.o
 .text.LL_TIM_HALLSENSOR_Init
                0x0000000000000000       0x5a build/stm32u5xx_ll_tim.o
 .text.LL_TIM_BDTR_StructInit
                0x0000000000000000       0x1e build/stm32u5xx_ll_tim.o
 .text.LL_TIM_BDTR_Init
                0x0000000000000000       0x88 build/stm32u5xx_ll_tim.o
 .comment       0x0000000000000000       0x34 build/stm32u5xx_ll_tim.o
 .ARM.attributes
                0x0000000000000000       0x3a build/stm32u5xx_ll_tim.o
 .text          0x0000000000000000        0x0 build/stm32u5xx_ll_lpuart.o
 .data          0x0000000000000000        0x0 build/stm32u5xx_ll_lpuart.o
 .bss           0x0000000000000000        0x0 build/stm32u5xx_ll_lpuart.o
 .text.LL_LPUART_DeInit
                0x0000000000000000       0x30 build/stm32u5xx_ll_lpuart.o
 .text.LL_LPUART_Init
                0x0000000000000000       0x98 build/stm32u5xx_ll_lpuart.o
 .text.LL_LPUART_StructInit
                0x0000000000000000       0x18 build/stm32u5xx_ll_lpuart.o
 .rodata.LPUART_PRESCALER_TAB
                0x0000000000000000       0x18 build/stm32u5xx_ll_lpuart.o
 .comment       0x0000000000000000       0x34 build/stm32u5xx_ll_lpuart.o
 .ARM.attributes
                0x0000000000000000       0x3a build/stm32u5xx_ll_lpuart.o
 .text          0x0000000000000000        0x0 build/stm32u5xx_ll_usart.o
 .data          0x0000000000000000        0x0 build/stm32u5xx_ll_usart.o
 .bss           0x0000000000000000        0x0 build/stm32u5xx_ll_usart.o
 .text.LL_USART_DeInit
                0x0000000000000000       0x80 build/stm32u5xx_ll_usart.o
 .text.LL_USART_Init
                0x0000000000000000       0xe4 build/stm32u5xx_ll_usart.o
 .text.LL_USART_StructInit
                0x0000000000000000       0x1a build/stm32u5xx_ll_usart.o
 .text.LL_USART_ClockInit
                0x0000000000000000       0x2a build/stm32u5xx_ll_usart.o
 .text.LL_USART_ClockStructInit
                0x0000000000000000        0xc build/stm32u5xx_ll_usart.o
 .rodata.USART_PRESCALER_TAB
                0x0000000000000000       0x30 build/stm32u5xx_ll_usart.o
 .comment       0x0000000000000000       0x34 build/stm32u5xx_ll_usart.o
 .ARM.attributes
                0x0000000000000000       0x3a build/stm32u5xx_ll_usart.o
 .text          0x0000000000000000        0x0 build/stm32u5xx_ll_usb.o
 .data          0x0000000000000000        0x0 build/stm32u5xx_ll_usb.o
 .bss           0x0000000000000000        0x0 build/stm32u5xx_ll_usb.o
 .text.USB_StopDevice
                0x0000000000000000       0x10 build/stm32u5xx_ll_usb.o
 .text.USB_ActivateRemoteWakeup
                0x0000000000000000        0xc build/stm32u5xx_ll_usb.o
 .text.USB_DeActivateRemoteWakeup
                0x0000000000000000        0xc build/stm32u5xx_ll_usb.o
 .text.USB_HostInit
                0x0000000000000000       0x3a build/stm32u5xx_ll_usb.o
 .text.USB_ResetPort
                0x0000000000000000       0x24 build/stm32u5xx_ll_usb.o
 .text.USB_GetHostSpeed
                0x0000000000000000        0xe build/stm32u5xx_ll_usb.o
 .text.USB_GetCurrentFrame
                0x0000000000000000        0x8 build/stm32u5xx_ll_usb.o
 .text.USB_HC_DoubleBuffer
                0x0000000000000000       0x2c build/stm32u5xx_ll_usb.o
 .text.USB_HC_Init
                0x0000000000000000       0x70 build/stm32u5xx_ll_usb.o
 .text.USB_HC_StartXfer
                0x0000000000000000      0x2a0 build/stm32u5xx_ll_usb.o
 .text.USB_HC_IN_Halt
                0x0000000000000000       0x1c build/stm32u5xx_ll_usb.o
 .text.USB_HC_OUT_Halt
                0x0000000000000000       0x1c build/stm32u5xx_ll_usb.o
 .text.USB_StopHost
                0x0000000000000000       0x20 build/stm32u5xx_ll_usb.o
 .text          0x0000000000000000        0x0 build/stm32u5xx_ll_utils.o
 .data          0x0000000000000000        0x0 build/stm32u5xx_ll_utils.o
 .bss           0x0000000000000000        0x0 build/stm32u5xx_ll_utils.o
 .text.LL_RCC_PLL1_ConfigDomain_SYS
                0x0000000000000000       0x34 build/stm32u5xx_ll_utils.o
 .text.UTILS_PLL_IsBusy
                0x0000000000000000       0x28 build/stm32u5xx_ll_utils.o
 .text.LL_Init1msTick
                0x0000000000000000       0x1a build/stm32u5xx_ll_utils.o
 .text.LL_Init1msTick_HCLK_Div8
                0x0000000000000000       0x1a build/stm32u5xx_ll_utils.o
 .text.LL_Init1msTick_LSE
                0x0000000000000000       0x12 build/stm32u5xx_ll_utils.o
 .text.LL_Init1msTick_LSI
                0x0000000000000000        0x4 build/stm32u5xx_ll_utils.o
 .text.LL_mDelay
                0x0000000000000000       0x28 build/stm32u5xx_ll_utils.o
 .text.LL_SetFlashLatency
                0x0000000000000000      0x100 build/stm32u5xx_ll_utils.o
 .text.UTILS_EnablePLLAndSwitchSystem
                0x0000000000000000       0xa4 build/stm32u5xx_ll_utils.o
 .text.LL_PLL_ConfigSystemClock_MSI
                0x0000000000000000       0xdc build/stm32u5xx_ll_utils.o
 .text.LL_PLL_ConfigSystemClock_HSI
                0x0000000000000000       0x54 build/stm32u5xx_ll_utils.o
 .text.LL_PLL_ConfigSystemClock_HSE
                0x0000000000000000       0x64 build/stm32u5xx_ll_utils.o
 .text          0x0000000000000000        0x0 build/stm32u5xx_hal_cortex.o
 .data          0x0000000000000000        0x0 build/stm32u5xx_hal_cortex.o
 .bss           0x0000000000000000        0x0 build/stm32u5xx_hal_cortex.o
 .text.HAL_NVIC_SetPriorityGrouping
                0x0000000000000000       0x24 build/stm32u5xx_hal_cortex.o
 .text.HAL_NVIC_SetPriority
                0x0000000000000000       0x60 build/stm32u5xx_hal_cortex.o
 .text.HAL_NVIC_EnableIRQ
                0x0000000000000000       0x1c build/stm32u5xx_hal_cortex.o
 .text.HAL_NVIC_DisableIRQ
                0x0000000000000000       0x28 build/stm32u5xx_hal_cortex.o
 .text.HAL_NVIC_SystemReset
                0x0000000000000000       0x24 build/stm32u5xx_hal_cortex.o
 .text.HAL_SYSTICK_Config
                0x0000000000000000       0x20 build/stm32u5xx_hal_cortex.o
 .text.HAL_NVIC_GetPriorityGrouping
                0x0000000000000000       0x10 build/stm32u5xx_hal_cortex.o
 .text.HAL_NVIC_GetPriority
                0x0000000000000000       0x60 build/stm32u5xx_hal_cortex.o
 .text.HAL_NVIC_SetPendingIRQ
                0x0000000000000000       0x20 build/stm32u5xx_hal_cortex.o
 .text.HAL_NVIC_GetPendingIRQ
                0x0000000000000000       0x24 build/stm32u5xx_hal_cortex.o
 .text.HAL_NVIC_ClearPendingIRQ
                0x0000000000000000       0x20 build/stm32u5xx_hal_cortex.o
 .text.HAL_NVIC_GetActive
                0x0000000000000000       0x24 build/stm32u5xx_hal_cortex.o
 .text.HAL_SYSTICK_CLKSourceConfig
                0x0000000000000000       0x74 build/stm32u5xx_hal_cortex.o
 .text.HAL_SYSTICK_GetCLKSourceConfig
                0x0000000000000000       0x34 build/stm32u5xx_hal_cortex.o
 .text.HAL_SYSTICK_Callback
                0x0000000000000000        0x2 build/stm32u5xx_hal_cortex.o
 .text.HAL_SYSTICK_IRQHandler
                0x0000000000000000        0x8 build/stm32u5xx_hal_cortex.o
 .text.HAL_MPU_Enable
                0x0000000000000000       0x24 build/stm32u5xx_hal_cortex.o
 .text.HAL_MPU_Disable
                0x0000000000000000       0x28 build/stm32u5xx_hal_cortex.o
 .text.HAL_MPU_EnableRegion
                0x0000000000000000       0x18 build/stm32u5xx_hal_cortex.o
 .text.HAL_MPU_DisableRegion
                0x0000000000000000       0x18 build/stm32u5xx_hal_cortex.o
 .text.HAL_MPU_ConfigRegion
                0x0000000000000000       0x4c build/stm32u5xx_hal_cortex.o
 .text.HAL_MPU_ConfigMemoryAttributes
                0x0000000000000000       0x34 build/stm32u5xx_hal_cortex.o
 .comment       0x0000000000000000       0x34 build/stm32u5xx_hal_cortex.o
 .ARM.attributes
                0x0000000000000000       0x3a build/stm32u5xx_hal_cortex.o
 .text          0x0000000000000000        0x0 build/stm32u5xx_hal_dma.o
 .data          0x0000000000000000        0x0 build/stm32u5xx_hal_dma.o
 .bss           0x0000000000000000        0x0 build/stm32u5xx_hal_dma.o
 .text.HAL_DMA_Init
                0x0000000000000000      0x36c build/stm32u5xx_hal_dma.o
 .text.HAL_DMA_DeInit
                0x0000000000000000       0xe4 build/stm32u5xx_hal_dma.o
 .text.HAL_DMA_Start
                0x0000000000000000       0x58 build/stm32u5xx_hal_dma.o
 .text.HAL_DMA_PollForTransfer
                0x0000000000000000      0x118 build/stm32u5xx_hal_dma.o
 .text.HAL_DMA_RegisterCallback
                0x0000000000000000       0x3a build/stm32u5xx_hal_dma.o
 .text.HAL_DMA_UnRegisterCallback
                0x0000000000000000       0x4c build/stm32u5xx_hal_dma.o
 .text.HAL_DMA_GetState
                0x0000000000000000        0x6 build/stm32u5xx_hal_dma.o
 .text.HAL_DMA_GetConfigChannelAttributes
                0x0000000000000000       0x5a build/stm32u5xx_hal_dma.o
 .text.HAL_DMA_GetLockChannelAttributes
                0x0000000000000000       0x32 build/stm32u5xx_hal_dma.o
 .text          0x0000000000000000        0x0 build/stm32u5xx_hal_dma_ex.o
 .data          0x0000000000000000        0x0 build/stm32u5xx_hal_dma_ex.o
 .bss           0x0000000000000000        0x0 build/stm32u5xx_hal_dma_ex.o
 .text.DMA_List_UpdateStaticQueueNodesCLLR
                0x0000000000000000       0x66 build/stm32u5xx_hal_dma_ex.o
 .text.DMA_List_UpdateDynamicQueueNodesCLLR
                0x0000000000000000       0x98 build/stm32u5xx_hal_dma_ex.o
 .text.HAL_DMAEx_List_DeInit
                0x0000000000000000       0xec build/stm32u5xx_hal_dma_ex.o
 .text.HAL_DMAEx_List_Start
                0x0000000000000000       0x8a build/stm32u5xx_hal_dma_ex.o
 .text.HAL_DMAEx_List_GetNodeConfig
                0x0000000000000000      0x100 build/stm32u5xx_hal_dma_ex.o
 .text.HAL_DMAEx_List_InsertNode
                0x0000000000000000       0xda build/stm32u5xx_hal_dma_ex.o
 .text.HAL_DMAEx_List_InsertNode_Head
                0x0000000000000000       0x74 build/stm32u5xx_hal_dma_ex.o
 .text.HAL_DMAEx_List_RemoveNode
                0x0000000000000000       0xde build/stm32u5xx_hal_dma_ex.o
 .text.HAL_DMAEx_List_RemoveNode_Head
                0x0000000000000000       0x9e build/stm32u5xx_hal_dma_ex.o
 .text.HAL_DMAEx_List_RemoveNode_Tail
                0x0000000000000000       0x80 build/stm32u5xx_hal_dma_ex.o
 .text.HAL_DMAEx_List_ReplaceNode
                0x0000000000000000      0x118 build/stm32u5xx_hal_dma_ex.o
 .text.HAL_DMAEx_List_ReplaceNode_Head
                0x0000000000000000       0x9a build/stm32u5xx_hal_dma_ex.o
 .text.HAL_DMAEx_List_ReplaceNode_Tail
                0x0000000000000000       0x90 build/stm32u5xx_hal_dma_ex.o
 .text.HAL_DMAEx_List_ResetQ
                0x0000000000000000       0x82 build/stm32u5xx_hal_dma_ex.o
 .text.HAL_DMAEx_List_InsertQ
                0x0000000000000000      0x172 build/stm32u5xx_hal_dma_ex.o
 .text.HAL_DMAEx_List_InsertQ_Head
                0x0000000000000000       0xec build/stm32u5xx_hal_dma_ex.o
 .text.HAL_DMAEx_List_InsertQ_Tail
                0x0000000000000000       0xe8 build/stm32u5xx_hal_dma_ex.o
 .text.HAL_DMAEx_List_SetCircularModeConfig
                0x0000000000000000       0x7e build/stm32u5xx_hal_dma_ex.o
 .text.HAL_DMAEx_List_SetCircularMode
                0x0000000000000000       0x6c build/stm32u5xx_hal_dma_ex.o
 .text.HAL_DMAEx_List_ClearCircularMode
                0x0000000000000000       0x58 build/stm32u5xx_hal_dma_ex.o
 .text.HAL_DMAEx_List_ConvertQToDynamic
                0x0000000000000000      0x1b0 build/stm32u5xx_hal_dma_ex.o
 .text.HAL_DMAEx_List_ConvertQToStatic
                0x0000000000000000      0x130 build/stm32u5xx_hal_dma_ex.o
 .text.HAL_DMAEx_List_UnLinkQ
                0x0000000000000000       0x2a build/stm32u5xx_hal_dma_ex.o
 .text.HAL_DMAEx_ConfigDataHandling
                0x0000000000000000       0x34 build/stm32u5xx_hal_dma_ex.o
 .text.HAL_DMAEx_ConfigTrigger
                0x0000000000000000       0x3c build/stm32u5xx_hal_dma_ex.o
 .text.HAL_DMAEx_ConfigRepeatBlock
                0x0000000000000000       0x72 build/stm32u5xx_hal_dma_ex.o
 .text.HAL_DMAEx_Suspend
                0x0000000000000000       0x5e build/stm32u5xx_hal_dma_ex.o
 .text.HAL_DMAEx_Suspend_IT
                0x0000000000000000       0x2a build/stm32u5xx_hal_dma_ex.o
 .text.HAL_DMAEx_Resume
                0x0000000000000000       0x34 build/stm32u5xx_hal_dma_ex.o
 .text.HAL_DMAEx_GetFifoLevel
                0x0000000000000000        0xa build/stm32u5xx_hal_dma_ex.o
 .rodata        0x0000000000000000       0x20 build/stm32u5xx_hal_dma_ex.o
 .text          0x0000000000000000        0x0 build/stm32u5xx_hal_pcd.o
 .data          0x0000000000000000        0x0 build/stm32u5xx_hal_pcd.o
 .bss           0x0000000000000000        0x0 build/stm32u5xx_hal_pcd.o
 .text.HAL_PCD_MspInit
                0x0000000000000000        0x2 build/stm32u5xx_hal_pcd.o
 .text.HAL_PCD_MspDeInit
                0x0000000000000000        0x2 build/stm32u5xx_hal_pcd.o
 .text.HAL_PCD_DeInit
                0x0000000000000000       0x2a build/stm32u5xx_hal_pcd.o
 .text.HAL_PCD_DataOutStageCallback
                0x0000000000000000        0x2 build/stm32u5xx_hal_pcd.o
 .text.HAL_PCD_DataInStageCallback
                0x0000000000000000        0x2 build/stm32u5xx_hal_pcd.o
 .text.HAL_PCD_SetupStageCallback
                0x0000000000000000        0x2 build/stm32u5xx_hal_pcd.o
 .text.HAL_PCD_SOFCallback
                0x0000000000000000        0x2 build/stm32u5xx_hal_pcd.o
 .text.HAL_PCD_ResetCallback
                0x0000000000000000        0x2 build/stm32u5xx_hal_pcd.o
 .text.HAL_PCD_SuspendCallback
                0x0000000000000000        0x2 build/stm32u5xx_hal_pcd.o
 .text.HAL_PCD_ResumeCallback
                0x0000000000000000        0x2 build/stm32u5xx_hal_pcd.o
 .text.HAL_PCD_ISOOUTIncompleteCallback
                0x0000000000000000        0x2 build/stm32u5xx_hal_pcd.o
 .text.HAL_PCD_ISOINIncompleteCallback
                0x0000000000000000        0x2 build/stm32u5xx_hal_pcd.o
 .text.HAL_PCD_ConnectCallback
                0x0000000000000000        0x2 build/stm32u5xx_hal_pcd.o
 .text.HAL_PCD_DisconnectCallback
                0x0000000000000000        0x2 build/stm32u5xx_hal_pcd.o
 .text.HAL_PCD_DevConnect
                0x0000000000000000       0x24 build/stm32u5xx_hal_pcd.o
 .text.HAL_PCD_DevDisconnect
                0x0000000000000000       0x24 build/stm32u5xx_hal_pcd.o
 .text.HAL_PCD_ActivateRemoteWakeup
                0x0000000000000000        0x6 build/stm32u5xx_hal_pcd.o
 .text.HAL_PCD_DeActivateRemoteWakeup
                0x0000000000000000        0x6 build/stm32u5xx_hal_pcd.o
 .text.HAL_PCD_GetState
                0x0000000000000000        0x6 build/stm32u5xx_hal_pcd.o
 .text          0x0000000000000000        0x0 build/stm32u5xx_hal_pcd_ex.o
 .data          0x0000000000000000        0x0 build/stm32u5xx_hal_pcd_ex.o
 .bss           0x0000000000000000        0x0 build/stm32u5xx_hal_pcd_ex.o
 .text.HAL_PCDEx_ActivateBCD
                0x0000000000000000       0x2c build/stm32u5xx_hal_pcd_ex.o
 .text.HAL_PCDEx_DeActivateBCD
                0x0000000000000000       0x14 build/stm32u5xx_hal_pcd_ex.o
 .text.HAL_PCDEx_DeActivateLPM
                0x0000000000000000       0x1c build/stm32u5xx_hal_pcd_ex.o
 .text.HAL_PCDEx_BCD_Callback
                0x0000000000000000        0x2 build/stm32u5xx_hal_pcd_ex.o
 .text.HAL_PCDEx_BCD_VBUSDetect
                0x0000000000000000       0x92 build/stm32u5xx_hal_pcd_ex.o
 .text          0x0000000000000000        0x0 build/stm32u5xx_hal_spi.o
 .data          0x0000000000000000        0x0 build/stm32u5xx_hal_spi.o
 .bss           0x0000000000000000        0x0 build/stm32u5xx_hal_spi.o
 .text.SPI_RxISR_16BIT
                0x0000000000000000       0x2a build/stm32u5xx_hal_spi.o
 .text.SPI_RxISR_32BIT
                0x0000000000000000       0x2a build/stm32u5xx_hal_spi.o
 .text.SPI_TxISR_16BIT
                0x0000000000000000       0x2a build/stm32u5xx_hal_spi.o
 .text.SPI_TxISR_32BIT
                0x0000000000000000       0x2a build/stm32u5xx_hal_spi.o
 .text.SPI_AbortTransfer
                0x0000000000000000       0x62 build/stm32u5xx_hal_spi.o
 .text.SPI_RxISR_8BIT
                0x0000000000000000       0x30 build/stm32u5xx_hal_spi.o
 .text.SPI_TxISR_8BIT
                0x0000000000000000       0x30 build/stm32u5xx_hal_spi.o
 .text.HAL_SPI_MspInit
                0x0000000000000000        0x2 build/stm32u5xx_hal_spi.o
 .text.HAL_SPI_MspDeInit
                0x0000000000000000        0x2 build/stm32u5xx_hal_spi.o
 .text.HAL_SPI_DeInit
                0x0000000000000000       0x2e build/stm32u5xx_hal_spi.o
 .text.HAL_SPI_Transmit
                0x0000000000000000      0x270 build/stm32u5xx_hal_spi.o
 .text.HAL_SPI_Receive
                0x0000000000000000      0x2d4 build/stm32u5xx_hal_spi.o
 .text.HAL_SPI_TransmitReceive
                0x0000000000000000      0x388 build/stm32u5xx_hal_spi.o
 .text.HAL_SPI_Transmit_IT
                0x0000000000000000       0xf4 build/stm32u5xx_hal_spi.o
 .text.HAL_SPI_Receive_IT
                0x0000000000000000       0xf4 build/stm32u5xx_hal_spi.o
 .text.HAL_SPI_TransmitReceive_IT
                0x0000000000000000      0x140 build/stm32u5xx_hal_spi.o
 .text.HAL_SPI_Transmit_DMA
                0x0000000000000000      0x1c4 build/stm32u5xx_hal_spi.o
 .text.HAL_SPI_Receive_DMA
                0x0000000000000000      0x1d0 build/stm32u5xx_hal_spi.o
 .text.HAL_SPI_Abort
                0x0000000000000000      0x12c build/stm32u5xx_hal_spi.o
 .text.HAL_SPI_DMAPause
                0x0000000000000000       0x10 build/stm32u5xx_hal_spi.o
 .text.HAL_SPI_DMAResume
                0x0000000000000000       0x10 build/stm32u5xx_hal_spi.o
 .text.HAL_SPI_DMAStop
                0x0000000000000000       0x10 build/stm32u5xx_hal_spi.o
 .text.SPI_DMATransmitCplt
                0x0000000000000000       0x28 build/stm32u5xx_hal_spi.o
 .text.SPI_DMAReceiveCplt
                0x0000000000000000       0x28 build/stm32u5xx_hal_spi.o
 .text.HAL_SPI_TxRxCpltCallback
                0x0000000000000000        0x2 build/stm32u5xx_hal_spi.o
 .text.HAL_SPI_TxHalfCpltCallback
                0x0000000000000000        0x2 build/stm32u5xx_hal_spi.o
 .text.SPI_DMAHalfTransmitCplt
                0x0000000000000000        0xa build/stm32u5xx_hal_spi.o
 .text.HAL_SPI_RxHalfCpltCallback
                0x0000000000000000        0x2 build/stm32u5xx_hal_spi.o
 .text.SPI_DMAHalfReceiveCplt
                0x0000000000000000        0xa build/stm32u5xx_hal_spi.o
 .text.HAL_SPI_AbortCpltCallback
                0x0000000000000000        0x2 build/stm32u5xx_hal_spi.o
 .text.HAL_SPI_Abort_IT
                0x0000000000000000      0x150 build/stm32u5xx_hal_spi.o
 .text.SPI_DMATxAbortCallback
                0x0000000000000000       0x26 build/stm32u5xx_hal_spi.o
 .text.SPI_DMARxAbortCallback
                0x0000000000000000       0x26 build/stm32u5xx_hal_spi.o
 .text.HAL_SPI_GetState
                0x0000000000000000        0x6 build/stm32u5xx_hal_spi.o
 .text.HAL_SPI_GetError
                0x0000000000000000        0x6 build/stm32u5xx_hal_spi.o
 .text          0x0000000000000000        0x0 build/stm32u5xx_hal_spi_ex.o
 .data          0x0000000000000000        0x0 build/stm32u5xx_hal_spi_ex.o
 .bss           0x0000000000000000        0x0 build/stm32u5xx_hal_spi_ex.o
 .text.HAL_SPIEx_FlushRxFifo
                0x0000000000000000       0x58 build/stm32u5xx_hal_spi_ex.o
 .text.HAL_SPIEx_EnableLockConfiguration
                0x0000000000000000       0x5c build/stm32u5xx_hal_spi_ex.o
 .text.HAL_SPIEx_ConfigureUnderrun
                0x0000000000000000       0x66 build/stm32u5xx_hal_spi_ex.o
 .text.HAL_SPIEx_GetConfigAutonomousMode
                0x0000000000000000       0x3c build/stm32u5xx_hal_spi_ex.o
 .text.HAL_SPIEx_ClearConfigAutonomousMode
                0x0000000000000000       0x42 build/stm32u5xx_hal_spi_ex.o
 .text          0x0000000000000000        0x0 build/ux_dcd_stm32_callback.o
 .data          0x0000000000000000        0x0 build/ux_dcd_stm32_callback.o
 .bss           0x0000000000000000        0x0 build/ux_dcd_stm32_callback.o
 .text.HAL_PCD_ConnectCallback
                0x0000000000000000       0x14 build/ux_dcd_stm32_callback.o
 .text.HAL_PCD_DisconnectCallback
                0x0000000000000000       0x24 build/ux_dcd_stm32_callback.o
 .text          0x0000000000000000        0x0 build/ux_dcd_stm32_endpoint_create.o
 .data          0x0000000000000000        0x0 build/ux_dcd_stm32_endpoint_create.o
 .bss           0x0000000000000000        0x0 build/ux_dcd_stm32_endpoint_create.o
 .text          0x0000000000000000        0x0 build/ux_dcd_stm32_endpoint_destroy.o
 .data          0x0000000000000000        0x0 build/ux_dcd_stm32_endpoint_destroy.o
 .bss           0x0000000000000000        0x0 build/ux_dcd_stm32_endpoint_destroy.o
 .text          0x0000000000000000        0x0 build/ux_dcd_stm32_endpoint_reset.o
 .data          0x0000000000000000        0x0 build/ux_dcd_stm32_endpoint_reset.o
 .bss           0x0000000000000000        0x0 build/ux_dcd_stm32_endpoint_reset.o
 .text          0x0000000000000000        0x0 build/ux_dcd_stm32_endpoint_stall.o
 .data          0x0000000000000000        0x0 build/ux_dcd_stm32_endpoint_stall.o
 .bss           0x0000000000000000        0x0 build/ux_dcd_stm32_endpoint_stall.o
 .text          0x0000000000000000        0x0 build/ux_dcd_stm32_endpoint_status.o
 .data          0x0000000000000000        0x0 build/ux_dcd_stm32_endpoint_status.o
 .bss           0x0000000000000000        0x0 build/ux_dcd_stm32_endpoint_status.o
 .text          0x0000000000000000        0x0 build/ux_dcd_stm32_frame_number_get.o
 .data          0x0000000000000000        0x0 build/ux_dcd_stm32_frame_number_get.o
 .bss           0x0000000000000000        0x0 build/ux_dcd_stm32_frame_number_get.o
 .text          0x0000000000000000        0x0 build/ux_dcd_stm32_function.o
 .data          0x0000000000000000        0x0 build/ux_dcd_stm32_function.o
 .bss           0x0000000000000000        0x0 build/ux_dcd_stm32_function.o
 .text          0x0000000000000000        0x0 build/ux_dcd_stm32_initialize.o
 .data          0x0000000000000000        0x0 build/ux_dcd_stm32_initialize.o
 .bss           0x0000000000000000        0x0 build/ux_dcd_stm32_initialize.o
 .text          0x0000000000000000        0x0 build/ux_dcd_stm32_initialize_complete.o
 .data          0x0000000000000000        0x0 build/ux_dcd_stm32_initialize_complete.o
 .bss           0x0000000000000000        0x0 build/ux_dcd_stm32_initialize_complete.o
 .text          0x0000000000000000        0x0 build/ux_dcd_stm32_interrupt_handler.o
 .data          0x0000000000000000        0x0 build/ux_dcd_stm32_interrupt_handler.o
 .bss           0x0000000000000000        0x0 build/ux_dcd_stm32_interrupt_handler.o
 .text._ux_dcd_stm32_interrupt_handler
                0x0000000000000000       0x14 build/ux_dcd_stm32_interrupt_handler.o
 .comment       0x0000000000000000       0x34 build/ux_dcd_stm32_interrupt_handler.o
 .ARM.attributes
                0x0000000000000000       0x3a build/ux_dcd_stm32_interrupt_handler.o
 .text          0x0000000000000000        0x0 build/ux_dcd_stm32_transfer_run.o
 .data          0x0000000000000000        0x0 build/ux_dcd_stm32_transfer_run.o
 .bss           0x0000000000000000        0x0 build/ux_dcd_stm32_transfer_run.o
 .text          0x0000000000000000        0x0 build/ux_dcd_stm32_uninitialize.o
 .data          0x0000000000000000        0x0 build/ux_dcd_stm32_uninitialize.o
 .bss           0x0000000000000000        0x0 build/ux_dcd_stm32_uninitialize.o
 .text._ux_dcd_stm32_uninitialize
                0x0000000000000000       0x28 build/ux_dcd_stm32_uninitialize.o
 .comment       0x0000000000000000       0x34 build/ux_dcd_stm32_uninitialize.o
 .ARM.attributes
                0x0000000000000000       0x3a build/ux_dcd_stm32_uninitialize.o
 .text          0x0000000000000000        0x0 build/ux_dcd_stm32_transfer_abort.o
 .data          0x0000000000000000        0x0 build/ux_dcd_stm32_transfer_abort.o
 .bss           0x0000000000000000        0x0 build/ux_dcd_stm32_transfer_abort.o
 .text          0x0000000000000000        0x0 build/ux_system_tasks_run.o
 .data          0x0000000000000000        0x0 build/ux_system_tasks_run.o
 .bss           0x0000000000000000        0x0 build/ux_system_tasks_run.o
 .text._ux_system_tasks_run
                0x0000000000000000        0xa build/ux_system_tasks_run.o
 .comment       0x0000000000000000       0x34 build/ux_system_tasks_run.o
 .ARM.attributes
                0x0000000000000000       0x3a build/ux_system_tasks_run.o
 .text          0x0000000000000000        0x0 build/ux_utility_debug_callback_register.o
 .data          0x0000000000000000        0x0 build/ux_utility_debug_callback_register.o
 .bss           0x0000000000000000        0x0 build/ux_utility_debug_callback_register.o
 .comment       0x0000000000000000       0x34 build/ux_utility_debug_callback_register.o
 .ARM.attributes
                0x0000000000000000       0x3c build/ux_utility_debug_callback_register.o
 .text          0x0000000000000000        0x0 build/ux_utility_debug_log.o
 .data          0x0000000000000000        0x0 build/ux_utility_debug_log.o
 .bss           0x0000000000000000        0x0 build/ux_utility_debug_log.o
 .comment       0x0000000000000000       0x34 build/ux_utility_debug_log.o
 .ARM.attributes
                0x0000000000000000       0x3c build/ux_utility_debug_log.o
 .text          0x0000000000000000        0x0 build/ux_utility_delay_ms.o
 .data          0x0000000000000000        0x0 build/ux_utility_delay_ms.o
 .bss           0x0000000000000000        0x0 build/ux_utility_delay_ms.o
 .text._ux_utility_delay_ms
                0x0000000000000000       0x3a build/ux_utility_delay_ms.o
 .comment       0x0000000000000000       0x34 build/ux_utility_delay_ms.o
 .ARM.attributes
                0x0000000000000000       0x3a build/ux_utility_delay_ms.o
 .text          0x0000000000000000        0x0 build/ux_utility_descriptor_pack.o
 .data          0x0000000000000000        0x0 build/ux_utility_descriptor_pack.o
 .bss           0x0000000000000000        0x0 build/ux_utility_descriptor_pack.o
 .text._ux_utility_descriptor_pack
                0x0000000000000000       0x4e build/ux_utility_descriptor_pack.o
 .comment       0x0000000000000000       0x34 build/ux_utility_descriptor_pack.o
 .ARM.attributes
                0x0000000000000000       0x3a build/ux_utility_descriptor_pack.o
 .text          0x0000000000000000        0x0 build/ux_utility_descriptor_parse.o
 .data          0x0000000000000000        0x0 build/ux_utility_descriptor_parse.o
 .bss           0x0000000000000000        0x0 build/ux_utility_descriptor_parse.o
 .text._ux_utility_descriptor_parse_size
                0x0000000000000000       0x38 build/ux_utility_descriptor_parse.o
 .text          0x0000000000000000        0x0 build/ux_utility_error_callback_register.o
 .data          0x0000000000000000        0x0 build/ux_utility_error_callback_register.o
 .bss           0x0000000000000000        0x0 build/ux_utility_error_callback_register.o
 .text._ux_utility_error_callback_register
                0x0000000000000000        0xc build/ux_utility_error_callback_register.o
 .comment       0x0000000000000000       0x34 build/ux_utility_error_callback_register.o
 .ARM.attributes
                0x0000000000000000       0x3a build/ux_utility_error_callback_register.o
 .text          0x0000000000000000        0x0 build/ux_utility_long_get.o
 .data          0x0000000000000000        0x0 build/ux_utility_long_get.o
 .bss           0x0000000000000000        0x0 build/ux_utility_long_get.o
 .text          0x0000000000000000        0x0 build/ux_utility_long_get_big_endian.o
 .data          0x0000000000000000        0x0 build/ux_utility_long_get_big_endian.o
 .bss           0x0000000000000000        0x0 build/ux_utility_long_get_big_endian.o
 .text._ux_utility_long_get_big_endian
                0x0000000000000000        0x6 build/ux_utility_long_get_big_endian.o
 .comment       0x0000000000000000       0x34 build/ux_utility_long_get_big_endian.o
 .ARM.attributes
                0x0000000000000000       0x3a build/ux_utility_long_get_big_endian.o
 .text          0x0000000000000000        0x0 build/ux_utility_long_put.o
 .data          0x0000000000000000        0x0 build/ux_utility_long_put.o
 .bss           0x0000000000000000        0x0 build/ux_utility_long_put.o
 .text          0x0000000000000000        0x0 build/ux_utility_long_put_big_endian.o
 .data          0x0000000000000000        0x0 build/ux_utility_long_put_big_endian.o
 .bss           0x0000000000000000        0x0 build/ux_utility_long_put_big_endian.o
 .text._ux_utility_long_put_big_endian
                0x0000000000000000       0x14 build/ux_utility_long_put_big_endian.o
 .comment       0x0000000000000000       0x34 build/ux_utility_long_put_big_endian.o
 .ARM.attributes
                0x0000000000000000       0x3a build/ux_utility_long_put_big_endian.o
 .text          0x0000000000000000        0x0 build/ux_utility_memory_allocate.o
 .data          0x0000000000000000        0x0 build/ux_utility_memory_allocate.o
 .bss           0x0000000000000000        0x0 build/ux_utility_memory_allocate.o
 .text          0x0000000000000000        0x0 build/ux_utility_memory_allocate_add_safe.o
 .data          0x0000000000000000        0x0 build/ux_utility_memory_allocate_add_safe.o
 .bss           0x0000000000000000        0x0 build/ux_utility_memory_allocate_add_safe.o
 .text._ux_utility_memory_allocate_add_safe
                0x0000000000000000       0x1a build/ux_utility_memory_allocate_add_safe.o
 .comment       0x0000000000000000       0x34 build/ux_utility_memory_allocate_add_safe.o
 .ARM.attributes
                0x0000000000000000       0x3a build/ux_utility_memory_allocate_add_safe.o
 .text          0x0000000000000000        0x0 build/ux_utility_memory_allocate_mulc_safe.o
 .data          0x0000000000000000        0x0 build/ux_utility_memory_allocate_mulc_safe.o
 .bss           0x0000000000000000        0x0 build/ux_utility_memory_allocate_mulc_safe.o
 .text          0x0000000000000000        0x0 build/ux_utility_memory_allocate_mulv_safe.o
 .data          0x0000000000000000        0x0 build/ux_utility_memory_allocate_mulv_safe.o
 .bss           0x0000000000000000        0x0 build/ux_utility_memory_allocate_mulv_safe.o
 .text._ux_utility_memory_allocate_mulv_safe
                0x0000000000000000       0x22 build/ux_utility_memory_allocate_mulv_safe.o
 .comment       0x0000000000000000       0x34 build/ux_utility_memory_allocate_mulv_safe.o
 .ARM.attributes
                0x0000000000000000       0x3a build/ux_utility_memory_allocate_mulv_safe.o
 .text          0x0000000000000000        0x0 build/ux_utility_memory_compare.o
 .data          0x0000000000000000        0x0 build/ux_utility_memory_compare.o
 .bss           0x0000000000000000        0x0 build/ux_utility_memory_compare.o
 .text._ux_utility_memory_compare
                0x0000000000000000       0x1c build/ux_utility_memory_compare.o
 .comment       0x0000000000000000       0x34 build/ux_utility_memory_compare.o
 .ARM.attributes
                0x0000000000000000       0x3a build/ux_utility_memory_compare.o
 .text          0x0000000000000000        0x0 build/ux_utility_memory_copy.o
 .data          0x0000000000000000        0x0 build/ux_utility_memory_copy.o
 .bss           0x0000000000000000        0x0 build/ux_utility_memory_copy.o
 .text          0x0000000000000000        0x0 build/ux_utility_memory_free.o
 .data          0x0000000000000000        0x0 build/ux_utility_memory_free.o
 .bss           0x0000000000000000        0x0 build/ux_utility_memory_free.o
 .text          0x0000000000000000        0x0 build/ux_utility_memory_byte_pool_create.o
 .data          0x0000000000000000        0x0 build/ux_utility_memory_byte_pool_create.o
 .bss           0x0000000000000000        0x0 build/ux_utility_memory_byte_pool_create.o
 .text          0x0000000000000000        0x0 build/ux_utility_memory_byte_pool_search.o
 .data          0x0000000000000000        0x0 build/ux_utility_memory_byte_pool_search.o
 .bss           0x0000000000000000        0x0 build/ux_utility_memory_byte_pool_search.o
 .text          0x0000000000000000        0x0 build/ux_utility_memory_set.o
 .data          0x0000000000000000        0x0 build/ux_utility_memory_set.o
 .bss           0x0000000000000000        0x0 build/ux_utility_memory_set.o
 .text          0x0000000000000000        0x0 build/ux_utility_physical_address.o
 .data          0x0000000000000000        0x0 build/ux_utility_physical_address.o
 .bss           0x0000000000000000        0x0 build/ux_utility_physical_address.o
 .text._ux_utility_physical_address
                0x0000000000000000        0x2 build/ux_utility_physical_address.o
 .comment       0x0000000000000000       0x34 build/ux_utility_physical_address.o
 .ARM.attributes
                0x0000000000000000       0x3a build/ux_utility_physical_address.o
 .text          0x0000000000000000        0x0 build/ux_utility_set_interrupt_handler.o
 .data          0x0000000000000000        0x0 build/ux_utility_set_interrupt_handler.o
 .bss           0x0000000000000000        0x0 build/ux_utility_set_interrupt_handler.o
 .text._ux_utility_set_interrupt_handler
                0x0000000000000000        0x2 build/ux_utility_set_interrupt_handler.o
 .comment       0x0000000000000000       0x34 build/ux_utility_set_interrupt_handler.o
 .ARM.attributes
                0x0000000000000000       0x3a build/ux_utility_set_interrupt_handler.o
 .text          0x0000000000000000        0x0 build/ux_utility_short_get.o
 .data          0x0000000000000000        0x0 build/ux_utility_short_get.o
 .bss           0x0000000000000000        0x0 build/ux_utility_short_get.o
 .text          0x0000000000000000        0x0 build/ux_utility_short_get_big_endian.o
 .data          0x0000000000000000        0x0 build/ux_utility_short_get_big_endian.o
 .bss           0x0000000000000000        0x0 build/ux_utility_short_get_big_endian.o
 .text._ux_utility_short_get_big_endian
                0x0000000000000000        0x8 build/ux_utility_short_get_big_endian.o
 .comment       0x0000000000000000       0x34 build/ux_utility_short_get_big_endian.o
 .ARM.attributes
                0x0000000000000000       0x3a build/ux_utility_short_get_big_endian.o
 .text          0x0000000000000000        0x0 build/ux_utility_short_put.o
 .data          0x0000000000000000        0x0 build/ux_utility_short_put.o
 .bss           0x0000000000000000        0x0 build/ux_utility_short_put.o
 .text._ux_utility_short_put
                0x0000000000000000        0x8 build/ux_utility_short_put.o
 .comment       0x0000000000000000       0x34 build/ux_utility_short_put.o
 .ARM.attributes
                0x0000000000000000       0x3a build/ux_utility_short_put.o
 .text          0x0000000000000000        0x0 build/ux_utility_short_put_big_endian.o
 .data          0x0000000000000000        0x0 build/ux_utility_short_put_big_endian.o
 .bss           0x0000000000000000        0x0 build/ux_utility_short_put_big_endian.o
 .text._ux_utility_short_put_big_endian
                0x0000000000000000        0xc build/ux_utility_short_put_big_endian.o
 .comment       0x0000000000000000       0x34 build/ux_utility_short_put_big_endian.o
 .ARM.attributes
                0x0000000000000000       0x3a build/ux_utility_short_put_big_endian.o
 .text          0x0000000000000000        0x0 build/ux_utility_string_length_check.o
 .data          0x0000000000000000        0x0 build/ux_utility_string_length_check.o
 .bss           0x0000000000000000        0x0 build/ux_utility_string_length_check.o
 .text          0x0000000000000000        0x0 build/ux_utility_string_length_get.o
 .data          0x0000000000000000        0x0 build/ux_utility_string_length_get.o
 .bss           0x0000000000000000        0x0 build/ux_utility_string_length_get.o
 .text._ux_utility_string_length_get
                0x0000000000000000        0xe build/ux_utility_string_length_get.o
 .comment       0x0000000000000000       0x34 build/ux_utility_string_length_get.o
 .ARM.attributes
                0x0000000000000000       0x3a build/ux_utility_string_length_get.o
 .text          0x0000000000000000        0x0 build/ux_utility_string_to_unicode.o
 .data          0x0000000000000000        0x0 build/ux_utility_string_to_unicode.o
 .bss           0x0000000000000000        0x0 build/ux_utility_string_to_unicode.o
 .text._ux_utility_string_to_unicode
                0x0000000000000000       0x44 build/ux_utility_string_to_unicode.o
 .comment       0x0000000000000000       0x34 build/ux_utility_string_to_unicode.o
 .ARM.attributes
                0x0000000000000000       0x3a build/ux_utility_string_to_unicode.o
 .text          0x0000000000000000        0x0 build/ux_utility_unicode_to_string.o
 .data          0x0000000000000000        0x0 build/ux_utility_unicode_to_string.o
 .bss           0x0000000000000000        0x0 build/ux_utility_unicode_to_string.o
 .text._ux_utility_unicode_to_string
                0x0000000000000000       0x24 build/ux_utility_unicode_to_string.o
 .comment       0x0000000000000000       0x34 build/ux_utility_unicode_to_string.o
 .ARM.attributes
                0x0000000000000000       0x3a build/ux_utility_unicode_to_string.o
 .text          0x0000000000000000        0x0 build/ux_utility_virtual_address.o
 .data          0x0000000000000000        0x0 build/ux_utility_virtual_address.o
 .bss           0x0000000000000000        0x0 build/ux_utility_virtual_address.o
 .text._ux_utility_virtual_address
                0x0000000000000000        0x2 build/ux_utility_virtual_address.o
 .comment       0x0000000000000000       0x34 build/ux_utility_virtual_address.o
 .ARM.attributes
                0x0000000000000000       0x3a build/ux_utility_virtual_address.o
 .text          0x0000000000000000        0x0 build/ux_system_error_handler.o
 .data          0x0000000000000000        0x0 build/ux_system_error_handler.o
 .bss           0x0000000000000000        0x0 build/ux_system_error_handler.o
 .text          0x0000000000000000        0x0 build/ux_system_initialize.o
 .data          0x0000000000000000        0x0 build/ux_system_initialize.o
 .bss           0x0000000000000000        0x0 build/ux_system_initialize.o
 .bss._ux_system_otg
                0x0000000000000000        0x4 build/ux_system_initialize.o
 .data._ux_system_class_audio_feature_unit_descriptor_structure
                0x0000000000000000        0x7 build/ux_system_initialize.o
 .data._ux_system_class_audio_input_terminal_descriptor_structure
                0x0000000000000000        0xa build/ux_system_initialize.o
 .data._ux_system_class_audio_interface_descriptor_structure
                0x0000000000000000        0x8 build/ux_system_initialize.o
 .data._ux_system_class_audio_output_terminal_descriptor_structure
                0x0000000000000000        0x8 build/ux_system_initialize.o
 .data._ux_system_class_audio_streaming_endpoint_descriptor_structure
                0x0000000000000000        0x6 build/ux_system_initialize.o
 .data._ux_system_class_audio_streaming_interface_descriptor_structure
                0x0000000000000000        0x6 build/ux_system_initialize.o
 .data._ux_system_class_pima_object_structure
                0x0000000000000000        0xf build/ux_system_initialize.o
 .data._ux_system_class_pima_storage_structure
                0x0000000000000000        0x8 build/ux_system_initialize.o
 .data._ux_system_container_id_descriptor_structure
                0x0000000000000000        0x8 build/ux_system_initialize.o
 .data._ux_system_dfu_functional_descriptor_structure
                0x0000000000000000        0x6 build/ux_system_initialize.o
 .data._ux_system_ecm_interface_descriptor_structure
                0x0000000000000000        0x8 build/ux_system_initialize.o
 .data._ux_system_hid_descriptor_structure
                0x0000000000000000        0x7 build/ux_system_initialize.o
 .data._ux_system_hub_descriptor_structure
                0x0000000000000000        0x8 build/ux_system_initialize.o
 .data._ux_system_interface_association_descriptor_structure
                0x0000000000000000        0x8 build/ux_system_initialize.o
 .data._ux_system_string_descriptor_structure
                0x0000000000000000        0x3 build/ux_system_initialize.o
 .data._ux_system_usb_2_0_extension_descriptor_structure
                0x0000000000000000        0x4 build/ux_system_initialize.o
 .data._ux_version_id
                0x0000000000000000       0x59 build/ux_system_initialize.o
 .text          0x0000000000000000        0x0 build/ux_system_uninitialize.o
 .data          0x0000000000000000        0x0 build/ux_system_uninitialize.o
 .bss           0x0000000000000000        0x0 build/ux_system_uninitialize.o
 .text._ux_system_uninitialize
                0x0000000000000000        0x4 build/ux_system_uninitialize.o
 .comment       0x0000000000000000       0x34 build/ux_system_uninitialize.o
 .ARM.attributes
                0x0000000000000000       0x3a build/ux_system_uninitialize.o
 .text          0x0000000000000000        0x0 build/ux_device_stack_alternate_setting_get.o
 .data          0x0000000000000000        0x0 build/ux_device_stack_alternate_setting_get.o
 .bss           0x0000000000000000        0x0 build/ux_device_stack_alternate_setting_get.o
 .text          0x0000000000000000        0x0 build/ux_device_stack_alternate_setting_set.o
 .data          0x0000000000000000        0x0 build/ux_device_stack_alternate_setting_set.o
 .bss           0x0000000000000000        0x0 build/ux_device_stack_alternate_setting_set.o
 .text          0x0000000000000000        0x0 build/ux_device_stack_class_register.o
 .data          0x0000000000000000        0x0 build/ux_device_stack_class_register.o
 .bss           0x0000000000000000        0x0 build/ux_device_stack_class_register.o
 .text._uxe_device_stack_class_register
                0x0000000000000000       0x12 build/ux_device_stack_class_register.o
 .text          0x0000000000000000        0x0 build/ux_device_stack_class_unregister.o
 .data          0x0000000000000000        0x0 build/ux_device_stack_class_unregister.o
 .bss           0x0000000000000000        0x0 build/ux_device_stack_class_unregister.o
 .text._ux_device_stack_class_unregister
                0x0000000000000000       0x54 build/ux_device_stack_class_unregister.o
 .text._uxe_device_stack_class_unregister
                0x0000000000000000        0xc build/ux_device_stack_class_unregister.o
 .comment       0x0000000000000000       0x34 build/ux_device_stack_class_unregister.o
 .ARM.attributes
                0x0000000000000000       0x3a build/ux_device_stack_class_unregister.o
 .text          0x0000000000000000        0x0 build/ux_device_stack_clear_feature.o
 .data          0x0000000000000000        0x0 build/ux_device_stack_clear_feature.o
 .bss           0x0000000000000000        0x0 build/ux_device_stack_clear_feature.o
 .text          0x0000000000000000        0x0 build/ux_device_stack_configuration_get.o
 .data          0x0000000000000000        0x0 build/ux_device_stack_configuration_get.o
 .bss           0x0000000000000000        0x0 build/ux_device_stack_configuration_get.o
 .text          0x0000000000000000        0x0 build/ux_device_stack_configuration_set.o
 .data          0x0000000000000000        0x0 build/ux_device_stack_configuration_set.o
 .bss           0x0000000000000000        0x0 build/ux_device_stack_configuration_set.o
 .text          0x0000000000000000        0x0 build/ux_device_stack_control_request_process.o
 .data          0x0000000000000000        0x0 build/ux_device_stack_control_request_process.o
 .bss           0x0000000000000000        0x0 build/ux_device_stack_control_request_process.o
 .text          0x0000000000000000        0x0 build/ux_device_stack_descriptor_send.o
 .data          0x0000000000000000        0x0 build/ux_device_stack_descriptor_send.o
 .bss           0x0000000000000000        0x0 build/ux_device_stack_descriptor_send.o
 .text          0x0000000000000000        0x0 build/ux_device_stack_disconnect.o
 .data          0x0000000000000000        0x0 build/ux_device_stack_disconnect.o
 .bss           0x0000000000000000        0x0 build/ux_device_stack_disconnect.o
 .text          0x0000000000000000        0x0 build/ux_device_stack_endpoint_stall.o
 .data          0x0000000000000000        0x0 build/ux_device_stack_endpoint_stall.o
 .bss           0x0000000000000000        0x0 build/ux_device_stack_endpoint_stall.o
 .text          0x0000000000000000        0x0 build/ux_device_stack_get_status.o
 .data          0x0000000000000000        0x0 build/ux_device_stack_get_status.o
 .bss           0x0000000000000000        0x0 build/ux_device_stack_get_status.o
 .text          0x0000000000000000        0x0 build/ux_device_stack_host_wakeup.o
 .data          0x0000000000000000        0x0 build/ux_device_stack_host_wakeup.o
 .bss           0x0000000000000000        0x0 build/ux_device_stack_host_wakeup.o
 .text._ux_device_stack_host_wakeup
                0x0000000000000000       0x1c build/ux_device_stack_host_wakeup.o
 .comment       0x0000000000000000       0x34 build/ux_device_stack_host_wakeup.o
 .ARM.attributes
                0x0000000000000000       0x3a build/ux_device_stack_host_wakeup.o
 .text          0x0000000000000000        0x0 build/ux_device_stack_initialize.o
 .data          0x0000000000000000        0x0 build/ux_device_stack_initialize.o
 .bss           0x0000000000000000        0x0 build/ux_device_stack_initialize.o
 .text._uxe_device_stack_initialize
                0x0000000000000000       0x34 build/ux_device_stack_initialize.o
 .data._ux_system_device_class_ccid_name
                0x0000000000000000       0x15 build/ux_device_stack_initialize.o
 .data._ux_system_device_class_printer_name
                0x0000000000000000       0x18 build/ux_device_stack_initialize.o
 .data._ux_system_device_class_video_name
                0x0000000000000000       0x16 build/ux_device_stack_initialize.o
 .data._ux_system_slave_class_audio_name
                0x0000000000000000       0x15 build/ux_device_stack_initialize.o
 .data._ux_system_slave_class_cdc_ecm_name
                0x0000000000000000       0x17 build/ux_device_stack_initialize.o
 .data._ux_system_slave_class_dfu_name
                0x0000000000000000       0x13 build/ux_device_stack_initialize.o
 .data._ux_system_slave_class_dpump_name
                0x0000000000000000       0x15 build/ux_device_stack_initialize.o
 .data._ux_system_slave_class_hid_name
                0x0000000000000000       0x13 build/ux_device_stack_initialize.o
 .data._ux_system_slave_class_pima_name
                0x0000000000000000       0x14 build/ux_device_stack_initialize.o
 .data._ux_system_slave_class_rndis_name
                0x0000000000000000       0x15 build/ux_device_stack_initialize.o
 .data._ux_system_slave_class_storage_name
                0x0000000000000000       0x17 build/ux_device_stack_initialize.o
 .text          0x0000000000000000        0x0 build/ux_device_stack_interface_delete.o
 .data          0x0000000000000000        0x0 build/ux_device_stack_interface_delete.o
 .bss           0x0000000000000000        0x0 build/ux_device_stack_interface_delete.o
 .text          0x0000000000000000        0x0 build/ux_device_stack_interface_get.o
 .data          0x0000000000000000        0x0 build/ux_device_stack_interface_get.o
 .bss           0x0000000000000000        0x0 build/ux_device_stack_interface_get.o
 .text._ux_device_stack_interface_get
                0x0000000000000000       0x50 build/ux_device_stack_interface_get.o
 .comment       0x0000000000000000       0x34 build/ux_device_stack_interface_get.o
 .ARM.attributes
                0x0000000000000000       0x3a build/ux_device_stack_interface_get.o
 .text          0x0000000000000000        0x0 build/ux_device_stack_interface_set.o
 .data          0x0000000000000000        0x0 build/ux_device_stack_interface_set.o
 .bss           0x0000000000000000        0x0 build/ux_device_stack_interface_set.o
 .text          0x0000000000000000        0x0 build/ux_device_stack_interface_start.o
 .data          0x0000000000000000        0x0 build/ux_device_stack_interface_start.o
 .bss           0x0000000000000000        0x0 build/ux_device_stack_interface_start.o
 .text          0x0000000000000000        0x0 build/ux_device_stack_microsoft_extension_register.o
 .data          0x0000000000000000        0x0 build/ux_device_stack_microsoft_extension_register.o
 .bss           0x0000000000000000        0x0 build/ux_device_stack_microsoft_extension_register.o
 .text._ux_device_stack_microsoft_extension_register
                0x0000000000000000       0x10 build/ux_device_stack_microsoft_extension_register.o
 .comment       0x0000000000000000       0x34 build/ux_device_stack_microsoft_extension_register.o
 .ARM.attributes
                0x0000000000000000       0x3a build/ux_device_stack_microsoft_extension_register.o
 .text          0x0000000000000000        0x0 build/ux_device_stack_set_feature.o
 .data          0x0000000000000000        0x0 build/ux_device_stack_set_feature.o
 .bss           0x0000000000000000        0x0 build/ux_device_stack_set_feature.o
 .text          0x0000000000000000        0x0 build/ux_device_stack_transfer_abort.o
 .data          0x0000000000000000        0x0 build/ux_device_stack_transfer_abort.o
 .bss           0x0000000000000000        0x0 build/ux_device_stack_transfer_abort.o
 .text          0x0000000000000000        0x0 build/ux_device_stack_transfer_all_request_abort.o
 .data          0x0000000000000000        0x0 build/ux_device_stack_transfer_all_request_abort.o
 .bss           0x0000000000000000        0x0 build/ux_device_stack_transfer_all_request_abort.o
 .text          0x0000000000000000        0x0 build/ux_device_stack_transfer_request.o
 .data          0x0000000000000000        0x0 build/ux_device_stack_transfer_request.o
 .bss           0x0000000000000000        0x0 build/ux_device_stack_transfer_request.o
 .text          0x0000000000000000        0x0 build/ux_device_stack_uninitialize.o
 .data          0x0000000000000000        0x0 build/ux_device_stack_uninitialize.o
 .bss           0x0000000000000000        0x0 build/ux_device_stack_uninitialize.o
 .text._ux_device_stack_uninitialize
                0x0000000000000000       0x40 build/ux_device_stack_uninitialize.o
 .comment       0x0000000000000000       0x34 build/ux_device_stack_uninitialize.o
 .ARM.attributes
                0x0000000000000000       0x3a build/ux_device_stack_uninitialize.o
 .text          0x0000000000000000        0x0 build/ux_device_stack_tasks_run.o
 .data          0x0000000000000000        0x0 build/ux_device_stack_tasks_run.o
 .bss           0x0000000000000000        0x0 build/ux_device_stack_tasks_run.o
 .text          0x0000000000000000        0x0 build/ux_device_stack_transfer_run.o
 .data          0x0000000000000000        0x0 build/ux_device_stack_transfer_run.o
 .bss           0x0000000000000000        0x0 build/ux_device_stack_transfer_run.o
 .text          0x0000000000000000        0x0 build/ux_device_class_cdc_acm_activate.o
 .data          0x0000000000000000        0x0 build/ux_device_class_cdc_acm_activate.o
 .bss           0x0000000000000000        0x0 build/ux_device_class_cdc_acm_activate.o
 .text          0x0000000000000000        0x0 build/ux_device_class_cdc_acm_control_request.o
 .data          0x0000000000000000        0x0 build/ux_device_class_cdc_acm_control_request.o
 .bss           0x0000000000000000        0x0 build/ux_device_class_cdc_acm_control_request.o
 .text          0x0000000000000000        0x0 build/ux_device_class_cdc_acm_deactivate.o
 .data          0x0000000000000000        0x0 build/ux_device_class_cdc_acm_deactivate.o
 .bss           0x0000000000000000        0x0 build/ux_device_class_cdc_acm_deactivate.o
 .text          0x0000000000000000        0x0 build/ux_device_class_cdc_acm_entry.o
 .data          0x0000000000000000        0x0 build/ux_device_class_cdc_acm_entry.o
 .bss           0x0000000000000000        0x0 build/ux_device_class_cdc_acm_entry.o
 .text          0x0000000000000000        0x0 build/ux_device_class_cdc_acm_initialize.o
 .data          0x0000000000000000        0x0 build/ux_device_class_cdc_acm_initialize.o
 .bss           0x0000000000000000        0x0 build/ux_device_class_cdc_acm_initialize.o
 .text          0x0000000000000000        0x0 build/ux_device_class_cdc_acm_ioctl.o
 .data          0x0000000000000000        0x0 build/ux_device_class_cdc_acm_ioctl.o
 .bss           0x0000000000000000        0x0 build/ux_device_class_cdc_acm_ioctl.o
 .text._uxe_device_class_cdc_acm_ioctl
                0x0000000000000000        0xa build/ux_device_class_cdc_acm_ioctl.o
 .text          0x0000000000000000        0x0 build/ux_device_class_cdc_acm_unitialize.o
 .data          0x0000000000000000        0x0 build/ux_device_class_cdc_acm_unitialize.o
 .bss           0x0000000000000000        0x0 build/ux_device_class_cdc_acm_unitialize.o
 .text          0x0000000000000000        0x0 build/ux_device_class_cdc_acm_write_with_callback.o
 .data          0x0000000000000000        0x0 build/ux_device_class_cdc_acm_write_with_callback.o
 .bss           0x0000000000000000        0x0 build/ux_device_class_cdc_acm_write_with_callback.o
 .text._ux_device_class_cdc_acm_write_with_callback
                0x0000000000000000        0x4 build/ux_device_class_cdc_acm_write_with_callback.o
 .text._uxe_device_class_cdc_acm_write_with_callback
                0x0000000000000000       0x16 build/ux_device_class_cdc_acm_write_with_callback.o
 .comment       0x0000000000000000       0x34 build/ux_device_class_cdc_acm_write_with_callback.o
 .ARM.attributes
                0x0000000000000000       0x3a build/ux_device_class_cdc_acm_write_with_callback.o
 .text          0x0000000000000000        0x0 build/ux_device_class_cdc_acm_read_run.o
 .data          0x0000000000000000        0x0 build/ux_device_class_cdc_acm_read_run.o
 .bss           0x0000000000000000        0x0 build/ux_device_class_cdc_acm_read_run.o
 .text._uxe_device_class_cdc_acm_read_run
                0x0000000000000000       0x10 build/ux_device_class_cdc_acm_read_run.o
 .text          0x0000000000000000        0x0 build/ux_device_class_cdc_acm_tasks_run.o
 .data          0x0000000000000000        0x0 build/ux_device_class_cdc_acm_tasks_run.o
 .bss           0x0000000000000000        0x0 build/ux_device_class_cdc_acm_tasks_run.o
 .text._ux_device_class_cdc_acm_tasks_run
                0x0000000000000000        0x4 build/ux_device_class_cdc_acm_tasks_run.o
 .comment       0x0000000000000000       0x34 build/ux_device_class_cdc_acm_tasks_run.o
 .ARM.attributes
                0x0000000000000000       0x3a build/ux_device_class_cdc_acm_tasks_run.o
 .text          0x0000000000000000        0x0 build/ux_device_class_cdc_acm_write_run.o
 .data          0x0000000000000000        0x0 build/ux_device_class_cdc_acm_write_run.o
 .bss           0x0000000000000000        0x0 build/ux_device_class_cdc_acm_write_run.o
 .text._uxe_device_class_cdc_acm_write_run
                0x0000000000000000       0x10 build/ux_device_class_cdc_acm_write_run.o
 .text          0x0000000000000000        0x0 build/main.o
 .data          0x0000000000000000        0x0 build/main.o
 .bss           0x0000000000000000        0x0 build/main.o
 .text          0x0000000000000000        0x0 build/cmd.o
 .data          0x0000000000000000        0x0 build/cmd.o
 .bss           0x0000000000000000        0x0 build/cmd.o
 .text          0x0000000000000000        0x0 build/tty.o
 .data          0x0000000000000000        0x0 build/tty.o
 .bss           0x0000000000000000        0x0 build/tty.o
 .text.tty_put_binary
                0x0000000000000000        0x6 build/tty.o
 .text          0x0000000000000000        0x0 build/led.o
 .data          0x0000000000000000        0x0 build/led.o
 .bss           0x0000000000000000        0x0 build/led.o
 .text.led_instant_sequence
                0x0000000000000000       0x10 build/led.o
 .text          0x0000000000000000        0x0 build/dma.o
 .data          0x0000000000000000        0x0 build/dma.o
 .bss           0x0000000000000000        0x0 build/dma.o
 .text          0x0000000000000000        0x0 build/gpio.o
 .data          0x0000000000000000        0x0 build/gpio.o
 .bss           0x0000000000000000        0x0 build/gpio.o
 .text.gpio_pin_code
                0x0000000000000000       0x14 build/gpio.o
 .text          0x0000000000000000        0x0 build/irq.o
 .data          0x0000000000000000        0x0 build/irq.o
 .bss           0x0000000000000000        0x0 build/irq.o
 .text          0x0000000000000000        0x0 build/reset.o
 .data          0x0000000000000000        0x0 build/reset.o
 .bss           0x0000000000000000        0x0 build/reset.o
 .text          0x0000000000000000        0x0 build/time.o
 .data          0x0000000000000000        0x0 build/time.o
 .bss           0x0000000000000000        0x0 build/time.o
 .text.timer_get_time_irq
                0x0000000000000000        0xe build/time.o
 .text.time_delay_us
                0x0000000000000000       0x20 build/time.o
 .text.timer3_init
                0x0000000000000000       0x3c build/time.o
 .text          0x0000000000000000        0x0 build/uart.o
 .data          0x0000000000000000        0x0 build/uart.o
 .bss           0x0000000000000000        0x0 build/uart.o
 .text.uart1_getchar
                0x0000000000000000       0x34 build/uart.o
 .text.uart1_putchar
                0x0000000000000000       0x4c build/uart.o
 .text.uart1_init
                0x0000000000000000       0xfc build/uart.o
 .text.uart1_set_state
                0x0000000000000000       0x1c build/uart.o
 .bss.u1_rx_buf
                0x0000000000000000      0x200 build/uart.o
 .bss.u1_tx_buf
                0x0000000000000000      0x400 build/uart.o
 .text          0x0000000000000000        0x0 build/sys.o
 .data          0x0000000000000000        0x0 build/sys.o
 .bss           0x0000000000000000        0x0 build/sys.o
 .text.sys_usb_clock_config
                0x0000000000000000       0x14 build/sys.o
 .text.sys_get_hclk
                0x0000000000000000        0xc build/sys.o
 .text.sys_flash_size
                0x0000000000000000        0xc build/sys.o
 .text.HAL_Delay
                0x0000000000000000        0x4 build/sys.o
 .text          0x0000000000000000        0x0 build/wd.o
 .data          0x0000000000000000        0x0 build/wd.o
 .bss           0x0000000000000000        0x0 build/wd.o
 .text.wd_disable
                0x0000000000000000        0xc build/wd.o
 .text          0x0000000000000000        0x0 build/spi.o
 .data          0x0000000000000000        0x0 build/spi.o
 .bss           0x0000000000000000        0x0 build/spi.o
 .text          0x0000000000000000        0x0 build/util.o
 .data          0x0000000000000000        0x0 build/util.o
 .bss           0x0000000000000000        0x0 build/util.o
 .text.is_number
                0x0000000000000000       0x1c build/util.o
 .text.is_hex   0x0000000000000000        0xc build/util.o
 .text          0x0000000000000000        0x0 build/ux_device_cdc_acm.o
 .data          0x0000000000000000        0x0 build/ux_device_cdc_acm.o
 .bss           0x0000000000000000        0x0 build/ux_device_cdc_acm.o
 .text          0x0000000000000000        0x0 build/ux_device_descriptors.o
 .data          0x0000000000000000        0x0 build/ux_device_descriptors.o
 .bss           0x0000000000000000        0x0 build/ux_device_descriptors.o
 .text          0x0000000000000000        0x0 build/usb_device.o
 .data          0x0000000000000000        0x0 build/usb_device.o
 .bss           0x0000000000000000        0x0 build/usb_device.o
 .text          0x0000000000000000       0x14 build/startup_stm32u535xx.o
 .data          0x0000000000000000        0x0 build/startup_stm32u535xx.o
 .bss           0x0000000000000000        0x0 build/startup_stm32u535xx.o
 .text          0x0000000000000000        0xc /usr/lib/gcc/arm-none-eabi/10.3.1/../../../arm-none-eabi/lib/thumb/v8-m.main+fp/hard/libc_nano.a(lib_a-atexit.o)
 .data          0x0000000000000000        0x0 /usr/lib/gcc/arm-none-eabi/10.3.1/../../../arm-none-eabi/lib/thumb/v8-m.main+fp/hard/libc_nano.a(lib_a-atexit.o)
 .bss           0x0000000000000000        0x0 /usr/lib/gcc/arm-none-eabi/10.3.1/../../../arm-none-eabi/lib/thumb/v8-m.main+fp/hard/libc_nano.a(lib_a-atexit.o)
 .debug_info    0x0000000000000000      0x100 /usr/lib/gcc/arm-none-eabi/10.3.1/../../../arm-none-eabi/lib/thumb/v8-m.main+fp/hard/libc_nano.a(lib_a-atexit.o)
 .debug_abbrev  0x0000000000000000       0xb7 /usr/lib/gcc/arm-none-eabi/10.3.1/../../../arm-none-eabi/lib/thumb/v8-m.main+fp/hard/libc_nano.a(lib_a-atexit.o)
 .debug_loc     0x0000000000000000       0x32 /usr/lib/gcc/arm-none-eabi/10.3.1/../../../arm-none-eabi/lib/thumb/v8-m.main+fp/hard/libc_nano.a(lib_a-atexit.o)
 .debug_aranges
                0x0000000000000000       0x20 /usr/lib/gcc/arm-none-eabi/10.3.1/../../../arm-none-eabi/lib/thumb/v8-m.main+fp/hard/libc_nano.a(lib_a-atexit.o)
 .debug_line    0x0000000000000000       0xc0 /usr/lib/gcc/arm-none-eabi/10.3.1/../../../arm-none-eabi/lib/thumb/v8-m.main+fp/hard/libc_nano.a(lib_a-atexit.o)
 .debug_str     0x0000000000000000      0x1f1 /usr/lib/gcc/arm-none-eabi/10.3.1/../../../arm-none-eabi/lib/thumb/v8-m.main+fp/hard/libc_nano.a(lib_a-atexit.o)
 .comment       0x0000000000000000       0x34 /usr/lib/gcc/arm-none-eabi/10.3.1/../../../arm-none-eabi/lib/thumb/v8-m.main+fp/hard/libc_nano.a(lib_a-atexit.o)
 .debug_frame   0x0000000000000000       0x20 /usr/lib/gcc/arm-none-eabi/10.3.1/../../../arm-none-eabi/lib/thumb/v8-m.main+fp/hard/libc_nano.a(lib_a-atexit.o)
 .ARM.attributes
                0x0000000000000000       0x38 /usr/lib/gcc/arm-none-eabi/10.3.1/../../../arm-none-eabi/lib/thumb/v8-m.main+fp/hard/libc_nano.a(lib_a-atexit.o)
 .text          0x0000000000000000       0x28 /usr/lib/gcc/arm-none-eabi/10.3.1/../../../arm-none-eabi/lib/thumb/v8-m.main+fp/hard/libc_nano.a(lib_a-exit.o)
 .data          0x0000000000000000        0x0 /usr/lib/gcc/arm-none-eabi/10.3.1/../../../arm-none-eabi/lib/thumb/v8-m.main+fp/hard/libc_nano.a(lib_a-exit.o)
 .bss           0x0000000000000000        0x0 /usr/lib/gcc/arm-none-eabi/10.3.1/../../../arm-none-eabi/lib/thumb/v8-m.main+fp/hard/libc_nano.a(lib_a-exit.o)
 .debug_info    0x0000000000000000      0x81a /usr/lib/gcc/arm-none-eabi/10.3.1/../../../arm-none-eabi/lib/thumb/v8-m.main+fp/hard/libc_nano.a(lib_a-exit.o)
 .debug_abbrev  0x0000000000000000      0x1ba /usr/lib/gcc/arm-none-eabi/10.3.1/../../../arm-none-eabi/lib/thumb/v8-m.main+fp/hard/libc_nano.a(lib_a-exit.o)
 .debug_loc     0x0000000000000000       0x22 /usr/lib/gcc/arm-none-eabi/10.3.1/../../../arm-none-eabi/lib/thumb/v8-m.main+fp/hard/libc_nano.a(lib_a-exit.o)
 .debug_aranges
                0x0000000000000000       0x20 /usr/lib/gcc/arm-none-eabi/10.3.1/../../../arm-none-eabi/lib/thumb/v8-m.main+fp/hard/libc_nano.a(lib_a-exit.o)
 .debug_line    0x0000000000000000      0x16d /usr/lib/gcc/arm-none-eabi/10.3.1/../../../arm-none-eabi/lib/thumb/v8-m.main+fp/hard/libc_nano.a(lib_a-exit.o)
 .debug_str     0x0000000000000000      0x530 /usr/lib/gcc/arm-none-eabi/10.3.1/../../../arm-none-eabi/lib/thumb/v8-m.main+fp/hard/libc_nano.a(lib_a-exit.o)
 .comment       0x0000000000000000       0x34 /usr/lib/gcc/arm-none-eabi/10.3.1/../../../arm-none-eabi/lib/thumb/v8-m.main+fp/hard/libc_nano.a(lib_a-exit.o)
 .debug_frame   0x0000000000000000       0x28 /usr/lib/gcc/arm-none-eabi/10.3.1/../../../arm-none-eabi/lib/thumb/v8-m.main+fp/hard/libc_nano.a(lib_a-exit.o)
 .ARM.attributes
                0x0000000000000000       0x38 /usr/lib/gcc/arm-none-eabi/10.3.1/../../../arm-none-eabi/lib/thumb/v8-m.main+fp/hard/libc_nano.a(lib_a-exit.o)
 .data          0x0000000000000000        0x0 /usr/lib/gcc/arm-none-eabi/10.3.1/../../../arm-none-eabi/lib/thumb/v8-m.main+fp/hard/libc_nano.a(lib_a-fflush.o)
 .bss           0x0000000000000000        0x0 /usr/lib/gcc/arm-none-eabi/10.3.1/../../../arm-none-eabi/lib/thumb/v8-m.main+fp/hard/libc_nano.a(lib_a-fflush.o)
 .data          0x0000000000000000        0x0 /usr/lib/gcc/arm-none-eabi/10.3.1/../../../arm-none-eabi/lib/thumb/v8-m.main+fp/hard/libc_nano.a(lib_a-findfp.o)
 .bss           0x0000000000000000        0x0 /usr/lib/gcc/arm-none-eabi/10.3.1/../../../arm-none-eabi/lib/thumb/v8-m.main+fp/hard/libc_nano.a(lib_a-findfp.o)
 .text          0x0000000000000000       0x2c /usr/lib/gcc/arm-none-eabi/10.3.1/../../../arm-none-eabi/lib/thumb/v8-m.main+fp/hard/libc_nano.a(lib_a-fini.o)
 .data          0x0000000000000000        0x0 /usr/lib/gcc/arm-none-eabi/10.3.1/../../../arm-none-eabi/lib/thumb/v8-m.main+fp/hard/libc_nano.a(lib_a-fini.o)
 .bss           0x0000000000000000        0x0 /usr/lib/gcc/arm-none-eabi/10.3.1/../../../arm-none-eabi/lib/thumb/v8-m.main+fp/hard/libc_nano.a(lib_a-fini.o)
 .debug_info    0x0000000000000000      0x102 /usr/lib/gcc/arm-none-eabi/10.3.1/../../../arm-none-eabi/lib/thumb/v8-m.main+fp/hard/libc_nano.a(lib_a-fini.o)
 .debug_abbrev  0x0000000000000000       0xcf /usr/lib/gcc/arm-none-eabi/10.3.1/../../../arm-none-eabi/lib/thumb/v8-m.main+fp/hard/libc_nano.a(lib_a-fini.o)
 .debug_loc     0x0000000000000000       0x68 /usr/lib/gcc/arm-none-eabi/10.3.1/../../../arm-none-eabi/lib/thumb/v8-m.main+fp/hard/libc_nano.a(lib_a-fini.o)
 .debug_aranges
                0x0000000000000000       0x20 /usr/lib/gcc/arm-none-eabi/10.3.1/../../../arm-none-eabi/lib/thumb/v8-m.main+fp/hard/libc_nano.a(lib_a-fini.o)
 .debug_line    0x0000000000000000       0xed /usr/lib/gcc/arm-none-eabi/10.3.1/../../../arm-none-eabi/lib/thumb/v8-m.main+fp/hard/libc_nano.a(lib_a-fini.o)
 .debug_str     0x0000000000000000      0x1e9 /usr/lib/gcc/arm-none-eabi/10.3.1/../../../arm-none-eabi/lib/thumb/v8-m.main+fp/hard/libc_nano.a(lib_a-fini.o)
 .comment       0x0000000000000000       0x34 /usr/lib/gcc/arm-none-eabi/10.3.1/../../../arm-none-eabi/lib/thumb/v8-m.main+fp/hard/libc_nano.a(lib_a-fini.o)
 .debug_frame   0x0000000000000000       0x34 /usr/lib/gcc/arm-none-eabi/10.3.1/../../../arm-none-eabi/lib/thumb/v8-m.main+fp/hard/libc_nano.a(lib_a-fini.o)
 .ARM.attributes
                0x0000000000000000       0x38 /usr/lib/gcc/arm-none-eabi/10.3.1/../../../arm-none-eabi/lib/thumb/v8-m.main+fp/hard/libc_nano.a(lib_a-fini.o)
 .data          0x0000000000000000        0x0 /usr/lib/gcc/arm-none-eabi/10.3.1/../../../arm-none-eabi/lib/thumb/v8-m.main+fp/hard/libc_nano.a(lib_a-fwalk.o)
 .bss           0x0000000000000000        0x0 /usr/lib/gcc/arm-none-eabi/10.3.1/../../../arm-none-eabi/lib/thumb/v8-m.main+fp/hard/libc_nano.a(lib_a-fwalk.o)
 .text          0x0000000000000000        0x0 /usr/lib/gcc/arm-none-eabi/10.3.1/../../../arm-none-eabi/lib/thumb/v8-m.main+fp/hard/libc_nano.a(lib_a-impure.o)
 .bss           0x0000000000000000        0x0 /usr/lib/gcc/arm-none-eabi/10.3.1/../../../arm-none-eabi/lib/thumb/v8-m.main+fp/hard/libc_nano.a(lib_a-impure.o)
 .data          0x0000000000000000        0x0 /usr/lib/gcc/arm-none-eabi/10.3.1/../../../arm-none-eabi/lib/thumb/v8-m.main+fp/hard/libc_nano.a(lib_a-init.o)
 .bss           0x0000000000000000        0x0 /usr/lib/gcc/arm-none-eabi/10.3.1/../../../arm-none-eabi/lib/thumb/v8-m.main+fp/hard/libc_nano.a(lib_a-init.o)
 .data          0x0000000000000000        0x0 /usr/lib/gcc/arm-none-eabi/10.3.1/../../../arm-none-eabi/lib/thumb/v8-m.main+fp/hard/libc_nano.a(lib_a-memmove.o)
 .bss           0x0000000000000000        0x0 /usr/lib/gcc/arm-none-eabi/10.3.1/../../../arm-none-eabi/lib/thumb/v8-m.main+fp/hard/libc_nano.a(lib_a-memmove.o)
 .data          0x0000000000000000        0x0 /usr/lib/gcc/arm-none-eabi/10.3.1/../../../arm-none-eabi/lib/thumb/v8-m.main+fp/hard/libc_nano.a(lib_a-memset.o)
 .bss           0x0000000000000000        0x0 /usr/lib/gcc/arm-none-eabi/10.3.1/../../../arm-none-eabi/lib/thumb/v8-m.main+fp/hard/libc_nano.a(lib_a-memset.o)
 .data          0x0000000000000000        0x0 /usr/lib/gcc/arm-none-eabi/10.3.1/../../../arm-none-eabi/lib/thumb/v8-m.main+fp/hard/libc_nano.a(lib_a-nano-freer.o)
 .bss           0x0000000000000000        0x0 /usr/lib/gcc/arm-none-eabi/10.3.1/../../../arm-none-eabi/lib/thumb/v8-m.main+fp/hard/libc_nano.a(lib_a-nano-freer.o)
 .data          0x0000000000000000        0x0 /usr/lib/gcc/arm-none-eabi/10.3.1/../../../arm-none-eabi/lib/thumb/v8-m.main+fp/hard/libc_nano.a(lib_a-nano-mallocr.o)
 .data          0x0000000000000000        0x0 /usr/lib/gcc/arm-none-eabi/10.3.1/../../../arm-none-eabi/lib/thumb/v8-m.main+fp/hard/libc_nano.a(lib_a-printf.o)
 .bss           0x0000000000000000        0x0 /usr/lib/gcc/arm-none-eabi/10.3.1/../../../arm-none-eabi/lib/thumb/v8-m.main+fp/hard/libc_nano.a(lib_a-printf.o)
 .data          0x0000000000000000        0x0 /usr/lib/gcc/arm-none-eabi/10.3.1/../../../arm-none-eabi/lib/thumb/v8-m.main+fp/hard/libc_nano.a(lib_a-puts.o)
 .bss           0x0000000000000000        0x0 /usr/lib/gcc/arm-none-eabi/10.3.1/../../../arm-none-eabi/lib/thumb/v8-m.main+fp/hard/libc_nano.a(lib_a-puts.o)
 .data          0x0000000000000000        0x0 /usr/lib/gcc/arm-none-eabi/10.3.1/../../../arm-none-eabi/lib/thumb/v8-m.main+fp/hard/libc_nano.a(lib_a-sbrkr.o)
 .bss           0x0000000000000000        0x0 /usr/lib/gcc/arm-none-eabi/10.3.1/../../../arm-none-eabi/lib/thumb/v8-m.main+fp/hard/libc_nano.a(lib_a-sbrkr.o)
 .data          0x0000000000000000        0x0 /usr/lib/gcc/arm-none-eabi/10.3.1/../../../arm-none-eabi/lib/thumb/v8-m.main+fp/hard/libc_nano.a(lib_a-snprintf.o)
 .bss           0x0000000000000000        0x0 /usr/lib/gcc/arm-none-eabi/10.3.1/../../../arm-none-eabi/lib/thumb/v8-m.main+fp/hard/libc_nano.a(lib_a-snprintf.o)
 .data          0x0000000000000000        0x0 /usr/lib/gcc/arm-none-eabi/10.3.1/../../../arm-none-eabi/lib/thumb/v8-m.main+fp/hard/libc_nano.a(lib_a-stdio.o)
 .bss           0x0000000000000000        0x0 /usr/lib/gcc/arm-none-eabi/10.3.1/../../../arm-none-eabi/lib/thumb/v8-m.main+fp/hard/libc_nano.a(lib_a-stdio.o)
 .data          0x0000000000000000        0x0 /usr/lib/gcc/arm-none-eabi/10.3.1/../../../arm-none-eabi/lib/thumb/v8-m.main+fp/hard/libc_nano.a(lib_a-strlen-stub.o)
 .bss           0x0000000000000000        0x0 /usr/lib/gcc/arm-none-eabi/10.3.1/../../../arm-none-eabi/lib/thumb/v8-m.main+fp/hard/libc_nano.a(lib_a-strlen-stub.o)
 .data          0x0000000000000000        0x0 /usr/lib/gcc/arm-none-eabi/10.3.1/../../../arm-none-eabi/lib/thumb/v8-m.main+fp/hard/libc_nano.a(lib_a-wbuf.o)
 .bss           0x0000000000000000        0x0 /usr/lib/gcc/arm-none-eabi/10.3.1/../../../arm-none-eabi/lib/thumb/v8-m.main+fp/hard/libc_nano.a(lib_a-wbuf.o)
 .data          0x0000000000000000        0x0 /usr/lib/gcc/arm-none-eabi/10.3.1/../../../arm-none-eabi/lib/thumb/v8-m.main+fp/hard/libc_nano.a(lib_a-writer.o)
 .bss           0x0000000000000000        0x0 /usr/lib/gcc/arm-none-eabi/10.3.1/../../../arm-none-eabi/lib/thumb/v8-m.main+fp/hard/libc_nano.a(lib_a-writer.o)
 .data          0x0000000000000000        0x0 /usr/lib/gcc/arm-none-eabi/10.3.1/../../../arm-none-eabi/lib/thumb/v8-m.main+fp/hard/libc_nano.a(lib_a-wsetup.o)
 .bss           0x0000000000000000        0x0 /usr/lib/gcc/arm-none-eabi/10.3.1/../../../arm-none-eabi/lib/thumb/v8-m.main+fp/hard/libc_nano.a(lib_a-wsetup.o)
 .text          0x0000000000000000       0xac /usr/lib/gcc/arm-none-eabi/10.3.1/../../../arm-none-eabi/lib/thumb/v8-m.main+fp/hard/libc_nano.a(lib_a-__atexit.o)
 .data          0x0000000000000000        0x4 /usr/lib/gcc/arm-none-eabi/10.3.1/../../../arm-none-eabi/lib/thumb/v8-m.main+fp/hard/libc_nano.a(lib_a-__atexit.o)
 .bss           0x0000000000000000       0x8c /usr/lib/gcc/arm-none-eabi/10.3.1/../../../arm-none-eabi/lib/thumb/v8-m.main+fp/hard/libc_nano.a(lib_a-__atexit.o)
 .debug_info    0x0000000000000000      0x269 /usr/lib/gcc/arm-none-eabi/10.3.1/../../../arm-none-eabi/lib/thumb/v8-m.main+fp/hard/libc_nano.a(lib_a-__atexit.o)
 .debug_abbrev  0x0000000000000000      0x1bd /usr/lib/gcc/arm-none-eabi/10.3.1/../../../arm-none-eabi/lib/thumb/v8-m.main+fp/hard/libc_nano.a(lib_a-__atexit.o)
 .debug_loc     0x0000000000000000      0x1f5 /usr/lib/gcc/arm-none-eabi/10.3.1/../../../arm-none-eabi/lib/thumb/v8-m.main+fp/hard/libc_nano.a(lib_a-__atexit.o)
 .debug_aranges
                0x0000000000000000       0x20 /usr/lib/gcc/arm-none-eabi/10.3.1/../../../arm-none-eabi/lib/thumb/v8-m.main+fp/hard/libc_nano.a(lib_a-__atexit.o)
 .debug_line    0x0000000000000000      0x1f8 /usr/lib/gcc/arm-none-eabi/10.3.1/../../../arm-none-eabi/lib/thumb/v8-m.main+fp/hard/libc_nano.a(lib_a-__atexit.o)
 .debug_str     0x0000000000000000      0x29f /usr/lib/gcc/arm-none-eabi/10.3.1/../../../arm-none-eabi/lib/thumb/v8-m.main+fp/hard/libc_nano.a(lib_a-__atexit.o)
 .comment       0x0000000000000000       0x34 /usr/lib/gcc/arm-none-eabi/10.3.1/../../../arm-none-eabi/lib/thumb/v8-m.main+fp/hard/libc_nano.a(lib_a-__atexit.o)
 .debug_frame   0x0000000000000000       0x38 /usr/lib/gcc/arm-none-eabi/10.3.1/../../../arm-none-eabi/lib/thumb/v8-m.main+fp/hard/libc_nano.a(lib_a-__atexit.o)
 .ARM.attributes
                0x0000000000000000       0x38 /usr/lib/gcc/arm-none-eabi/10.3.1/../../../arm-none-eabi/lib/thumb/v8-m.main+fp/hard/libc_nano.a(lib_a-__atexit.o)
 .text          0x0000000000000000       0xc4 /usr/lib/gcc/arm-none-eabi/10.3.1/../../../arm-none-eabi/lib/thumb/v8-m.main+fp/hard/libc_nano.a(lib_a-__call_atexit.o)
 .data          0x0000000000000000        0x0 /usr/lib/gcc/arm-none-eabi/10.3.1/../../../arm-none-eabi/lib/thumb/v8-m.main+fp/hard/libc_nano.a(lib_a-__call_atexit.o)
 .bss           0x0000000000000000        0x4 /usr/lib/gcc/arm-none-eabi/10.3.1/../../../arm-none-eabi/lib/thumb/v8-m.main+fp/hard/libc_nano.a(lib_a-__call_atexit.o)
 .debug_info    0x0000000000000000      0x249 /usr/lib/gcc/arm-none-eabi/10.3.1/../../../arm-none-eabi/lib/thumb/v8-m.main+fp/hard/libc_nano.a(lib_a-__call_atexit.o)
 .debug_abbrev  0x0000000000000000      0x179 /usr/lib/gcc/arm-none-eabi/10.3.1/../../../arm-none-eabi/lib/thumb/v8-m.main+fp/hard/libc_nano.a(lib_a-__call_atexit.o)
 .debug_loc     0x0000000000000000      0x1a8 /usr/lib/gcc/arm-none-eabi/10.3.1/../../../arm-none-eabi/lib/thumb/v8-m.main+fp/hard/libc_nano.a(lib_a-__call_atexit.o)
 .debug_aranges
                0x0000000000000000       0x20 /usr/lib/gcc/arm-none-eabi/10.3.1/../../../arm-none-eabi/lib/thumb/v8-m.main+fp/hard/libc_nano.a(lib_a-__call_atexit.o)
 .debug_ranges  0x0000000000000000       0x30 /usr/lib/gcc/arm-none-eabi/10.3.1/../../../arm-none-eabi/lib/thumb/v8-m.main+fp/hard/libc_nano.a(lib_a-__call_atexit.o)
 .debug_line    0x0000000000000000      0x1f7 /usr/lib/gcc/arm-none-eabi/10.3.1/../../../arm-none-eabi/lib/thumb/v8-m.main+fp/hard/libc_nano.a(lib_a-__call_atexit.o)
 .debug_str     0x0000000000000000      0x263 /usr/lib/gcc/arm-none-eabi/10.3.1/../../../arm-none-eabi/lib/thumb/v8-m.main+fp/hard/libc_nano.a(lib_a-__call_atexit.o)
 .comment       0x0000000000000000       0x34 /usr/lib/gcc/arm-none-eabi/10.3.1/../../../arm-none-eabi/lib/thumb/v8-m.main+fp/hard/libc_nano.a(lib_a-__call_atexit.o)
 .debug_frame   0x0000000000000000       0x4c /usr/lib/gcc/arm-none-eabi/10.3.1/../../../arm-none-eabi/lib/thumb/v8-m.main+fp/hard/libc_nano.a(lib_a-__call_atexit.o)
 .ARM.attributes
                0x0000000000000000       0x38 /usr/lib/gcc/arm-none-eabi/10.3.1/../../../arm-none-eabi/lib/thumb/v8-m.main+fp/hard/libc_nano.a(lib_a-__call_atexit.o)
 .data          0x0000000000000000        0x0 /usr/lib/gcc/arm-none-eabi/10.3.1/../../../arm-none-eabi/lib/thumb/v8-m.main+fp/hard/libc_nano.a(lib_a-closer.o)
 .bss           0x0000000000000000        0x0 /usr/lib/gcc/arm-none-eabi/10.3.1/../../../arm-none-eabi/lib/thumb/v8-m.main+fp/hard/libc_nano.a(lib_a-closer.o)
 .data          0x0000000000000000        0x0 /usr/lib/gcc/arm-none-eabi/10.3.1/../../../arm-none-eabi/lib/thumb/v8-m.main+fp/hard/libc_nano.a(lib_a-lseekr.o)
 .bss           0x0000000000000000        0x0 /usr/lib/gcc/arm-none-eabi/10.3.1/../../../arm-none-eabi/lib/thumb/v8-m.main+fp/hard/libc_nano.a(lib_a-lseekr.o)
 .data          0x0000000000000000        0x0 /usr/lib/gcc/arm-none-eabi/10.3.1/../../../arm-none-eabi/lib/thumb/v8-m.main+fp/hard/libc_nano.a(lib_a-makebuf.o)
 .bss           0x0000000000000000        0x0 /usr/lib/gcc/arm-none-eabi/10.3.1/../../../arm-none-eabi/lib/thumb/v8-m.main+fp/hard/libc_nano.a(lib_a-makebuf.o)
 .data          0x0000000000000000        0x0 /usr/lib/gcc/arm-none-eabi/10.3.1/../../../arm-none-eabi/lib/thumb/v8-m.main+fp/hard/libc_nano.a(lib_a-mlock.o)
 .bss           0x0000000000000000        0x0 /usr/lib/gcc/arm-none-eabi/10.3.1/../../../arm-none-eabi/lib/thumb/v8-m.main+fp/hard/libc_nano.a(lib_a-mlock.o)
 .data          0x0000000000000000        0x0 /usr/lib/gcc/arm-none-eabi/10.3.1/../../../arm-none-eabi/lib/thumb/v8-m.main+fp/hard/libc_nano.a(lib_a-nano-svfprintf.o)
 .bss           0x0000000000000000        0x0 /usr/lib/gcc/arm-none-eabi/10.3.1/../../../arm-none-eabi/lib/thumb/v8-m.main+fp/hard/libc_nano.a(lib_a-nano-svfprintf.o)
 .data          0x0000000000000000        0x0 /usr/lib/gcc/arm-none-eabi/10.3.1/../../../arm-none-eabi/lib/thumb/v8-m.main+fp/hard/libc_nano.a(lib_a-nano-vfprintf.o)
 .bss           0x0000000000000000        0x0 /usr/lib/gcc/arm-none-eabi/10.3.1/../../../arm-none-eabi/lib/thumb/v8-m.main+fp/hard/libc_nano.a(lib_a-nano-vfprintf.o)
 .data          0x0000000000000000        0x0 /usr/lib/gcc/arm-none-eabi/10.3.1/../../../arm-none-eabi/lib/thumb/v8-m.main+fp/hard/libc_nano.a(lib_a-nano-vfprintf_i.o)
 .bss           0x0000000000000000        0x0 /usr/lib/gcc/arm-none-eabi/10.3.1/../../../arm-none-eabi/lib/thumb/v8-m.main+fp/hard/libc_nano.a(lib_a-nano-vfprintf_i.o)
 .data          0x0000000000000000        0x0 /usr/lib/gcc/arm-none-eabi/10.3.1/../../../arm-none-eabi/lib/thumb/v8-m.main+fp/hard/libc_nano.a(lib_a-readr.o)
 .bss           0x0000000000000000        0x0 /usr/lib/gcc/arm-none-eabi/10.3.1/../../../arm-none-eabi/lib/thumb/v8-m.main+fp/hard/libc_nano.a(lib_a-readr.o)
 .text          0x0000000000000000      0x114 /usr/lib/gcc/arm-none-eabi/10.3.1/../../../arm-none-eabi/lib/thumb/v8-m.main+fp/hard/libc_nano.a(lib_a-reent.o)
 .data          0x0000000000000000        0x0 /usr/lib/gcc/arm-none-eabi/10.3.1/../../../arm-none-eabi/lib/thumb/v8-m.main+fp/hard/libc_nano.a(lib_a-reent.o)
 .data          0x0000000000000000        0x0 /usr/lib/gcc/arm-none-eabi/10.3.1/../../../arm-none-eabi/lib/thumb/v8-m.main+fp/hard/libc_nano.a(lib_a-fstatr.o)
 .bss           0x0000000000000000        0x0 /usr/lib/gcc/arm-none-eabi/10.3.1/../../../arm-none-eabi/lib/thumb/v8-m.main+fp/hard/libc_nano.a(lib_a-fstatr.o)
 .data          0x0000000000000000        0x0 /usr/lib/gcc/arm-none-eabi/10.3.1/../../../arm-none-eabi/lib/thumb/v8-m.main+fp/hard/libc_nano.a(lib_a-fvwrite.o)
 .bss           0x0000000000000000        0x0 /usr/lib/gcc/arm-none-eabi/10.3.1/../../../arm-none-eabi/lib/thumb/v8-m.main+fp/hard/libc_nano.a(lib_a-fvwrite.o)
 .data          0x0000000000000000        0x0 /usr/lib/gcc/arm-none-eabi/10.3.1/../../../arm-none-eabi/lib/thumb/v8-m.main+fp/hard/libc_nano.a(lib_a-isattyr.o)
 .bss           0x0000000000000000        0x0 /usr/lib/gcc/arm-none-eabi/10.3.1/../../../arm-none-eabi/lib/thumb/v8-m.main+fp/hard/libc_nano.a(lib_a-isattyr.o)
 .data          0x0000000000000000        0x0 /usr/lib/gcc/arm-none-eabi/10.3.1/../../../arm-none-eabi/lib/thumb/v8-m.main+fp/hard/libc_nano.a(lib_a-memchr-stub.o)
 .bss           0x0000000000000000        0x0 /usr/lib/gcc/arm-none-eabi/10.3.1/../../../arm-none-eabi/lib/thumb/v8-m.main+fp/hard/libc_nano.a(lib_a-memchr-stub.o)
 .data          0x0000000000000000        0x0 /usr/lib/gcc/arm-none-eabi/10.3.1/../../../arm-none-eabi/lib/thumb/v8-m.main+fp/hard/libc_nano.a(lib_a-memcpy.o)
 .bss           0x0000000000000000        0x0 /usr/lib/gcc/arm-none-eabi/10.3.1/../../../arm-none-eabi/lib/thumb/v8-m.main+fp/hard/libc_nano.a(lib_a-memcpy.o)
 .data          0x0000000000000000        0x0 /usr/lib/gcc/arm-none-eabi/10.3.1/../../../arm-none-eabi/lib/thumb/v8-m.main+fp/hard/libc_nano.a(lib_a-nano-reallocr.o)
 .bss           0x0000000000000000        0x0 /usr/lib/gcc/arm-none-eabi/10.3.1/../../../arm-none-eabi/lib/thumb/v8-m.main+fp/hard/libc_nano.a(lib_a-nano-reallocr.o)
 .data          0x0000000000000000        0x0 /usr/lib/gcc/arm-none-eabi/10.3.1/../../../arm-none-eabi/lib/thumb/v8-m.main+fp/hard/libc_nano.a(lib_a-nano-msizer.o)
 .bss           0x0000000000000000        0x0 /usr/lib/gcc/arm-none-eabi/10.3.1/../../../arm-none-eabi/lib/thumb/v8-m.main+fp/hard/libc_nano.a(lib_a-nano-msizer.o)
 .data          0x0000000000000000        0x0 /usr/lib/gcc/arm-none-eabi/10.3.1/../../../arm-none-eabi/lib/thumb/v8-m.main+fp/hard/libnosys.a(close.o)
 .bss           0x0000000000000000        0x0 /usr/lib/gcc/arm-none-eabi/10.3.1/../../../arm-none-eabi/lib/thumb/v8-m.main+fp/hard/libnosys.a(close.o)
 .data          0x0000000000000000        0x0 /usr/lib/gcc/arm-none-eabi/10.3.1/../../../arm-none-eabi/lib/thumb/v8-m.main+fp/hard/libnosys.a(fstat.o)
 .bss           0x0000000000000000        0x0 /usr/lib/gcc/arm-none-eabi/10.3.1/../../../arm-none-eabi/lib/thumb/v8-m.main+fp/hard/libnosys.a(fstat.o)
 .data          0x0000000000000000        0x0 /usr/lib/gcc/arm-none-eabi/10.3.1/../../../arm-none-eabi/lib/thumb/v8-m.main+fp/hard/libnosys.a(isatty.o)
 .bss           0x0000000000000000        0x0 /usr/lib/gcc/arm-none-eabi/10.3.1/../../../arm-none-eabi/lib/thumb/v8-m.main+fp/hard/libnosys.a(isatty.o)
 .data          0x0000000000000000        0x0 /usr/lib/gcc/arm-none-eabi/10.3.1/../../../arm-none-eabi/lib/thumb/v8-m.main+fp/hard/libnosys.a(lseek.o)
 .bss           0x0000000000000000        0x0 /usr/lib/gcc/arm-none-eabi/10.3.1/../../../arm-none-eabi/lib/thumb/v8-m.main+fp/hard/libnosys.a(lseek.o)
 .data          0x0000000000000000        0x0 /usr/lib/gcc/arm-none-eabi/10.3.1/../../../arm-none-eabi/lib/thumb/v8-m.main+fp/hard/libnosys.a(sbrk.o)
 .text          0x0000000000000000        0x4 /usr/lib/gcc/arm-none-eabi/10.3.1/../../../arm-none-eabi/lib/thumb/v8-m.main+fp/hard/libnosys.a(_exit.o)
 .data          0x0000000000000000        0x0 /usr/lib/gcc/arm-none-eabi/10.3.1/../../../arm-none-eabi/lib/thumb/v8-m.main+fp/hard/libnosys.a(_exit.o)
 .bss           0x0000000000000000        0x0 /usr/lib/gcc/arm-none-eabi/10.3.1/../../../arm-none-eabi/lib/thumb/v8-m.main+fp/hard/libnosys.a(_exit.o)
 .debug_info    0x0000000000000000       0xa3 /usr/lib/gcc/arm-none-eabi/10.3.1/../../../arm-none-eabi/lib/thumb/v8-m.main+fp/hard/libnosys.a(_exit.o)
 .debug_abbrev  0x0000000000000000       0x6a /usr/lib/gcc/arm-none-eabi/10.3.1/../../../arm-none-eabi/lib/thumb/v8-m.main+fp/hard/libnosys.a(_exit.o)
 .debug_loc     0x0000000000000000       0x15 /usr/lib/gcc/arm-none-eabi/10.3.1/../../../arm-none-eabi/lib/thumb/v8-m.main+fp/hard/libnosys.a(_exit.o)
 .debug_aranges
                0x0000000000000000       0x20 /usr/lib/gcc/arm-none-eabi/10.3.1/../../../arm-none-eabi/lib/thumb/v8-m.main+fp/hard/libnosys.a(_exit.o)
 .debug_line    0x0000000000000000       0x75 /usr/lib/gcc/arm-none-eabi/10.3.1/../../../arm-none-eabi/lib/thumb/v8-m.main+fp/hard/libnosys.a(_exit.o)
 .debug_str     0x0000000000000000      0x189 /usr/lib/gcc/arm-none-eabi/10.3.1/../../../arm-none-eabi/lib/thumb/v8-m.main+fp/hard/libnosys.a(_exit.o)
 .comment       0x0000000000000000       0x34 /usr/lib/gcc/arm-none-eabi/10.3.1/../../../arm-none-eabi/lib/thumb/v8-m.main+fp/hard/libnosys.a(_exit.o)
 .debug_frame   0x0000000000000000       0x20 /usr/lib/gcc/arm-none-eabi/10.3.1/../../../arm-none-eabi/lib/thumb/v8-m.main+fp/hard/libnosys.a(_exit.o)
 .ARM.attributes
                0x0000000000000000       0x38 /usr/lib/gcc/arm-none-eabi/10.3.1/../../../arm-none-eabi/lib/thumb/v8-m.main+fp/hard/libnosys.a(_exit.o)
 .text          0x0000000000000000       0xa0 /usr/lib/gcc/arm-none-eabi/10.3.1/thumb/v8-m.main+fp/hard/libgcc.a(_aeabi_ldivmod.o)
 .data          0x0000000000000000        0x0 /usr/lib/gcc/arm-none-eabi/10.3.1/thumb/v8-m.main+fp/hard/libgcc.a(_aeabi_ldivmod.o)
 .bss           0x0000000000000000        0x0 /usr/lib/gcc/arm-none-eabi/10.3.1/thumb/v8-m.main+fp/hard/libgcc.a(_aeabi_ldivmod.o)
 .debug_line    0x0000000000000000       0x7e /usr/lib/gcc/arm-none-eabi/10.3.1/thumb/v8-m.main+fp/hard/libgcc.a(_aeabi_ldivmod.o)
 .debug_info    0x0000000000000000       0x26 /usr/lib/gcc/arm-none-eabi/10.3.1/thumb/v8-m.main+fp/hard/libgcc.a(_aeabi_ldivmod.o)
 .debug_abbrev  0x0000000000000000       0x14 /usr/lib/gcc/arm-none-eabi/10.3.1/thumb/v8-m.main+fp/hard/libgcc.a(_aeabi_ldivmod.o)
 .debug_aranges
                0x0000000000000000       0x20 /usr/lib/gcc/arm-none-eabi/10.3.1/thumb/v8-m.main+fp/hard/libgcc.a(_aeabi_ldivmod.o)
 .debug_str     0x0000000000000000       0xaa /usr/lib/gcc/arm-none-eabi/10.3.1/thumb/v8-m.main+fp/hard/libgcc.a(_aeabi_ldivmod.o)
 .debug_frame   0x0000000000000000       0x44 /usr/lib/gcc/arm-none-eabi/10.3.1/thumb/v8-m.main+fp/hard/libgcc.a(_aeabi_ldivmod.o)
 .ARM.attributes
                0x0000000000000000       0x22 /usr/lib/gcc/arm-none-eabi/10.3.1/thumb/v8-m.main+fp/hard/libgcc.a(_aeabi_ldivmod.o)
 .text          0x0000000000000000       0x30 /usr/lib/gcc/arm-none-eabi/10.3.1/thumb/v8-m.main+fp/hard/libgcc.a(_aeabi_uldivmod.o)
 .data          0x0000000000000000        0x0 /usr/lib/gcc/arm-none-eabi/10.3.1/thumb/v8-m.main+fp/hard/libgcc.a(_aeabi_uldivmod.o)
 .bss           0x0000000000000000        0x0 /usr/lib/gcc/arm-none-eabi/10.3.1/thumb/v8-m.main+fp/hard/libgcc.a(_aeabi_uldivmod.o)
 .debug_line    0x0000000000000000       0x60 /usr/lib/gcc/arm-none-eabi/10.3.1/thumb/v8-m.main+fp/hard/libgcc.a(_aeabi_uldivmod.o)
 .debug_info    0x0000000000000000       0x26 /usr/lib/gcc/arm-none-eabi/10.3.1/thumb/v8-m.main+fp/hard/libgcc.a(_aeabi_uldivmod.o)
 .debug_abbrev  0x0000000000000000       0x14 /usr/lib/gcc/arm-none-eabi/10.3.1/thumb/v8-m.main+fp/hard/libgcc.a(_aeabi_uldivmod.o)
 .debug_aranges
                0x0000000000000000       0x20 /usr/lib/gcc/arm-none-eabi/10.3.1/thumb/v8-m.main+fp/hard/libgcc.a(_aeabi_uldivmod.o)
 .debug_str     0x0000000000000000       0xaa /usr/lib/gcc/arm-none-eabi/10.3.1/thumb/v8-m.main+fp/hard/libgcc.a(_aeabi_uldivmod.o)
 .debug_frame   0x0000000000000000       0x2c /usr/lib/gcc/arm-none-eabi/10.3.1/thumb/v8-m.main+fp/hard/libgcc.a(_aeabi_uldivmod.o)
 .ARM.attributes
                0x0000000000000000       0x22 /usr/lib/gcc/arm-none-eabi/10.3.1/thumb/v8-m.main+fp/hard/libgcc.a(_aeabi_uldivmod.o)
 .text          0x0000000000000000      0x2ec /usr/lib/gcc/arm-none-eabi/10.3.1/thumb/v8-m.main+fp/hard/libgcc.a(_udivmoddi4.o)
 .data          0x0000000000000000        0x0 /usr/lib/gcc/arm-none-eabi/10.3.1/thumb/v8-m.main+fp/hard/libgcc.a(_udivmoddi4.o)
 .bss           0x0000000000000000        0x0 /usr/lib/gcc/arm-none-eabi/10.3.1/thumb/v8-m.main+fp/hard/libgcc.a(_udivmoddi4.o)
 .ARM.extab     0x0000000000000000        0x0 /usr/lib/gcc/arm-none-eabi/10.3.1/thumb/v8-m.main+fp/hard/libgcc.a(_udivmoddi4.o)
 .ARM.exidx     0x0000000000000000        0x8 /usr/lib/gcc/arm-none-eabi/10.3.1/thumb/v8-m.main+fp/hard/libgcc.a(_udivmoddi4.o)
 .debug_info    0x0000000000000000      0x717 /usr/lib/gcc/arm-none-eabi/10.3.1/thumb/v8-m.main+fp/hard/libgcc.a(_udivmoddi4.o)
 .debug_abbrev  0x0000000000000000      0x163 /usr/lib/gcc/arm-none-eabi/10.3.1/thumb/v8-m.main+fp/hard/libgcc.a(_udivmoddi4.o)
 .debug_loc     0x0000000000000000      0xfe6 /usr/lib/gcc/arm-none-eabi/10.3.1/thumb/v8-m.main+fp/hard/libgcc.a(_udivmoddi4.o)
 .debug_aranges
                0x0000000000000000       0x20 /usr/lib/gcc/arm-none-eabi/10.3.1/thumb/v8-m.main+fp/hard/libgcc.a(_udivmoddi4.o)
 .debug_ranges  0x0000000000000000       0xe8 /usr/lib/gcc/arm-none-eabi/10.3.1/thumb/v8-m.main+fp/hard/libgcc.a(_udivmoddi4.o)
 .debug_line    0x0000000000000000      0x5c7 /usr/lib/gcc/arm-none-eabi/10.3.1/thumb/v8-m.main+fp/hard/libgcc.a(_udivmoddi4.o)
 .debug_str     0x0000000000000000      0x64f /usr/lib/gcc/arm-none-eabi/10.3.1/thumb/v8-m.main+fp/hard/libgcc.a(_udivmoddi4.o)
 .comment       0x0000000000000000       0x34 /usr/lib/gcc/arm-none-eabi/10.3.1/thumb/v8-m.main+fp/hard/libgcc.a(_udivmoddi4.o)
 .debug_frame   0x0000000000000000       0x38 /usr/lib/gcc/arm-none-eabi/10.3.1/thumb/v8-m.main+fp/hard/libgcc.a(_udivmoddi4.o)
 .ARM.attributes
                0x0000000000000000       0x38 /usr/lib/gcc/arm-none-eabi/10.3.1/thumb/v8-m.main+fp/hard/libgcc.a(_udivmoddi4.o)
 .text          0x0000000000000000        0x4 /usr/lib/gcc/arm-none-eabi/10.3.1/thumb/v8-m.main+fp/hard/libgcc.a(_dvmd_tls.o)
 .data          0x0000000000000000        0x0 /usr/lib/gcc/arm-none-eabi/10.3.1/thumb/v8-m.main+fp/hard/libgcc.a(_dvmd_tls.o)
 .bss           0x0000000000000000        0x0 /usr/lib/gcc/arm-none-eabi/10.3.1/thumb/v8-m.main+fp/hard/libgcc.a(_dvmd_tls.o)
 .debug_line    0x0000000000000000       0x60 /usr/lib/gcc/arm-none-eabi/10.3.1/thumb/v8-m.main+fp/hard/libgcc.a(_dvmd_tls.o)
 .debug_info    0x0000000000000000       0x26 /usr/lib/gcc/arm-none-eabi/10.3.1/thumb/v8-m.main+fp/hard/libgcc.a(_dvmd_tls.o)
 .debug_abbrev  0x0000000000000000       0x14 /usr/lib/gcc/arm-none-eabi/10.3.1/thumb/v8-m.main+fp/hard/libgcc.a(_dvmd_tls.o)
 .debug_aranges
                0x0000000000000000       0x20 /usr/lib/gcc/arm-none-eabi/10.3.1/thumb/v8-m.main+fp/hard/libgcc.a(_dvmd_tls.o)
 .debug_str     0x0000000000000000       0xae /usr/lib/gcc/arm-none-eabi/10.3.1/thumb/v8-m.main+fp/hard/libgcc.a(_dvmd_tls.o)
 .ARM.attributes
                0x0000000000000000       0x22 /usr/lib/gcc/arm-none-eabi/10.3.1/thumb/v8-m.main+fp/hard/libgcc.a(_dvmd_tls.o)
 .text          0x0000000000000000        0x0 /usr/lib/gcc/arm-none-eabi/10.3.1/thumb/v8-m.main+fp/hard/crtend.o
 .data          0x0000000000000000        0x0 /usr/lib/gcc/arm-none-eabi/10.3.1/thumb/v8-m.main+fp/hard/crtend.o
 .bss           0x0000000000000000        0x0 /usr/lib/gcc/arm-none-eabi/10.3.1/thumb/v8-m.main+fp/hard/crtend.o
 .rodata        0x0000000000000000       0x24 /usr/lib/gcc/arm-none-eabi/10.3.1/thumb/v8-m.main+fp/hard/crtend.o
 .eh_frame      0x0000000000000000        0x4 /usr/lib/gcc/arm-none-eabi/10.3.1/thumb/v8-m.main+fp/hard/crtend.o
 .text          0x0000000000000000        0x0 /usr/lib/gcc/arm-none-eabi/10.3.1/thumb/v8-m.main+fp/hard/crtn.o
 .data          0x0000000000000000        0x0 /usr/lib/gcc/arm-none-eabi/10.3.1/thumb/v8-m.main+fp/hard/crtn.o
 .bss           0x0000000000000000        0x0 /usr/lib/gcc/arm-none-eabi/10.3.1/thumb/v8-m.main+fp/hard/crtn.o

Memory Configuration

Name             Origin             Length             Attributes
RAM              0x0000000020000000 0x0000000000040000 xrw
SRAM4            0x0000000028000000 0x0000000000004000 xrw
FLASH            0x0000000008000000 0x0000000000080000 xr
*default*        0x0000000000000000 0xffffffffffffffff

Linker script and memory map

LOAD /usr/lib/gcc/arm-none-eabi/10.3.1/thumb/v8-m.main+fp/hard/crti.o
LOAD /usr/lib/gcc/arm-none-eabi/10.3.1/thumb/v8-m.main+fp/hard/crtbegin.o
LOAD /usr/lib/gcc/arm-none-eabi/10.3.1/../../../arm-none-eabi/lib/thumb/v8-m.main+fp/hard/crt0.o
LOAD build/system_stm32u5xx.o
LOAD build/stm32u5xx_ll_adc.o
LOAD build/stm32u5xx_ll_dma.o
LOAD build/stm32u5xx_ll_exti.o
LOAD build/stm32u5xx_ll_gpio.o
LOAD build/stm32u5xx_ll_pwr.o
LOAD build/stm32u5xx_ll_rcc.o
LOAD build/stm32u5xx_ll_rtc.o
LOAD build/stm32u5xx_ll_spi.o
LOAD build/stm32u5xx_ll_tim.o
LOAD build/stm32u5xx_ll_lpuart.o
LOAD build/stm32u5xx_ll_usart.o
LOAD build/stm32u5xx_ll_usb.o
LOAD build/stm32u5xx_ll_utils.o
LOAD build/stm32u5xx_hal_cortex.o
LOAD build/stm32u5xx_hal_dma.o
LOAD build/stm32u5xx_hal_dma_ex.o
LOAD build/stm32u5xx_hal_pcd.o
LOAD build/stm32u5xx_hal_pcd_ex.o
LOAD build/stm32u5xx_hal_spi.o
LOAD build/stm32u5xx_hal_spi_ex.o
LOAD build/ux_dcd_stm32_callback.o
LOAD build/ux_dcd_stm32_endpoint_create.o
LOAD build/ux_dcd_stm32_endpoint_destroy.o
LOAD build/ux_dcd_stm32_endpoint_reset.o
LOAD build/ux_dcd_stm32_endpoint_stall.o
LOAD build/ux_dcd_stm32_endpoint_status.o
LOAD build/ux_dcd_stm32_frame_number_get.o
LOAD build/ux_dcd_stm32_function.o
LOAD build/ux_dcd_stm32_initialize.o
LOAD build/ux_dcd_stm32_initialize_complete.o
LOAD build/ux_dcd_stm32_interrupt_handler.o
LOAD build/ux_dcd_stm32_transfer_run.o
LOAD build/ux_dcd_stm32_uninitialize.o
LOAD build/ux_dcd_stm32_transfer_abort.o
LOAD build/ux_system_tasks_run.o
LOAD build/ux_utility_debug_callback_register.o
LOAD build/ux_utility_debug_log.o
LOAD build/ux_utility_delay_ms.o
LOAD build/ux_utility_descriptor_pack.o
LOAD build/ux_utility_descriptor_parse.o
LOAD build/ux_utility_error_callback_register.o
LOAD build/ux_utility_long_get.o
LOAD build/ux_utility_long_get_big_endian.o
LOAD build/ux_utility_long_put.o
LOAD build/ux_utility_long_put_big_endian.o
LOAD build/ux_utility_memory_allocate.o
LOAD build/ux_utility_memory_allocate_add_safe.o
LOAD build/ux_utility_memory_allocate_mulc_safe.o
LOAD build/ux_utility_memory_allocate_mulv_safe.o
LOAD build/ux_utility_memory_compare.o
LOAD build/ux_utility_memory_copy.o
LOAD build/ux_utility_memory_free.o
LOAD build/ux_utility_memory_byte_pool_create.o
LOAD build/ux_utility_memory_byte_pool_search.o
LOAD build/ux_utility_memory_set.o
LOAD build/ux_utility_physical_address.o
LOAD build/ux_utility_set_interrupt_handler.o
LOAD build/ux_utility_short_get.o
LOAD build/ux_utility_short_get_big_endian.o
LOAD build/ux_utility_short_put.o
LOAD build/ux_utility_short_put_big_endian.o
LOAD build/ux_utility_string_length_check.o
LOAD build/ux_utility_string_length_get.o
LOAD build/ux_utility_string_to_unicode.o
LOAD build/ux_utility_unicode_to_string.o
LOAD build/ux_utility_virtual_address.o
LOAD build/ux_system_error_handler.o
LOAD build/ux_system_initialize.o
LOAD build/ux_system_uninitialize.o
LOAD build/ux_device_stack_alternate_setting_get.o
LOAD build/ux_device_stack_alternate_setting_set.o
LOAD build/ux_device_stack_class_register.o
LOAD build/ux_device_stack_class_unregister.o
LOAD build/ux_device_stack_clear_feature.o
LOAD build/ux_device_stack_configuration_get.o
LOAD build/ux_device_stack_configuration_set.o
LOAD build/ux_device_stack_control_request_process.o
LOAD build/ux_device_stack_descriptor_send.o
LOAD build/ux_device_stack_disconnect.o
LOAD build/ux_device_stack_endpoint_stall.o
LOAD build/ux_device_stack_get_status.o
LOAD build/ux_device_stack_host_wakeup.o
LOAD build/ux_device_stack_initialize.o
LOAD build/ux_device_stack_interface_delete.o
LOAD build/ux_device_stack_interface_get.o
LOAD build/ux_device_stack_interface_set.o
LOAD build/ux_device_stack_interface_start.o
LOAD build/ux_device_stack_microsoft_extension_register.o
LOAD build/ux_device_stack_set_feature.o
LOAD build/ux_device_stack_transfer_abort.o
LOAD build/ux_device_stack_transfer_all_request_abort.o
LOAD build/ux_device_stack_transfer_request.o
LOAD build/ux_device_stack_uninitialize.o
LOAD build/ux_device_stack_tasks_run.o
LOAD build/ux_device_stack_transfer_run.o
LOAD build/ux_device_class_cdc_acm_activate.o
LOAD build/ux_device_class_cdc_acm_control_request.o
LOAD build/ux_device_class_cdc_acm_deactivate.o
LOAD build/ux_device_class_cdc_acm_entry.o
LOAD build/ux_device_class_cdc_acm_initialize.o
LOAD build/ux_device_class_cdc_acm_ioctl.o
LOAD build/ux_device_class_cdc_acm_unitialize.o
LOAD build/ux_device_class_cdc_acm_write_with_callback.o
LOAD build/ux_device_class_cdc_acm_read_run.o
LOAD build/ux_device_class_cdc_acm_tasks_run.o
LOAD build/ux_device_class_cdc_acm_write_run.o
LOAD build/main.o
LOAD build/cmd.o
LOAD build/tty.o
LOAD build/led.o
LOAD build/dma.o
LOAD build/gpio.o
LOAD build/irq.o
LOAD build/reset.o
LOAD build/time.o
LOAD build/uart.o
LOAD build/sys.o
LOAD build/wd.o
LOAD build/spi.o
LOAD build/util.o
LOAD build/ux_device_cdc_acm.o
LOAD build/ux_device_descriptors.o
LOAD build/usb_device.o
LOAD build/startup_stm32u535xx.o
LOAD /usr/lib/gcc/arm-none-eabi/10.3.1/../../../arm-none-eabi/lib/thumb/v8-m.main+fp/hard/libc_nano.a
LOAD /usr/lib/gcc/arm-none-eabi/10.3.1/../../../arm-none-eabi/lib/thumb/v8-m.main+fp/hard/libm.a
LOAD /usr/lib/gcc/arm-none-eabi/10.3.1/../../../arm-none-eabi/lib/thumb/v8-m.main+fp/hard/libnosys.a
START GROUP
LOAD /usr/lib/gcc/arm-none-eabi/10.3.1/thumb/v8-m.main+fp/hard/libgcc.a
LOAD /usr/lib/gcc/arm-none-eabi/10.3.1/../../../arm-none-eabi/lib/thumb/v8-m.main+fp/hard/libc_nano.a
END GROUP
START GROUP
LOAD /usr/lib/gcc/arm-none-eabi/10.3.1/thumb/v8-m.main+fp/hard/libgcc.a
LOAD /usr/lib/gcc/arm-none-eabi/10.3.1/../../../arm-none-eabi/lib/thumb/v8-m.main+fp/hard/libc_nano.a
END GROUP
LOAD /usr/lib/gcc/arm-none-eabi/10.3.1/thumb/v8-m.main+fp/hard/crtend.o
LOAD /usr/lib/gcc/arm-none-eabi/10.3.1/thumb/v8-m.main+fp/hard/crtn.o
                0x0000000020040000                _estack = (ORIGIN (RAM) + LENGTH (RAM))
                0x0000000000000200                _Min_Heap_Size = 0x200
                0x0000000000000400                _Min_Stack_Size = 0x400

.isr_vector     0x0000000008000000      0x238
 *(.isr_vector)
 .isr_vector    0x0000000008000000      0x238 build/startup_stm32u535xx.o
                0x0000000008000000                g_pfnVectors

.text           0x0000000008000238     0x8204
 *(.text)
 .text          0x0000000008000238       0x8c /usr/lib/gcc/arm-none-eabi/10.3.1/thumb/v8-m.main+fp/hard/crtbegin.o
 .text          0x00000000080002c4      0x200 /usr/lib/gcc/arm-none-eabi/10.3.1/../../../arm-none-eabi/lib/thumb/v8-m.main+fp/hard/libc_nano.a(lib_a-fflush.o)
                0x00000000080002c4                __sflush_r
                0x00000000080003f0                _fflush_r
                0x0000000008000444                fflush
 .text          0x00000000080004c4      0x240 /usr/lib/gcc/arm-none-eabi/10.3.1/../../../arm-none-eabi/lib/thumb/v8-m.main+fp/hard/libc_nano.a(lib_a-findfp.o)
                0x00000000080004c8                _cleanup_r
                0x00000000080004d8                __sfmoreglue
                0x0000000008000508                __sfp
                0x00000000080006b0                _cleanup
                0x00000000080006c4                __sinit
                0x00000000080006cc                __sfp_lock_acquire
                0x00000000080006d0                __sfp_lock_release
                0x00000000080006d4                __sinit_lock_acquire
                0x00000000080006d8                __sinit_lock_release
                0x00000000080006dc                __fp_lock_all
                0x00000000080006f0                __fp_unlock_all
 .text          0x0000000008000704       0x84 /usr/lib/gcc/arm-none-eabi/10.3.1/../../../arm-none-eabi/lib/thumb/v8-m.main+fp/hard/libc_nano.a(lib_a-fwalk.o)
                0x0000000008000704                _fwalk
                0x0000000008000744                _fwalk_reent
 .text          0x0000000008000788       0x48 /usr/lib/gcc/arm-none-eabi/10.3.1/../../../arm-none-eabi/lib/thumb/v8-m.main+fp/hard/libc_nano.a(lib_a-init.o)
                0x0000000008000788                __libc_init_array
 .text          0x00000000080007d0       0xf8 /usr/lib/gcc/arm-none-eabi/10.3.1/../../../arm-none-eabi/lib/thumb/v8-m.main+fp/hard/libc_nano.a(lib_a-memmove.o)
                0x00000000080007d0                memmove
 .text          0x00000000080008c8       0xa4 /usr/lib/gcc/arm-none-eabi/10.3.1/../../../arm-none-eabi/lib/thumb/v8-m.main+fp/hard/libc_nano.a(lib_a-memset.o)
                0x00000000080008c8                memset
 .text          0x000000000800096c       0xac /usr/lib/gcc/arm-none-eabi/10.3.1/../../../arm-none-eabi/lib/thumb/v8-m.main+fp/hard/libc_nano.a(lib_a-nano-freer.o)
                0x000000000800096c                _free_r
 .text          0x0000000008000a18       0xb4 /usr/lib/gcc/arm-none-eabi/10.3.1/../../../arm-none-eabi/lib/thumb/v8-m.main+fp/hard/libc_nano.a(lib_a-nano-mallocr.o)
                0x0000000008000a18                _malloc_r
 .text          0x0000000008000acc       0x60 /usr/lib/gcc/arm-none-eabi/10.3.1/../../../arm-none-eabi/lib/thumb/v8-m.main+fp/hard/libc_nano.a(lib_a-printf.o)
                0x0000000008000acc                _printf_r
                0x0000000008000acc                _iprintf_r
                0x0000000008000af8                printf
                0x0000000008000af8                iprintf
 .text          0x0000000008000b2c       0xf4 /usr/lib/gcc/arm-none-eabi/10.3.1/../../../arm-none-eabi/lib/thumb/v8-m.main+fp/hard/libc_nano.a(lib_a-puts.o)
                0x0000000008000b2c                _puts_r
                0x0000000008000c10                puts
 .text          0x0000000008000c20       0x24 /usr/lib/gcc/arm-none-eabi/10.3.1/../../../arm-none-eabi/lib/thumb/v8-m.main+fp/hard/libc_nano.a(lib_a-sbrkr.o)
                0x0000000008000c20                _sbrk_r
 .text          0x0000000008000c44      0x108 /usr/lib/gcc/arm-none-eabi/10.3.1/../../../arm-none-eabi/lib/thumb/v8-m.main+fp/hard/libc_nano.a(lib_a-snprintf.o)
                0x0000000008000c44                _sniprintf_r
                0x0000000008000c44                _snprintf_r
                0x0000000008000cc4                snprintf
                0x0000000008000cc4                sniprintf
 .text          0x0000000008000d4c       0x94 /usr/lib/gcc/arm-none-eabi/10.3.1/../../../arm-none-eabi/lib/thumb/v8-m.main+fp/hard/libc_nano.a(lib_a-stdio.o)
                0x0000000008000d4c                __sread
                0x0000000008000d70                __seofread
                0x0000000008000d74                __swrite
                0x0000000008000db4                __sseek
                0x0000000008000dd8                __sclose
 .text          0x0000000008000de0       0x5c /usr/lib/gcc/arm-none-eabi/10.3.1/../../../arm-none-eabi/lib/thumb/v8-m.main+fp/hard/libc_nano.a(lib_a-strlen-stub.o)
                0x0000000008000de0                strlen
 .text          0x0000000008000e3c       0xc0 /usr/lib/gcc/arm-none-eabi/10.3.1/../../../arm-none-eabi/lib/thumb/v8-m.main+fp/hard/libc_nano.a(lib_a-wbuf.o)
                0x0000000008000e3c                __swbuf_r
                0x0000000008000eec                __swbuf
 .text          0x0000000008000efc       0x2c /usr/lib/gcc/arm-none-eabi/10.3.1/../../../arm-none-eabi/lib/thumb/v8-m.main+fp/hard/libc_nano.a(lib_a-writer.o)
                0x0000000008000efc                _write_r
 .text          0x0000000008000f28      0x104 /usr/lib/gcc/arm-none-eabi/10.3.1/../../../arm-none-eabi/lib/thumb/v8-m.main+fp/hard/libc_nano.a(lib_a-wsetup.o)
                0x0000000008000f28                __swsetup_r
 .text          0x000000000800102c       0x24 /usr/lib/gcc/arm-none-eabi/10.3.1/../../../arm-none-eabi/lib/thumb/v8-m.main+fp/hard/libc_nano.a(lib_a-closer.o)
                0x000000000800102c                _close_r
 .text          0x0000000008001050       0x2c /usr/lib/gcc/arm-none-eabi/10.3.1/../../../arm-none-eabi/lib/thumb/v8-m.main+fp/hard/libc_nano.a(lib_a-lseekr.o)
                0x0000000008001050                _lseek_r
 .text          0x000000000800107c      0x120 /usr/lib/gcc/arm-none-eabi/10.3.1/../../../arm-none-eabi/lib/thumb/v8-m.main+fp/hard/libc_nano.a(lib_a-makebuf.o)
                0x000000000800107c                __smakebuf_r
                0x0000000008001140                __swhatbuf_r
 .text          0x000000000800119c        0x8 /usr/lib/gcc/arm-none-eabi/10.3.1/../../../arm-none-eabi/lib/thumb/v8-m.main+fp/hard/libc_nano.a(lib_a-mlock.o)
                0x000000000800119c                __malloc_lock
                0x00000000080011a0                __malloc_unlock
 .text          0x00000000080011a4      0x3f8 /usr/lib/gcc/arm-none-eabi/10.3.1/../../../arm-none-eabi/lib/thumb/v8-m.main+fp/hard/libc_nano.a(lib_a-nano-svfprintf.o)
                0x00000000080011a4                __ssputs_r
                0x0000000008001264                __ssprint_r
                0x0000000008001364                _svfprintf_r
                0x0000000008001364                _svfiprintf_r
 .text          0x000000000800159c      0x328 /usr/lib/gcc/arm-none-eabi/10.3.1/../../../arm-none-eabi/lib/thumb/v8-m.main+fp/hard/libc_nano.a(lib_a-nano-vfprintf.o)
                0x00000000080015d8                __sfputs_r
                0x0000000008001608                __sprint_r
                0x0000000008001624                _vfiprintf_r
                0x0000000008001624                _vfprintf_r
                0x00000000080018ac                vfiprintf
                0x00000000080018ac                vfprintf
 .text          0x00000000080018c4      0x3e8 /usr/lib/gcc/arm-none-eabi/10.3.1/../../../arm-none-eabi/lib/thumb/v8-m.main+fp/hard/libc_nano.a(lib_a-nano-vfprintf_i.o)
                0x00000000080018c4                _printf_common
                0x00000000080019ec                _printf_i
 .text          0x0000000008001cac       0x2c /usr/lib/gcc/arm-none-eabi/10.3.1/../../../arm-none-eabi/lib/thumb/v8-m.main+fp/hard/libc_nano.a(lib_a-readr.o)
                0x0000000008001cac                _read_r
 .text          0x0000000008001cd8       0x2c /usr/lib/gcc/arm-none-eabi/10.3.1/../../../arm-none-eabi/lib/thumb/v8-m.main+fp/hard/libc_nano.a(lib_a-fstatr.o)
                0x0000000008001cd8                _fstat_r
 .text          0x0000000008001d04      0x2f4 /usr/lib/gcc/arm-none-eabi/10.3.1/../../../arm-none-eabi/lib/thumb/v8-m.main+fp/hard/libc_nano.a(lib_a-fvwrite.o)
                0x0000000008001d04                __sfvwrite_r
 .text          0x0000000008001ff8       0x24 /usr/lib/gcc/arm-none-eabi/10.3.1/../../../arm-none-eabi/lib/thumb/v8-m.main+fp/hard/libc_nano.a(lib_a-isattyr.o)
                0x0000000008001ff8                _isatty_r
 .text          0x000000000800201c       0x80 /usr/lib/gcc/arm-none-eabi/10.3.1/../../../arm-none-eabi/lib/thumb/v8-m.main+fp/hard/libc_nano.a(lib_a-memchr-stub.o)
                0x000000000800201c                memchr
 .text          0x000000000800209c       0xec /usr/lib/gcc/arm-none-eabi/10.3.1/../../../arm-none-eabi/lib/thumb/v8-m.main+fp/hard/libc_nano.a(lib_a-memcpy.o)
                0x000000000800209c                memcpy
 .text          0x0000000008002188       0x50 /usr/lib/gcc/arm-none-eabi/10.3.1/../../../arm-none-eabi/lib/thumb/v8-m.main+fp/hard/libc_nano.a(lib_a-nano-reallocr.o)
                0x0000000008002188                _realloc_r
 .text          0x00000000080021d8       0x14 /usr/lib/gcc/arm-none-eabi/10.3.1/../../../arm-none-eabi/lib/thumb/v8-m.main+fp/hard/libc_nano.a(lib_a-nano-msizer.o)
                0x00000000080021d8                _malloc_usable_size_r
 .text          0x00000000080021ec       0x10 /usr/lib/gcc/arm-none-eabi/10.3.1/../../../arm-none-eabi/lib/thumb/v8-m.main+fp/hard/libnosys.a(close.o)
                0x00000000080021ec                _close
 .text          0x00000000080021fc       0x10 /usr/lib/gcc/arm-none-eabi/10.3.1/../../../arm-none-eabi/lib/thumb/v8-m.main+fp/hard/libnosys.a(fstat.o)
                0x00000000080021fc                _fstat
 .text          0x000000000800220c       0x10 /usr/lib/gcc/arm-none-eabi/10.3.1/../../../arm-none-eabi/lib/thumb/v8-m.main+fp/hard/libnosys.a(isatty.o)
                0x000000000800220c                _isatty
 .text          0x000000000800221c       0x10 /usr/lib/gcc/arm-none-eabi/10.3.1/../../../arm-none-eabi/lib/thumb/v8-m.main+fp/hard/libnosys.a(lseek.o)
                0x000000000800221c                _lseek
 .text          0x000000000800222c       0x20 /usr/lib/gcc/arm-none-eabi/10.3.1/../../../arm-none-eabi/lib/thumb/v8-m.main+fp/hard/libnosys.a(sbrk.o)
                0x000000000800222c                _sbrk
 *(.text*)
 .text.SystemInit
                0x000000000800224c       0x44 build/system_stm32u5xx.o
                0x000000000800224c                SystemInit
 .text.LL_GPIO_Init
                0x0000000008002290      0x138 build/stm32u5xx_ll_gpio.o
                0x0000000008002290                LL_GPIO_Init
 .text.USB_CoreInit
                0x00000000080023c8       0x2e build/stm32u5xx_ll_usb.o
                0x00000000080023c8                USB_CoreInit
 .text.USB_EnableGlobalInt
                0x00000000080023f6        0xe build/stm32u5xx_ll_usb.o
                0x00000000080023f6                USB_EnableGlobalInt
 .text.USB_DisableGlobalInt
                0x0000000008002404       0x10 build/stm32u5xx_ll_usb.o
                0x0000000008002404                USB_DisableGlobalInt
 .text.USB_SetCurrentMode
                0x0000000008002414       0x22 build/stm32u5xx_ll_usb.o
                0x0000000008002414                USB_SetCurrentMode
 .text.USB_DevInit
                0x0000000008002436       0x2c build/stm32u5xx_ll_usb.o
                0x0000000008002436                USB_DevInit
 .text.USB_FlushTxFifo
                0x0000000008002462        0x4 build/stm32u5xx_ll_usb.o
                0x0000000008002462                USB_FlushTxFifo
 .text.USB_FlushRxFifo
                0x0000000008002466        0x4 build/stm32u5xx_ll_usb.o
                0x0000000008002466                USB_FlushRxFifo
 *fill*         0x000000000800246a        0x2 
 .text.USB_ActivateEndpoint
                0x000000000800246c      0x300 build/stm32u5xx_ll_usb.o
                0x000000000800246c                USB_ActivateEndpoint
 .text.USB_DeactivateEndpoint
                0x000000000800276c      0x140 build/stm32u5xx_ll_usb.o
                0x000000000800276c                USB_DeactivateEndpoint
 .text.USB_EPSetStall
                0x00000000080028ac       0x34 build/stm32u5xx_ll_usb.o
                0x00000000080028ac                USB_EPSetStall
 .text.USB_EPClearStall
                0x00000000080028e0       0x7c build/stm32u5xx_ll_usb.o
                0x00000000080028e0                USB_EPClearStall
 .text.USB_EPStopXfer
                0x000000000800295c       0x54 build/stm32u5xx_ll_usb.o
                0x000000000800295c                USB_EPStopXfer
 .text.USB_SetDevAddress
                0x00000000080029b0        0xa build/stm32u5xx_ll_usb.o
                0x00000000080029b0                USB_SetDevAddress
 .text.USB_DevConnect
                0x00000000080029ba        0xc build/stm32u5xx_ll_usb.o
                0x00000000080029ba                USB_DevConnect
 .text.USB_DevDisconnect
                0x00000000080029c6        0xc build/stm32u5xx_ll_usb.o
                0x00000000080029c6                USB_DevDisconnect
 .text.USB_ReadInterrupts
                0x00000000080029d2        0x4 build/stm32u5xx_ll_usb.o
                0x00000000080029d2                USB_ReadInterrupts
 .text.USB_WritePMA
                0x00000000080029d6       0x4a build/stm32u5xx_ll_usb.o
                0x00000000080029d6                USB_WritePMA
 .text.USB_EPStartXfer
                0x0000000008002a20      0x2f4 build/stm32u5xx_ll_usb.o
                0x0000000008002a20                USB_EPStartXfer
 .text.USB_ReadPMA
                0x0000000008002d14       0x48 build/stm32u5xx_ll_usb.o
                0x0000000008002d14                USB_ReadPMA
 .text.LL_SetSystemCoreClock
                0x0000000008002d5c        0xc build/stm32u5xx_ll_utils.o
                0x0000000008002d5c                LL_SetSystemCoreClock
 .text.HAL_DMA_Start_IT
                0x0000000008002d68       0x7c build/stm32u5xx_hal_dma.o
                0x0000000008002d68                HAL_DMA_Start_IT
 .text.HAL_DMA_Abort
                0x0000000008002de4       0x94 build/stm32u5xx_hal_dma.o
                0x0000000008002de4                HAL_DMA_Abort
 .text.HAL_DMA_Abort_IT
                0x0000000008002e78       0x2a build/stm32u5xx_hal_dma.o
                0x0000000008002e78                HAL_DMA_Abort_IT
 .text.HAL_DMA_IRQHandler
                0x0000000008002ea2      0x17e build/stm32u5xx_hal_dma.o
                0x0000000008002ea2                HAL_DMA_IRQHandler
 .text.HAL_DMA_GetError
                0x0000000008003020        0x4 build/stm32u5xx_hal_dma.o
                0x0000000008003020                HAL_DMA_GetError
 .text.HAL_DMA_ConfigChannelAttributes
                0x0000000008003024       0x3e build/stm32u5xx_hal_dma.o
                0x0000000008003024                HAL_DMA_ConfigChannelAttributes
 *fill*         0x0000000008003062        0x2 
 .text.DMA_List_CheckNodesBaseAddresses
                0x0000000008003064       0x2c build/stm32u5xx_hal_dma_ex.o
 .text.DMA_List_CheckNodesTypes
                0x0000000008003090       0x34 build/stm32u5xx_hal_dma_ex.o
 .text.DMA_List_FindNode
                0x00000000080030c4       0xb0 build/stm32u5xx_hal_dma_ex.o
 .text.DMA_List_GetCLLRNodeInfo.isra.0
                0x0000000008003174       0x28 build/stm32u5xx_hal_dma_ex.o
 .text.HAL_DMAEx_List_Init
                0x000000000800319c      0x1f0 build/stm32u5xx_hal_dma_ex.o
                0x000000000800319c                HAL_DMAEx_List_Init
 .text.HAL_DMAEx_List_Start_IT
                0x000000000800338c       0xac build/stm32u5xx_hal_dma_ex.o
                0x000000000800338c                HAL_DMAEx_List_Start_IT
 .text.HAL_DMAEx_List_BuildNode
                0x0000000008003438      0x13c build/stm32u5xx_hal_dma_ex.o
                0x0000000008003438                HAL_DMAEx_List_BuildNode
 .text.HAL_DMAEx_List_InsertNode_Tail
                0x0000000008003574       0x92 build/stm32u5xx_hal_dma_ex.o
                0x0000000008003574                HAL_DMAEx_List_InsertNode_Tail
 *fill*         0x0000000008003606        0x2 
 .text.HAL_DMAEx_List_LinkQ
                0x0000000008003608       0xa0 build/stm32u5xx_hal_dma_ex.o
                0x0000000008003608                HAL_DMAEx_List_LinkQ
 .text.PCD_GET_EP_DBUF0_CNT.constprop.0
                0x00000000080036a8       0x24 build/stm32u5xx_hal_pcd.o
 .text.PCD_GET_EP_RX_CNT.constprop.0
                0x00000000080036cc       0x24 build/stm32u5xx_hal_pcd.o
 .text.HAL_PCD_Init
                0x00000000080036f0       0xe0 build/stm32u5xx_hal_pcd.o
                0x00000000080036f0                HAL_PCD_Init
 .text.HAL_PCD_Start
                0x00000000080037d0       0x2a build/stm32u5xx_hal_pcd.o
                0x00000000080037d0                HAL_PCD_Start
 .text.HAL_PCD_Stop
                0x00000000080037fa       0x2a build/stm32u5xx_hal_pcd.o
                0x00000000080037fa                HAL_PCD_Stop
 .text.HAL_PCD_SetAddress
                0x0000000008003824       0x26 build/stm32u5xx_hal_pcd.o
                0x0000000008003824                HAL_PCD_SetAddress
 *fill*         0x000000000800384a        0x2 
 .text.HAL_PCD_IRQHandler
                0x000000000800384c      0x8b8 build/stm32u5xx_hal_pcd.o
                0x000000000800384c                HAL_PCD_IRQHandler
 .text.HAL_PCD_EP_Open
                0x0000000008004104       0x6e build/stm32u5xx_hal_pcd.o
                0x0000000008004104                HAL_PCD_EP_Open
 .text.HAL_PCD_EP_Close
                0x0000000008004172       0x5c build/stm32u5xx_hal_pcd.o
                0x0000000008004172                HAL_PCD_EP_Close
 .text.HAL_PCD_EP_Receive
                0x00000000080041ce       0x2c build/stm32u5xx_hal_pcd.o
                0x00000000080041ce                HAL_PCD_EP_Receive
 .text.HAL_PCD_EP_GetRxCount
                0x00000000080041fa       0x10 build/stm32u5xx_hal_pcd.o
                0x00000000080041fa                HAL_PCD_EP_GetRxCount
 .text.HAL_PCD_EP_Transmit
                0x000000000800420a       0x36 build/stm32u5xx_hal_pcd.o
                0x000000000800420a                HAL_PCD_EP_Transmit
 .text.HAL_PCD_EP_SetStall
                0x0000000008004240       0x60 build/stm32u5xx_hal_pcd.o
                0x0000000008004240                HAL_PCD_EP_SetStall
 .text.HAL_PCD_EP_ClrStall
                0x00000000080042a0       0x6e build/stm32u5xx_hal_pcd.o
                0x00000000080042a0                HAL_PCD_EP_ClrStall
 .text.HAL_PCD_EP_Abort
                0x000000000800430e       0x20 build/stm32u5xx_hal_pcd.o
                0x000000000800430e                HAL_PCD_EP_Abort
 .text.HAL_PCD_EP_Flush
                0x000000000800432e       0x32 build/stm32u5xx_hal_pcd.o
                0x000000000800432e                HAL_PCD_EP_Flush
 .text.HAL_PCDEx_PMAConfig
                0x0000000008004360       0x32 build/stm32u5xx_hal_pcd_ex.o
                0x0000000008004360                HAL_PCDEx_PMAConfig
 .text.HAL_PCDEx_ActivateLPM
                0x0000000008004392       0x22 build/stm32u5xx_hal_pcd_ex.o
                0x0000000008004392                HAL_PCDEx_ActivateLPM
 .text.HAL_PCDEx_LPM_Callback
                0x00000000080043b4        0x2 build/stm32u5xx_hal_pcd_ex.o
                0x00000000080043b4                HAL_PCDEx_LPM_Callback
 .text.SPI_CloseTransfer
                0x00000000080043b6       0xac build/stm32u5xx_hal_spi.o
 *fill*         0x0000000008004462        0x2 
 .text.HAL_SPI_Init
                0x0000000008004464      0x144 build/stm32u5xx_hal_spi.o
                0x0000000008004464                HAL_SPI_Init
 .text.HAL_SPI_TransmitReceive_DMA
                0x00000000080045a8      0x28c build/stm32u5xx_hal_spi.o
                0x00000000080045a8                HAL_SPI_TransmitReceive_DMA
 .text.HAL_SPI_TxCpltCallback
                0x0000000008004834        0x2 build/stm32u5xx_hal_spi.o
                0x0000000008004834                HAL_SPI_TxCpltCallback
 .text.HAL_SPI_RxCpltCallback
                0x0000000008004836        0x2 build/stm32u5xx_hal_spi.o
                0x0000000008004836                HAL_SPI_RxCpltCallback
 .text.SPI_DMATransmitReceiveCplt
                0x0000000008004838       0x32 build/stm32u5xx_hal_spi.o
 .text.HAL_SPI_TxRxHalfCpltCallback
                0x000000000800486a        0x2 build/stm32u5xx_hal_spi.o
                0x000000000800486a                HAL_SPI_TxRxHalfCpltCallback
 .text.SPI_DMAHalfTransmitReceiveCplt
                0x000000000800486c        0xa build/stm32u5xx_hal_spi.o
 .text.HAL_SPI_ErrorCallback
                0x0000000008004876        0x2 build/stm32u5xx_hal_spi.o
                0x0000000008004876                HAL_SPI_ErrorCallback
 .text.SPI_DMAError
                0x0000000008004878       0x28 build/stm32u5xx_hal_spi.o
 .text.SPI_DMAAbortOnError
                0x00000000080048a0       0x1a build/stm32u5xx_hal_spi.o
 .text.HAL_SPI_SuspendCallback
                0x00000000080048ba        0x2 build/stm32u5xx_hal_spi.o
                0x00000000080048ba                HAL_SPI_SuspendCallback
 .text.HAL_SPI_IRQHandler
                0x00000000080048bc      0x20c build/stm32u5xx_hal_spi.o
                0x00000000080048bc                HAL_SPI_IRQHandler
 .text.HAL_SPIEx_SetConfigAutonomousMode
                0x0000000008004ac8       0x48 build/stm32u5xx_hal_spi_ex.o
                0x0000000008004ac8                HAL_SPIEx_SetConfigAutonomousMode
 .text._ux_dcd_stm32_setup_isr_pending
                0x0000000008004b10       0x90 build/ux_dcd_stm32_callback.o
                0x0000000008004b10                _ux_dcd_stm32_setup_isr_pending
 .text.HAL_PCD_SetupStageCallback
                0x0000000008004ba0       0x98 build/ux_dcd_stm32_callback.o
                0x0000000008004ba0                HAL_PCD_SetupStageCallback
 .text.HAL_PCD_DataInStageCallback
                0x0000000008004c38       0xc8 build/ux_dcd_stm32_callback.o
                0x0000000008004c38                HAL_PCD_DataInStageCallback
 .text.HAL_PCD_DataOutStageCallback
                0x0000000008004d00       0x98 build/ux_dcd_stm32_callback.o
                0x0000000008004d00                HAL_PCD_DataOutStageCallback
 .text.HAL_PCD_ResetCallback
                0x0000000008004d98       0x30 build/ux_dcd_stm32_callback.o
                0x0000000008004d98                HAL_PCD_ResetCallback
 .text.HAL_PCD_SuspendCallback
                0x0000000008004dc8       0x14 build/ux_dcd_stm32_callback.o
                0x0000000008004dc8                HAL_PCD_SuspendCallback
 .text.HAL_PCD_ResumeCallback
                0x0000000008004ddc       0x14 build/ux_dcd_stm32_callback.o
                0x0000000008004ddc                HAL_PCD_ResumeCallback
 .text.HAL_PCD_SOFCallback
                0x0000000008004df0       0x14 build/ux_dcd_stm32_callback.o
                0x0000000008004df0                HAL_PCD_SOFCallback
 .text._ux_dcd_stm32_endpoint_create
                0x0000000008004e04       0x64 build/ux_dcd_stm32_endpoint_create.o
                0x0000000008004e04                _ux_dcd_stm32_endpoint_create
 .text._ux_dcd_stm32_endpoint_destroy
                0x0000000008004e68       0x16 build/ux_dcd_stm32_endpoint_destroy.o
                0x0000000008004e68                _ux_dcd_stm32_endpoint_destroy
 .text._ux_dcd_stm32_endpoint_reset
                0x0000000008004e7e       0x40 build/ux_dcd_stm32_endpoint_reset.o
                0x0000000008004e7e                _ux_dcd_stm32_endpoint_reset
 .text._ux_dcd_stm32_endpoint_stall
                0x0000000008004ebe       0x1e build/ux_dcd_stm32_endpoint_stall.o
                0x0000000008004ebe                _ux_dcd_stm32_endpoint_stall
 .text._ux_dcd_stm32_endpoint_status
                0x0000000008004edc       0x36 build/ux_dcd_stm32_endpoint_status.o
                0x0000000008004edc                _ux_dcd_stm32_endpoint_status
 .text._ux_dcd_stm32_frame_number_get
                0x0000000008004f12        0x4 build/ux_dcd_stm32_frame_number_get.o
                0x0000000008004f12                _ux_dcd_stm32_frame_number_get
 .text._ux_dcd_stm32_function
                0x0000000008004f16       0xa0 build/ux_dcd_stm32_function.o
                0x0000000008004f16                _ux_dcd_stm32_function
 *fill*         0x0000000008004fb6        0x2 
 .text._ux_dcd_stm32_initialize
                0x0000000008004fb8       0x38 build/ux_dcd_stm32_initialize.o
                0x0000000008004fb8                _ux_dcd_stm32_initialize
 .text._ux_dcd_stm32_initialize_complete
                0x0000000008004ff0       0xdc build/ux_dcd_stm32_initialize_complete.o
                0x0000000008004ff0                _ux_dcd_stm32_initialize_complete
 .text._ux_dcd_stm32_transfer_run
                0x00000000080050cc       0x88 build/ux_dcd_stm32_transfer_run.o
                0x00000000080050cc                _ux_dcd_stm32_transfer_run
 .text._ux_dcd_stm32_transfer_abort
                0x0000000008005154       0x1e build/ux_dcd_stm32_transfer_abort.o
                0x0000000008005154                _ux_dcd_stm32_transfer_abort
 .text._ux_utility_descriptor_parse
                0x0000000008005172       0x5a build/ux_utility_descriptor_parse.o
                0x0000000008005172                _ux_utility_descriptor_parse
 .text._ux_utility_long_get
                0x00000000080051cc        0x4 build/ux_utility_long_get.o
                0x00000000080051cc                _ux_utility_long_get
 .text._ux_utility_long_put
                0x00000000080051d0       0x10 build/ux_utility_long_put.o
                0x00000000080051d0                _ux_utility_long_put
 .text._ux_utility_memory_allocate
                0x00000000080051e0       0xdc build/ux_utility_memory_allocate.o
                0x00000000080051e0                _ux_utility_memory_allocate
 .text._ux_utility_memory_allocate_mulc_safe
                0x00000000080052bc       0x1c build/ux_utility_memory_allocate_mulc_safe.o
                0x00000000080052bc                _ux_utility_memory_allocate_mulc_safe
 .text._ux_utility_memory_copy
                0x00000000080052d8       0x14 build/ux_utility_memory_copy.o
                0x00000000080052d8                _ux_utility_memory_copy
 .text._ux_utility_memory_free
                0x00000000080052ec       0x50 build/ux_utility_memory_free.o
                0x00000000080052ec                _ux_utility_memory_free
 .text._ux_utility_memory_byte_pool_create
                0x000000000800533c       0x3c build/ux_utility_memory_byte_pool_create.o
                0x000000000800533c                _ux_utility_memory_byte_pool_create
 .text._ux_utility_memory_byte_pool_search
                0x0000000008005378       0x7c build/ux_utility_memory_byte_pool_search.o
                0x0000000008005378                _ux_utility_memory_byte_pool_search
 .text._ux_utility_memory_set
                0x00000000080053f4        0x4 build/ux_utility_memory_set.o
                0x00000000080053f4                _ux_utility_memory_set
 .text._ux_utility_short_get
                0x00000000080053f8        0x4 build/ux_utility_short_get.o
                0x00000000080053f8                _ux_utility_short_get
 .text._ux_utility_string_length_check
                0x00000000080053fc       0x2a build/ux_utility_string_length_check.o
                0x00000000080053fc                _ux_utility_string_length_check
 *fill*         0x0000000008005426        0x2 
 .text._ux_system_error_handler
                0x0000000008005428       0x24 build/ux_system_error_handler.o
                0x0000000008005428                _ux_system_error_handler
 .text._ux_system_initialize
                0x000000000800544c       0x9c build/ux_system_initialize.o
                0x000000000800544c                _ux_system_initialize
 .text._uxe_system_initialize
                0x00000000080054e8       0x16 build/ux_system_initialize.o
                0x00000000080054e8                _uxe_system_initialize
 *fill*         0x00000000080054fe        0x2 
 .text._ux_device_stack_alternate_setting_get
                0x0000000008005500       0x3c build/ux_device_stack_alternate_setting_get.o
                0x0000000008005500                _ux_device_stack_alternate_setting_get
 .text._ux_device_stack_alternate_setting_set
                0x000000000800553c      0x1f8 build/ux_device_stack_alternate_setting_set.o
                0x000000000800553c                _ux_device_stack_alternate_setting_set
 .text._ux_device_stack_class_register
                0x0000000008005734       0x64 build/ux_device_stack_class_register.o
                0x0000000008005734                _ux_device_stack_class_register
 .text._ux_device_stack_clear_feature
                0x0000000008005798       0x64 build/ux_device_stack_clear_feature.o
                0x0000000008005798                _ux_device_stack_clear_feature
 .text._ux_device_stack_configuration_get
                0x00000000080057fc       0x20 build/ux_device_stack_configuration_get.o
                0x00000000080057fc                _ux_device_stack_configuration_get
 .text._ux_device_stack_configuration_set
                0x000000000800581c      0x1b4 build/ux_device_stack_configuration_set.o
                0x000000000800581c                _ux_device_stack_configuration_set
 .text._ux_device_stack_control_request_process
                0x00000000080059d0      0x1e0 build/ux_device_stack_control_request_process.o
                0x00000000080059d0                _ux_device_stack_control_request_process
 .text._ux_device_stack_descriptor_send
                0x0000000008005bb0      0x204 build/ux_device_stack_descriptor_send.o
                0x0000000008005bb0                _ux_device_stack_descriptor_send
 .text._ux_device_stack_disconnect
                0x0000000008005db4       0x70 build/ux_device_stack_disconnect.o
                0x0000000008005db4                _ux_device_stack_disconnect
 .text._ux_device_stack_endpoint_stall
                0x0000000008005e24       0x44 build/ux_device_stack_endpoint_stall.o
                0x0000000008005e24                _ux_device_stack_endpoint_stall
 .text._ux_device_stack_get_status
                0x0000000008005e68       0x90 build/ux_device_stack_get_status.o
                0x0000000008005e68                _ux_device_stack_get_status
 .text._ux_device_stack_initialize
                0x0000000008005ef8      0x190 build/ux_device_stack_initialize.o
                0x0000000008005ef8                _ux_device_stack_initialize
 .text._ux_device_stack_interface_delete
                0x0000000008006088       0x48 build/ux_device_stack_interface_delete.o
                0x0000000008006088                _ux_device_stack_interface_delete
 .text._ux_device_stack_interface_set
                0x00000000080060d0      0x11c build/ux_device_stack_interface_set.o
                0x00000000080060d0                _ux_device_stack_interface_set
 .text._ux_device_stack_interface_start
                0x00000000080061ec       0x58 build/ux_device_stack_interface_start.o
                0x00000000080061ec                _ux_device_stack_interface_start
 .text._ux_device_stack_set_feature
                0x0000000008006244       0x58 build/ux_device_stack_set_feature.o
                0x0000000008006244                _ux_device_stack_set_feature
 .text._ux_device_stack_transfer_abort
                0x000000000800629c       0x38 build/ux_device_stack_transfer_abort.o
                0x000000000800629c                _ux_device_stack_transfer_abort
 .text._ux_device_stack_transfer_all_request_abort
                0x00000000080062d4        0xc build/ux_device_stack_transfer_all_request_abort.o
                0x00000000080062d4                _ux_device_stack_transfer_all_request_abort
 .text._ux_device_stack_transfer_request
                0x00000000080062e0       0x20 build/ux_device_stack_transfer_request.o
                0x00000000080062e0                _ux_device_stack_transfer_request
 .text._ux_device_stack_tasks_run
                0x0000000008006300       0x2c build/ux_device_stack_tasks_run.o
                0x0000000008006300                _ux_device_stack_tasks_run
 .text._ux_device_stack_transfer_run
                0x000000000800632c       0xb4 build/ux_device_stack_transfer_run.o
                0x000000000800632c                _ux_device_stack_transfer_run
 .text._ux_device_class_cdc_acm_activate
                0x00000000080063e0       0x18 build/ux_device_class_cdc_acm_activate.o
                0x00000000080063e0                _ux_device_class_cdc_acm_activate
 .text._ux_device_class_cdc_acm_control_request
                0x00000000080063f8       0xbc build/ux_device_class_cdc_acm_control_request.o
                0x00000000080063f8                _ux_device_class_cdc_acm_control_request
 .text._ux_device_class_cdc_acm_deactivate
                0x00000000080064b4       0x46 build/ux_device_class_cdc_acm_deactivate.o
                0x00000000080064b4                _ux_device_class_cdc_acm_deactivate
 .text._ux_device_class_cdc_acm_entry
                0x00000000080064fa       0x38 build/ux_device_class_cdc_acm_entry.o
                0x00000000080064fa                _ux_device_class_cdc_acm_entry
 .text._ux_device_class_cdc_acm_initialize
                0x0000000008006532       0x3c build/ux_device_class_cdc_acm_initialize.o
                0x0000000008006532                _ux_device_class_cdc_acm_initialize
 .text._ux_device_class_cdc_acm_ioctl
                0x000000000800656e       0xd8 build/ux_device_class_cdc_acm_ioctl.o
                0x000000000800656e                _ux_device_class_cdc_acm_ioctl
 .text._ux_device_class_cdc_acm_uninitialize
                0x0000000008006646       0x10 build/ux_device_class_cdc_acm_unitialize.o
                0x0000000008006646                _ux_device_class_cdc_acm_uninitialize
 *fill*         0x0000000008006656        0x2 
 .text._ux_device_class_cdc_acm_read_run
                0x0000000008006658       0xdc build/ux_device_class_cdc_acm_read_run.o
                0x0000000008006658                _ux_device_class_cdc_acm_read_run
 .text._ux_device_class_cdc_acm_write_run
                0x0000000008006734       0xf0 build/ux_device_class_cdc_acm_write_run.o
                0x0000000008006734                _ux_device_class_cdc_acm_write_run
 .text._led1_on
                0x0000000008006824       0x10 build/main.o
 .text._led1_off
                0x0000000008006834       0x10 build/main.o
 .text._parse_hex
                0x0000000008006844       0xc8 build/main.o
 .text._tty_rx_parser
                0x000000000800690c       0x2c build/main.o
 .text._spi_auto_task
                0x0000000008006938       0xa0 build/main.o
 .text.Error_Handler
                0x00000000080069d8       0x20 build/main.o
                0x00000000080069d8                Error_Handler
 .text.startup.main
                0x00000000080069f8      0x1bc build/main.o
                0x00000000080069f8                main
 .text._skip_spaces
                0x0000000008006bb4       0x10 build/cmd.o
 .text._cmd_help
                0x0000000008006bc4       0x4c build/cmd.o
 .text._cmd_error
                0x0000000008006c10        0xc build/cmd.o
 .text._cmd_reset
                0x0000000008006c1c       0x20 build/cmd.o
 .text._cmd_pwr_set
                0x0000000008006c3c       0x44 build/cmd.o
 .text._cmd_basic_reply.isra.0
                0x0000000008006c80        0xc build/cmd.o
 .text._cmd_clkdiv
                0x0000000008006c8c       0x1c build/cmd.o
 .text._cmd_cs  0x0000000008006ca8       0x1c build/cmd.o
 .text._cmd_sn  0x0000000008006cc4       0x28 build/cmd.o
 .text._cmd_auto
                0x0000000008006cec       0x3c build/cmd.o
 .text._cmd_gpo
                0x0000000008006d28       0x24 build/cmd.o
 .text._cmd_pwr
                0x0000000008006d4c       0x20 build/cmd.o
 .text._cmd_ver
                0x0000000008006d6c       0x24 build/cmd.o
 .text._cmd_button
                0x0000000008006d90       0x28 build/cmd.o
 .text._cmd_id  0x0000000008006db8       0x18 build/cmd.o
 .text._cmd_auto_set
                0x0000000008006dd0       0xa8 build/cmd.o
 .text._cmd_cs_set
                0x0000000008006e78       0x30 build/cmd.o
 .text.parse_number
                0x0000000008006ea8       0x3c build/cmd.o
                0x0000000008006ea8                parse_number
 .text._cmd_clkdiv_set
                0x0000000008006ee4       0x28 build/cmd.o
 .text.cmd_parse
                0x0000000008006f0c       0xb8 build/cmd.o
                0x0000000008006f0c                cmd_parse
 .text._usb_send_data
                0x0000000008006fc4       0x3e build/tty.o
 .text._write   0x0000000008007002       0x10 build/tty.o
                0x0000000008007002                _write
 .text._read    0x0000000008007012        0x4 build/tty.o
                0x0000000008007012                _read
 *fill*         0x0000000008007016        0x2 
 .text._usb_getchar
                0x0000000008007018       0x30 build/tty.o
                0x0000000008007018                _usb_getchar
 .text._rx_feed
                0x0000000008007048       0x4c build/tty.o
                0x0000000008007048                _rx_feed
 .text.tty_rx_task
                0x0000000008007094       0x1c build/tty.o
                0x0000000008007094                tty_rx_task
 .text.tty_put_text
                0x00000000080070b0       0x1c build/tty.o
                0x00000000080070b0                tty_put_text
 .text._usb_rx_handler
                0x00000000080070cc       0x48 build/tty.o
 .text.tty_init
                0x0000000008007114       0x18 build/tty.o
                0x0000000008007114                tty_init
 .text.led_init
                0x000000000800712c        0xe build/led.o
                0x000000000800712c                led_init
 .text.led_cyclic_sequence
                0x000000000800713a       0x26 build/led.o
                0x000000000800713a                led_cyclic_sequence
 .text.led_tick
                0x0000000008007160       0x2c build/led.o
                0x0000000008007160                led_tick
 .text.dma_init
                0x000000000800718c       0x28 build/dma.o
                0x000000000800718c                dma_init
 .text.dma_init_spi_rx
                0x00000000080071b4       0xb0 build/dma.o
                0x00000000080071b4                dma_init_spi_rx
 .text.dma_init_spi_tx
                0x0000000008007264       0xb4 build/dma.o
                0x0000000008007264                dma_init_spi_tx
 .text.GPDMA1_Channel6_IRQHandler
                0x0000000008007318        0xc build/dma.o
                0x0000000008007318                GPDMA1_Channel6_IRQHandler
 .text.GPDMA1_Channel7_IRQHandler
                0x0000000008007324        0xc build/dma.o
                0x0000000008007324                GPDMA1_Channel7_IRQHandler
 .text.LL_AHB2_GRP1_EnableClock
                0x0000000008007330       0x20 build/gpio.o
 .text.gpio_pin_init
                0x0000000008007350       0x38 build/gpio.o
                0x0000000008007350                gpio_pin_init
 .text.gpio_init
                0x0000000008007388       0x1e build/gpio.o
                0x0000000008007388                gpio_init
 *fill*         0x00000000080073a6        0x2 
 .text.irq_enable
                0x00000000080073a8       0x6c build/irq.o
                0x00000000080073a8                irq_enable
 .text.reset_get_type
                0x0000000008007414       0x34 build/reset.o
                0x0000000008007414                reset_get_type
 .text.reset_clear
                0x0000000008007448       0x20 build/reset.o
                0x0000000008007448                reset_clear
 .text._get_timer_time
                0x0000000008007468       0x34 build/time.o
 .text.TIM2_IRQHandler
                0x000000000800749c       0x28 build/time.o
                0x000000000800749c                TIM2_IRQHandler
 .text.timer_init
                0x00000000080074c4       0x50 build/time.o
                0x00000000080074c4                timer_init
 .text.timer_get_time
                0x0000000008007514        0xc build/time.o
                0x0000000008007514                timer_get_time
 .text.time_delay_ms
                0x0000000008007520       0x24 build/time.o
                0x0000000008007520                time_delay_ms
 .text.LPUART1_IRQHandler
                0x0000000008007544       0x94 build/uart.o
                0x0000000008007544                LPUART1_IRQHandler
 .text.sys_init
                0x00000000080075d8       0x58 build/sys.o
                0x00000000080075d8                sys_init
 .text.sys_clock_config
                0x0000000008007630      0x17c build/sys.o
                0x0000000008007630                sys_clock_config
 .text.HAL_GetTick
                0x00000000080077ac        0x8 build/sys.o
                0x00000000080077ac                HAL_GetTick
 .text.wd_init  0x00000000080077b4        0x2 build/wd.o
                0x00000000080077b4                wd_init
 *fill*         0x00000000080077b6        0x2 
 .text.wd_run   0x00000000080077b8       0x2c build/wd.o
                0x00000000080077b8                wd_run
 .text.wd_reset
                0x00000000080077e4       0x34 build/wd.o
                0x00000000080077e4                wd_reset
 .text.wd_feed  0x0000000008007818       0x18 build/wd.o
                0x0000000008007818                wd_feed
 .text.spi1_get_prescaler
                0x0000000008007830       0x64 build/spi.o
                0x0000000008007830                spi1_get_prescaler
 .text.spi1_set_prescaler
                0x0000000008007894       0x6c build/spi.o
                0x0000000008007894                spi1_set_prescaler
 .text.spi1_init
                0x0000000008007900       0x80 build/spi.o
                0x0000000008007900                spi1_init
 .text.spi1_data_transfer
                0x0000000008007980       0x24 build/spi.o
                0x0000000008007980                spi1_data_transfer
 .text.spi1_flush
                0x00000000080079a4       0x14 build/spi.o
                0x00000000080079a4                spi1_flush
 .text.spi1_transfer
                0x00000000080079b8       0x1e build/spi.o
                0x00000000080079b8                spi1_transfer
 *fill*         0x00000000080079d6        0x2 
 .text.spi1_cs_state
                0x00000000080079d8        0xc build/spi.o
                0x00000000080079d8                spi1_cs_state
 .text.spi1_cs  0x00000000080079e4       0x20 build/spi.o
                0x00000000080079e4                spi1_cs
 .text.SPI1_IRQHandler
                0x0000000008007a04        0xc build/spi.o
                0x0000000008007a04                SPI1_IRQHandler
 .text.HAL_SPI_MspInit
                0x0000000008007a10       0xd0 build/spi.o
                0x0000000008007a10                HAL_SPI_MspInit
 .text.HAL_SPI_TxRxCpltCallback
                0x0000000008007ae0       0x18 build/spi.o
                0x0000000008007ae0                HAL_SPI_TxRxCpltCallback
 .text._hex_to_bin
                0x0000000008007af8       0x2a build/util.o
 .text.strnicmp
                0x0000000008007b22       0x4c build/util.o
                0x0000000008007b22                strnicmp
 .text.is_char  0x0000000008007b6e       0x24 build/util.o
                0x0000000008007b6e                is_char
 .text.hex_to_bin
                0x0000000008007b92       0x3a build/util.o
                0x0000000008007b92                hex_to_bin
 .text.ux_device_cdc_acm_rx_init
                0x0000000008007bcc        0xc build/ux_device_cdc_acm.o
                0x0000000008007bcc                ux_device_cdc_acm_rx_init
 .text.ux_device_cdc_acm_activate
                0x0000000008007bd8       0x40 build/ux_device_cdc_acm.o
                0x0000000008007bd8                ux_device_cdc_acm_activate
 .text.ux_device_cdc_acm_deactivate
                0x0000000008007c18        0xc build/ux_device_cdc_acm.o
                0x0000000008007c18                ux_device_cdc_acm_deactivate
 .text.ux_device_cdc_acm_parameterchange
                0x0000000008007c24        0x2 build/ux_device_cdc_acm.o
                0x0000000008007c24                ux_device_cdc_acm_parameterchange
 *fill*         0x0000000008007c26        0x2 
 .text.ux_device_cdc_acm_connected
                0x0000000008007c28       0x1c build/ux_device_cdc_acm.o
                0x0000000008007c28                ux_device_cdc_acm_connected
 .text.ux_device_cdc_acm_tx
                0x0000000008007c44       0x30 build/ux_device_cdc_acm.o
                0x0000000008007c44                ux_device_cdc_acm_tx
 .text.ux_device_cdc_acm_task
                0x0000000008007c74       0x50 build/ux_device_cdc_acm.o
                0x0000000008007c74                ux_device_cdc_acm_task
 .text.USBD_FrameWork_AssignEp
                0x0000000008007cc4       0x40 build/ux_device_descriptors.o
 .text.USBD_Desc_GetString.part.0
                0x0000000008007d04       0x26 build/ux_device_descriptors.o
 *fill*         0x0000000008007d2a        0x2 
 .text.USBD_Device_Framework_Builder.constprop.0.isra.0
                0x0000000008007d2c      0x354 build/ux_device_descriptors.o
 .text.ux_device_sn_text
                0x0000000008008080       0x38 build/ux_device_descriptors.o
                0x0000000008008080                ux_device_sn_text
 .text.USBD_Get_Device_Framework_Speed
                0x00000000080080b8       0x44 build/ux_device_descriptors.o
                0x00000000080080b8                USBD_Get_Device_Framework_Speed
 .text.USBD_Get_String_Framework
                0x00000000080080fc       0xa4 build/ux_device_descriptors.o
                0x00000000080080fc                USBD_Get_String_Framework
 .text.USBD_Get_Language_Id_Framework
                0x00000000080081a0       0x1c build/ux_device_descriptors.o
                0x00000000080081a0                USBD_Get_Language_Id_Framework
 .text.USBD_Get_Interface_Number
                0x00000000080081bc       0x2c build/ux_device_descriptors.o
                0x00000000080081bc                USBD_Get_Interface_Number
 .text.USBD_Get_Configuration_Number
                0x00000000080081e8        0x4 build/ux_device_descriptors.o
                0x00000000080081e8                USBD_Get_Configuration_Number
 .text.usbd_change_function
                0x00000000080081ec        0x4 build/usb_device.o
 .text.HAL_PCD_MspInit
                0x00000000080081f0       0x3c build/usb_device.o
                0x00000000080081f0                HAL_PCD_MspInit
 .text.usb_device_init
                0x000000000800822c      0x158 build/usb_device.o
                0x000000000800822c                usb_device_init
 .text.usb_device_task
                0x0000000008008384        0xe build/usb_device.o
                0x0000000008008384                usb_device_task
 .text.usb_cdc_rx_init
                0x0000000008008392        0xa build/usb_device.o
                0x0000000008008392                usb_cdc_rx_init
 .text.usb_device_connected
                0x000000000800839c        0x4 build/usb_device.o
                0x000000000800839c                usb_device_connected
 .text.usb_cdc_tx
                0x00000000080083a0       0x10 build/usb_device.o
                0x00000000080083a0                usb_cdc_tx
 .text.usb_cdc_tx_busy
                0x00000000080083b0        0x4 build/usb_device.o
                0x00000000080083b0                usb_cdc_tx_busy
 .text._ux_utility_interrupt_disable
                0x00000000080083b4        0x8 build/usb_device.o
                0x00000000080083b4                _ux_utility_interrupt_disable
 .text._ux_utility_interrupt_restore
                0x00000000080083bc        0x6 build/usb_device.o
                0x00000000080083bc                _ux_utility_interrupt_restore
 *fill*         0x00000000080083c2        0x2 
 .text.USB_IRQHandler
                0x00000000080083c4        0xc build/usb_device.o
                0x00000000080083c4                USB_IRQHandler
 .text.Reset_Handler
                0x00000000080083d0       0x50 build/startup_stm32u535xx.o
                0x00000000080083d0                Reset_Handler
 .text.Default_Handler
                0x0000000008008420        0x2 build/startup_stm32u535xx.o
                0x0000000008008420                EXTI2_IRQHandler
                0x0000000008008420                TIM8_TRG_COM_IRQHandler
                0x0000000008008420                TIM8_CC_IRQHandler
                0x0000000008008420                EXTI5_IRQHandler
                0x0000000008008420                DebugMon_Handler
                0x0000000008008420                FLASH_S_IRQHandler
                0x0000000008008420                EXTI13_IRQHandler
                0x0000000008008420                TIM1_CC_IRQHandler
                0x0000000008008420                TSC_IRQHandler
                0x0000000008008420                HardFault_Handler
                0x0000000008008420                TAMP_IRQHandler
                0x0000000008008420                TIM6_IRQHandler
                0x0000000008008420                EXTI12_IRQHandler
                0x0000000008008420                CORDIC_IRQHandler
                0x0000000008008420                SysTick_Handler
                0x0000000008008420                PendSV_Handler
                0x0000000008008420                NMI_Handler
                0x0000000008008420                EXTI3_IRQHandler
                0x0000000008008420                LPTIM4_IRQHandler
                0x0000000008008420                GPDMA1_Channel5_IRQHandler
                0x0000000008008420                EXTI8_IRQHandler
                0x0000000008008420                LPTIM2_IRQHandler
                0x0000000008008420                I2C3_ER_IRQHandler
                0x0000000008008420                PWR_S3WU_IRQHandler
                0x0000000008008420                LPDMA1_Channel3_IRQHandler
                0x0000000008008420                LPTIM3_IRQHandler
                0x0000000008008420                EXTI0_IRQHandler
                0x0000000008008420                I2C2_EV_IRQHandler
                0x0000000008008420                FPU_IRQHandler
                0x0000000008008420                GPDMA1_Channel3_IRQHandler
                0x0000000008008420                FDCAN1_IT1_IRQHandler
                0x0000000008008420                RAMCFG_IRQHandler
                0x0000000008008420                UsageFault_Handler
                0x0000000008008420                GPDMA1_Channel9_IRQHandler
                0x0000000008008420                DCACHE1_IRQHandler
                0x0000000008008420                OCTOSPI1_IRQHandler
                0x0000000008008420                GPDMA1_Channel2_IRQHandler
                0x0000000008008420                TIM8_UP_IRQHandler
                0x0000000008008420                RCC_S_IRQHandler
                0x0000000008008420                MDF1_FLT1_IRQHandler
                0x0000000008008420                ADC1_IRQHandler
                0x0000000008008420                EXTI15_IRQHandler
                0x0000000008008420                TIM17_IRQHandler
                0x0000000008008420                USART3_IRQHandler
                0x0000000008008420                RTC_IRQHandler
                0x0000000008008420                EXTI9_IRQHandler
                0x0000000008008420                UART5_IRQHandler
                0x0000000008008420                TIM4_IRQHandler
                0x0000000008008420                I2C1_EV_IRQHandler
                0x0000000008008420                GPDMA1_Channel12_IRQHandler
                0x0000000008008420                GPDMA1_Channel1_IRQHandler
                0x0000000008008420                TIM16_IRQHandler
                0x0000000008008420                GPDMA1_Channel15_IRQHandler
                0x0000000008008420                UART4_IRQHandler
                0x0000000008008420                SecureFault_Handler
                0x0000000008008420                TIM3_IRQHandler
                0x0000000008008420                RCC_IRQHandler
                0x0000000008008420                TIM1_TRG_COM_IRQHandler
                0x0000000008008420                Default_Handler
                0x0000000008008420                GPDMA1_Channel8_IRQHandler
                0x0000000008008420                FMAC_IRQHandler
                0x0000000008008420                GPDMA1_Channel11_IRQHandler
                0x0000000008008420                TIM7_IRQHandler
                0x0000000008008420                SDMMC1_IRQHandler
                0x0000000008008420                TIM5_IRQHandler
                0x0000000008008420                GPDMA1_Channel0_IRQHandler
                0x0000000008008420                TIM15_IRQHandler
                0x0000000008008420                I2C3_EV_IRQHandler
                0x0000000008008420                LPDMA1_Channel0_IRQHandler
                0x0000000008008420                PVD_PVM_IRQHandler
                0x0000000008008420                SPI2_IRQHandler
                0x0000000008008420                MemManage_Handler
                0x0000000008008420                LPDMA1_Channel1_IRQHandler
                0x0000000008008420                EXTI14_IRQHandler
                0x0000000008008420                EXTI11_IRQHandler
                0x0000000008008420                SVC_Handler
                0x0000000008008420                CRS_IRQHandler
                0x0000000008008420                GPDMA1_Channel14_IRQHandler
                0x0000000008008420                LSECSSD_IRQHandler
                0x0000000008008420                EXTI4_IRQHandler
                0x0000000008008420                RTC_S_IRQHandler
                0x0000000008008420                GPDMA1_Channel13_IRQHandler
                0x0000000008008420                RNG_IRQHandler
                0x0000000008008420                COMP_IRQHandler
                0x0000000008008420                TIM1_UP_IRQHandler
                0x0000000008008420                ADC4_IRQHandler
                0x0000000008008420                WWDG_IRQHandler
                0x0000000008008420                I2C4_EV_IRQHandler
                0x0000000008008420                ADF1_IRQHandler
                0x0000000008008420                IWDG_IRQHandler
                0x0000000008008420                MDF1_FLT0_IRQHandler
                0x0000000008008420                FDCAN1_IT0_IRQHandler
                0x0000000008008420                GPDMA1_Channel4_IRQHandler
                0x0000000008008420                EXTI7_IRQHandler
                0x0000000008008420                TIM1_BRK_IRQHandler
                0x0000000008008420                EXTI1_IRQHandler
                0x0000000008008420                DAC1_IRQHandler
                0x0000000008008420                GTZC_IRQHandler
                0x0000000008008420                I2C2_ER_IRQHandler
                0x0000000008008420                TIM8_BRK_IRQHandler
                0x0000000008008420                FLASH_IRQHandler
                0x0000000008008420                BusFault_Handler
                0x0000000008008420                USART1_IRQHandler
                0x0000000008008420                EXTI10_IRQHandler
                0x0000000008008420                SPI3_IRQHandler
                0x0000000008008420                LPDMA1_Channel2_IRQHandler
                0x0000000008008420                I2C1_ER_IRQHandler
                0x0000000008008420                EXTI6_IRQHandler
                0x0000000008008420                LPTIM1_IRQHandler
                0x0000000008008420                DCMI_PSSI_IRQHandler
                0x0000000008008420                I2C4_ER_IRQHandler
                0x0000000008008420                GPDMA1_Channel10_IRQHandler
                0x0000000008008420                ICACHE_IRQHandler
                0x0000000008008420                SAI1_IRQHandler
                0x0000000008008420                HASH_IRQHandler
 *(.glue_7)
 .glue_7        0x0000000008008422        0x0 linker stubs
 *(.glue_7t)
 .glue_7t       0x0000000008008422        0x0 linker stubs
 *(.eh_frame)
 *fill*         0x0000000008008422        0x2 
 .eh_frame      0x0000000008008424        0x0 /usr/lib/gcc/arm-none-eabi/10.3.1/thumb/v8-m.main+fp/hard/crtbegin.o
 *(.init)
 .init          0x0000000008008424        0x4 /usr/lib/gcc/arm-none-eabi/10.3.1/thumb/v8-m.main+fp/hard/crti.o
                0x0000000008008424                _init
 .init          0x0000000008008428        0x8 /usr/lib/gcc/arm-none-eabi/10.3.1/thumb/v8-m.main+fp/hard/crtn.o
 *(.fini)
 .fini          0x0000000008008430        0x4 /usr/lib/gcc/arm-none-eabi/10.3.1/thumb/v8-m.main+fp/hard/crti.o
                0x0000000008008430                _fini
 .fini          0x0000000008008434        0x8 /usr/lib/gcc/arm-none-eabi/10.3.1/thumb/v8-m.main+fp/hard/crtn.o
                0x000000000800843c                _etext = .

.vfp11_veneer   0x000000000800843c        0x0
 .vfp11_veneer  0x000000000800843c        0x0 linker stubs

.v4_bx          0x000000000800843c        0x0
 .v4_bx         0x000000000800843c        0x0 linker stubs

.iplt           0x000000000800843c        0x0
 .iplt          0x000000000800843c        0x0 /usr/lib/gcc/arm-none-eabi/10.3.1/thumb/v8-m.main+fp/hard/crtbegin.o

.rodata         0x000000000800843c      0x509
 *(.rodata)
 .rodata        0x000000000800843c       0x60 /usr/lib/gcc/arm-none-eabi/10.3.1/../../../arm-none-eabi/lib/thumb/v8-m.main+fp/hard/libc_nano.a(lib_a-findfp.o)
                0x000000000800843c                __sf_fake_stderr
                0x000000000800845c                __sf_fake_stdout
                0x000000000800847c                __sf_fake_stdin
 .rodata        0x000000000800849c        0x4 /usr/lib/gcc/arm-none-eabi/10.3.1/../../../arm-none-eabi/lib/thumb/v8-m.main+fp/hard/libc_nano.a(lib_a-impure.o)
                0x000000000800849c                _global_impure_ptr
 *(.rodata*)
 .rodata._parse_hex.str1.1
                0x00000000080084a0        0x5 build/main.o
                                          0x7 (size before relaxing)
 .rodata.main.str1.1
                0x00000000080084a5       0x58 build/main.o
                                         0x5b (size before relaxing)
 .rodata._cmd_help.str1.1
                0x00000000080084fd       0x7b build/cmd.o
 .rodata._cmd_error.str1.1
                0x0000000008008578        0xc build/cmd.o
 .rodata._cmd_reset.str1.1
                0x0000000008008584        0x7 build/cmd.o
 .rodata._cmd_pwr_set.str1.1
                0x000000000800858b       0x12 build/cmd.o
 .rodata._cmd_basic_reply.isra.0.str1.1
                0x000000000800859d        0x5 build/cmd.o
 .rodata._cmd_clkdiv.str1.1
                0x00000000080085a2        0x6 build/cmd.o
 .rodata._cmd_cs.str1.1
                0x00000000080085a8        0x5 build/cmd.o
 .rodata._cmd_sn.str1.1
                0x00000000080085ad        0x3 build/cmd.o
                                          0x5 (size before relaxing)
 .rodata._cmd_auto.str1.1
                0x00000000080085b0       0x13 build/cmd.o
 .rodata._cmd_gpo.str1.1
                0x00000000080085c3        0x5 build/cmd.o
 .rodata._cmd_ver.str1.1
                0x00000000080085c8       0x3d build/cmd.o
 .rodata._cmd_button.str1.1
                0x0000000008008605        0x3 build/cmd.o
 .rodata._cmd_id.str1.1
                0x0000000008008608       0x1c build/cmd.o
 .rodata.cmd_parse.str1.1
                0x0000000008008624       0x38 build/cmd.o
 .rodata.str1.1
                0x000000000800865c      0x12a build/cmd.o
 *fill*         0x0000000008008786        0x2 
 .rodata._CMD_TABLE
                0x0000000008008788       0xc0 build/cmd.o
 .rodata._usb_rx_handler.str1.1
                0x0000000008008848       0x1b build/tty.o
 *fill*         0x0000000008008863        0x1 
 .rodata.gpio_ll_map
                0x0000000008008864       0x40 build/gpio.o
                0x0000000008008864                gpio_ll_map
 .rodata.ux_device_cdc_acm_activate.str1.1
                0x00000000080088a4       0x13 build/ux_device_cdc_acm.o
                                         0x15 (size before relaxing)
 .rodata.ux_device_sn_text.str1.1
                0x00000000080088b7        0xb build/ux_device_descriptors.o
 .rodata.USBD_Get_String_Framework.str1.1
                0x00000000080088c2       0x1b build/ux_device_descriptors.o
 .rodata.usb_device_init.str1.1
                0x00000000080088dd       0x2f build/usb_device.o
                                         0x31 (size before relaxing)
 .rodata.str1.4
                0x000000000800890c       0x13 /usr/lib/gcc/arm-none-eabi/10.3.1/../../../arm-none-eabi/lib/thumb/v8-m.main+fp/hard/libc_nano.a(lib_a-nano-svfprintf.o)
 .rodata.str1.4
                0x000000000800891f       0x13 /usr/lib/gcc/arm-none-eabi/10.3.1/../../../arm-none-eabi/lib/thumb/v8-m.main+fp/hard/libc_nano.a(lib_a-nano-vfprintf.o)
 *fill*         0x000000000800891f        0x1 
 .rodata.str1.4
                0x0000000008008920       0x25 /usr/lib/gcc/arm-none-eabi/10.3.1/../../../arm-none-eabi/lib/thumb/v8-m.main+fp/hard/libc_nano.a(lib_a-nano-vfprintf_i.o)

.ARM.extab
 *(.ARM.extab* .gnu.linkonce.armextab.*)

.ARM            0x0000000008008945        0x0
                0x0000000008008945                __exidx_start = .
 *(.ARM.exidx*)
                0x0000000008008945                __exidx_end = .

.preinit_array  0x0000000008008945        0x0
                0x0000000008008945                PROVIDE (__preinit_array_start = .)
 *(.preinit_array*)
                0x0000000008008945                PROVIDE (__preinit_array_end = .)

.init_array     0x0000000008008948        0x4
                0x0000000008008948                PROVIDE (__init_array_start = .)
 *(SORT_BY_NAME(.init_array.*))
 *(.init_array*)
 .init_array    0x0000000008008948        0x4 /usr/lib/gcc/arm-none-eabi/10.3.1/thumb/v8-m.main+fp/hard/crtbegin.o
                0x000000000800894c                PROVIDE (__init_array_end = .)

.fini_array     0x000000000800894c        0x4
                0x000000000800894c                PROVIDE (__fini_array_start = .)
 *(SORT_BY_NAME(.fini_array.*))
 *(.fini_array*)
 .fini_array    0x000000000800894c        0x4 /usr/lib/gcc/arm-none-eabi/10.3.1/thumb/v8-m.main+fp/hard/crtbegin.o
                0x0000000008008950                PROVIDE (__fini_array_end = .)
                0x0000000008008950                _sidata = LOADADDR (.data)

.rel.dyn        0x0000000008008950        0x0
 .rel.iplt      0x0000000008008950        0x0 /usr/lib/gcc/arm-none-eabi/10.3.1/thumb/v8-m.main+fp/hard/crtbegin.o

.data           0x0000000020000000       0xb5 load address 0x0000000008008950
                0x0000000020000000                _sdata = .
 *(.data)
 .data          0x0000000020000000       0x64 /usr/lib/gcc/arm-none-eabi/10.3.1/../../../arm-none-eabi/lib/thumb/v8-m.main+fp/hard/libc_nano.a(lib_a-impure.o)
                0x0000000020000000                _impure_ptr
 *(.data*)
 .data.SystemCoreClock
                0x0000000020000064        0x4 build/system_stm32u5xx.o
                0x0000000020000064                SystemCoreClock
 .data._ux_system_bos_descriptor_structure
                0x0000000020000068        0x4 build/ux_system_initialize.o
                0x0000000020000068                _ux_system_bos_descriptor_structure
 .data._ux_system_configuration_descriptor_structure
                0x000000002000006c        0x8 build/ux_system_initialize.o
                0x000000002000006c                _ux_system_configuration_descriptor_structure
 .data._ux_system_device_descriptor_structure
                0x0000000020000074        0xe build/ux_system_initialize.o
                0x0000000020000074                _ux_system_device_descriptor_structure
 .data._ux_system_endpoint_descriptor_structure
                0x0000000020000082        0x6 build/ux_system_initialize.o
                0x0000000020000082                _ux_system_endpoint_descriptor_structure
 .data._ux_system_interface_descriptor_structure
                0x0000000020000088        0x9 build/ux_system_initialize.o
                0x0000000020000088                _ux_system_interface_descriptor_structure
 .data._ux_system_slave_class_cdc_acm_name
                0x0000000020000091       0x17 build/ux_device_stack_initialize.o
                0x0000000020000091                _ux_system_slave_class_cdc_acm_name
 .data._pwr_state
                0x00000000200000a8        0x1 build/cmd.o
 .data._wd_clr_enable
                0x00000000200000a9        0x1 build/wd.o
 .data.UserClassInstance
                0x00000000200000aa        0xb build/ux_device_descriptors.o
                0x00000000200000aa                UserClassInstance
 *(.RamFunc)
 *(.RamFunc*)
                0x00000000200000b5                _edata = .

.tm_clone_table
                0x00000000200000b8        0x0 load address 0x0000000008008a05
 .tm_clone_table
                0x00000000200000b8        0x0 /usr/lib/gcc/arm-none-eabi/10.3.1/thumb/v8-m.main+fp/hard/crtbegin.o
 .tm_clone_table
                0x00000000200000b8        0x0 /usr/lib/gcc/arm-none-eabi/10.3.1/thumb/v8-m.main+fp/hard/crtend.o

.igot.plt       0x00000000200000b8        0x0 load address 0x0000000008008a05
 .igot.plt      0x00000000200000b8        0x0 /usr/lib/gcc/arm-none-eabi/10.3.1/thumb/v8-m.main+fp/hard/crtbegin.o

.bss            0x00000000200000b8     0x4098 load address 0x0000000008008a05
                0x00000000200000b8                _sbss = .
                0x00000000200000b8                __bss_start__ = _sbss
 *(.bss)
 .bss           0x00000000200000b8       0x1c /usr/lib/gcc/arm-none-eabi/10.3.1/thumb/v8-m.main+fp/hard/crtbegin.o
 .bss           0x00000000200000d4        0x8 /usr/lib/gcc/arm-none-eabi/10.3.1/../../../arm-none-eabi/lib/thumb/v8-m.main+fp/hard/libc_nano.a(lib_a-nano-mallocr.o)
                0x00000000200000d4                __malloc_free_list
                0x00000000200000d8                __malloc_sbrk_start
 .bss           0x00000000200000dc        0x4 /usr/lib/gcc/arm-none-eabi/10.3.1/../../../arm-none-eabi/lib/thumb/v8-m.main+fp/hard/libc_nano.a(lib_a-reent.o)
                0x00000000200000dc                errno
 .bss           0x00000000200000e0        0x4 /usr/lib/gcc/arm-none-eabi/10.3.1/../../../arm-none-eabi/lib/thumb/v8-m.main+fp/hard/libnosys.a(sbrk.o)
 *(.bss*)
 .bss._ux_system
                0x00000000200000e4        0x4 build/ux_system_initialize.o
                0x00000000200000e4                _ux_system
 .bss._ux_system_slave
                0x00000000200000e8        0x4 build/ux_device_stack_initialize.o
                0x00000000200000e8                _ux_system_slave
 .bss._spi_cs_active
                0x00000000200000ec        0x1 build/main.o
 *fill*         0x00000000200000ed        0x3 
 .bss.led1      0x00000000200000f0       0x14 build/main.o
 .bss.main_spi_auto
                0x0000000020000104        0x1 build/main.o
                0x0000000020000104                main_spi_auto
 .bss.main_spi_get_resp
                0x0000000020000105        0x1 build/main.o
                0x0000000020000105                main_spi_get_resp
 .bss.main_spi_no_resp
                0x0000000020000106        0x1 build/main.o
                0x0000000020000106                main_spi_no_resp
 .bss.prev_state.0
                0x0000000020000107        0x1 build/main.o
 .bss.reset_type
                0x0000000020000108        0x1 build/main.o
 *fill*         0x0000000020000109        0x3 
 .bss._rx_callback
                0x000000002000010c        0x4 build/tty.o
                0x000000002000010c                _rx_callback
 .bss._usb_stream_buffer
                0x0000000020000110     0x1000 build/tty.o
 .bss._usb_stream_rd_ptr
                0x0000000020001110        0x4 build/tty.o
 .bss._usb_stream_wr_ptr
                0x0000000020001114        0x4 build/tty.o
 .bss.usb_rx_buf.1
                0x0000000020001118      0x404 build/tty.o
 .bss.Node_rx   0x000000002000151c       0x24 build/dma.o
 .bss.Node_tx   0x0000000020001540       0x24 build/dma.o
 .bss.Queue_rx  0x0000000020001564       0x18 build/dma.o
 .bss.Queue_tx  0x000000002000157c       0x18 build/dma.o
 .bss.handle_GPDMA1_Channel6
                0x0000000020001594       0x78 build/dma.o
 .bss.handle_GPDMA1_Channel7
                0x000000002000160c       0x78 build/dma.o
 *fill*         0x0000000020001684        0x4 
 .bss.timer_ms  0x0000000020001688        0x8 build/time.o
 .bss.u1        0x0000000020001690       0x30 build/uart.o
 .bss._spi1_cs_state
                0x00000000200016c0        0x1 build/spi.o
 .bss._spi_transfer_done
                0x00000000200016c1        0x1 build/spi.o
 *fill*         0x00000000200016c2        0x2 
 .bss.hspi1     0x00000000200016c4       0x90 build/spi.o
                0x00000000200016c4                hspi1
 .bss.CDC_VCP_LineCoding
                0x0000000020001754        0x8 build/ux_device_cdc_acm.o
                0x0000000020001754                CDC_VCP_LineCoding
 .bss._rx_handler
                0x000000002000175c        0x4 build/ux_device_cdc_acm.o
 .bss.acm_rx_buffer
                0x0000000020001760      0x200 build/ux_device_cdc_acm.o
 .bss.cdc_acm   0x0000000020001960        0x4 build/ux_device_cdc_acm.o
                0x0000000020001960                cdc_acm
 .bss.DevFrameWorkDesc_FS
                0x0000000020001964       0xc8 build/ux_device_descriptors.o
 .bss.DevFrameWorkDesc_HS
                0x0000000020001a2c       0xc8 build/ux_device_descriptors.o
 .bss.USBD_Device_FS
                0x0000000020001af4      0x128 build/ux_device_descriptors.o
                0x0000000020001af4                USBD_Device_FS
 .bss.USBD_Device_HS
                0x0000000020001c1c      0x128 build/ux_device_descriptors.o
                0x0000000020001c1c                USBD_Device_HS
 .bss.USBD_language_id_framework
                0x0000000020001d44        0x2 build/ux_device_descriptors.o
                0x0000000020001d44                USBD_language_id_framework
 *fill*         0x0000000020001d46        0x2 
 .bss.USBD_string_framework
                0x0000000020001d48      0x100 build/ux_device_descriptors.o
                0x0000000020001d48                USBD_string_framework
 .bss.buf.9     0x0000000020001e48       0x10 build/ux_device_descriptors.o
 .bss.pDevDesc.8
                0x0000000020001e58        0x4 build/ux_device_descriptors.o
 .bss.cdc_acm_configuration_number
                0x0000000020001e5c        0x4 build/usb_device.o
 .bss.cdc_acm_parameter
                0x0000000020001e60        0xc build/usb_device.o
 .bss.hpcd_usb_drd_fs
                0x0000000020001e6c      0x2e4 build/usb_device.o
                0x0000000020001e6c                hpcd_usb_drd_fs
 .bss.usb_mem_pool_buffer
                0x0000000020002150     0x2000 build/usb_device.o
 *(COMMON)
                0x0000000020004150                _ebss = .
                0x0000000020004150                __bss_end__ = _ebss

._user_heap_stack
                0x0000000020004150      0x600 load address 0x0000000008008a05
                0x0000000020004150                . = ALIGN (0x8)
                0x0000000020004150                PROVIDE (end = .)
                [!provide]                        PROVIDE (_end = .)
                0x0000000020004350                . = (. + _Min_Heap_Size)
 *fill*         0x0000000020004150      0x200 
                0x0000000020004750                . = (. + _Min_Stack_Size)
 *fill*         0x0000000020004350      0x400 
                0x0000000020004750                . = ALIGN (0x8)

/DISCARD/
 libc.a(*)
 libm.a(*)
 libgcc.a(*)

.ARM.attributes
                0x0000000000000000       0x36
 *(.ARM.attributes)
 .ARM.attributes
                0x0000000000000000       0x22 /usr/lib/gcc/arm-none-eabi/10.3.1/thumb/v8-m.main+fp/hard/crti.o
 .ARM.attributes
                0x0000000000000022       0x38 /usr/lib/gcc/arm-none-eabi/10.3.1/thumb/v8-m.main+fp/hard/crtbegin.o
 .ARM.attributes
                0x000000000000005a       0x3a build/system_stm32u5xx.o
 .ARM.attributes
                0x0000000000000094       0x3a build/stm32u5xx_ll_gpio.o
 .ARM.attributes
                0x00000000000000ce       0x3a build/stm32u5xx_ll_usb.o
 .ARM.attributes
                0x0000000000000108       0x3a build/stm32u5xx_ll_utils.o
 .ARM.attributes
                0x0000000000000142       0x3a build/stm32u5xx_hal_dma.o
 .ARM.attributes
                0x000000000000017c       0x3a build/stm32u5xx_hal_dma_ex.o
 .ARM.attributes
                0x00000000000001b6       0x3a build/stm32u5xx_hal_pcd.o
 .ARM.attributes
                0x00000000000001f0       0x3a build/stm32u5xx_hal_pcd_ex.o
 .ARM.attributes
                0x000000000000022a       0x3a build/stm32u5xx_hal_spi.o
 .ARM.attributes
                0x0000000000000264       0x3a build/stm32u5xx_hal_spi_ex.o
 .ARM.attributes
                0x000000000000029e       0x3a build/ux_dcd_stm32_callback.o
 .ARM.attributes
                0x00000000000002d8       0x3a build/ux_dcd_stm32_endpoint_create.o
 .ARM.attributes
                0x0000000000000312       0x3a build/ux_dcd_stm32_endpoint_destroy.o
 .ARM.attributes
                0x000000000000034c       0x3a build/ux_dcd_stm32_endpoint_reset.o
 .ARM.attributes
                0x0000000000000386       0x3a build/ux_dcd_stm32_endpoint_stall.o
 .ARM.attributes
                0x00000000000003c0       0x3a build/ux_dcd_stm32_endpoint_status.o
 .ARM.attributes
                0x00000000000003fa       0x3a build/ux_dcd_stm32_frame_number_get.o
 .ARM.attributes
                0x0000000000000434       0x3a build/ux_dcd_stm32_function.o
 .ARM.attributes
                0x000000000000046e       0x3a build/ux_dcd_stm32_initialize.o
 .ARM.attributes
                0x00000000000004a8       0x3a build/ux_dcd_stm32_initialize_complete.o
 .ARM.attributes
                0x00000000000004e2       0x3a build/ux_dcd_stm32_transfer_run.o
 .ARM.attributes
                0x000000000000051c       0x3a build/ux_dcd_stm32_transfer_abort.o
 .ARM.attributes
                0x0000000000000556       0x3a build/ux_utility_descriptor_parse.o
 .ARM.attributes
                0x0000000000000590       0x3a build/ux_utility_long_get.o
 .ARM.attributes
                0x00000000000005ca       0x3a build/ux_utility_long_put.o
 .ARM.attributes
                0x0000000000000604       0x3a build/ux_utility_memory_allocate.o
 .ARM.attributes
                0x000000000000063e       0x3a build/ux_utility_memory_allocate_mulc_safe.o
 .ARM.attributes
                0x0000000000000678       0x3a build/ux_utility_memory_copy.o
 .ARM.attributes
                0x00000000000006b2       0x3a build/ux_utility_memory_free.o
 .ARM.attributes
                0x00000000000006ec       0x3a build/ux_utility_memory_byte_pool_create.o
 .ARM.attributes
                0x0000000000000726       0x3a build/ux_utility_memory_byte_pool_search.o
 .ARM.attributes
                0x0000000000000760       0x3a build/ux_utility_memory_set.o
 .ARM.attributes
                0x000000000000079a       0x3a build/ux_utility_short_get.o
 .ARM.attributes
                0x00000000000007d4       0x3a build/ux_utility_string_length_check.o
 .ARM.attributes
                0x000000000000080e       0x3a build/ux_system_error_handler.o
 .ARM.attributes
                0x0000000000000848       0x3a build/ux_system_initialize.o
 .ARM.attributes
                0x0000000000000882       0x3a build/ux_device_stack_alternate_setting_get.o
 .ARM.attributes
                0x00000000000008bc       0x3a build/ux_device_stack_alternate_setting_set.o
 .ARM.attributes
                0x00000000000008f6       0x3a build/ux_device_stack_class_register.o
 .ARM.attributes
                0x0000000000000930       0x3a build/ux_device_stack_clear_feature.o
 .ARM.attributes
                0x000000000000096a       0x3a build/ux_device_stack_configuration_get.o
 .ARM.attributes
                0x00000000000009a4       0x3a build/ux_device_stack_configuration_set.o
 .ARM.attributes
                0x00000000000009de       0x3a build/ux_device_stack_control_request_process.o
 .ARM.attributes
                0x0000000000000a18       0x3a build/ux_device_stack_descriptor_send.o
 .ARM.attributes
                0x0000000000000a52       0x3a build/ux_device_stack_disconnect.o
 .ARM.attributes
                0x0000000000000a8c       0x3a build/ux_device_stack_endpoint_stall.o
 .ARM.attributes
                0x0000000000000ac6       0x3a build/ux_device_stack_get_status.o
 .ARM.attributes
                0x0000000000000b00       0x3a build/ux_device_stack_initialize.o
 .ARM.attributes
                0x0000000000000b3a       0x3a build/ux_device_stack_interface_delete.o
 .ARM.attributes
                0x0000000000000b74       0x3a build/ux_device_stack_interface_set.o
 .ARM.attributes
                0x0000000000000bae       0x3a build/ux_device_stack_interface_start.o
 .ARM.attributes
                0x0000000000000be8       0x3a build/ux_device_stack_set_feature.o
 .ARM.attributes
                0x0000000000000c22       0x3a build/ux_device_stack_transfer_abort.o
 .ARM.attributes
                0x0000000000000c5c       0x3a build/ux_device_stack_transfer_all_request_abort.o
 .ARM.attributes
                0x0000000000000c96       0x3a build/ux_device_stack_transfer_request.o
 .ARM.attributes
                0x0000000000000cd0       0x3a build/ux_device_stack_tasks_run.o
 .ARM.attributes
                0x0000000000000d0a       0x3a build/ux_device_stack_transfer_run.o
 .ARM.attributes
                0x0000000000000d44       0x3a build/ux_device_class_cdc_acm_activate.o
 .ARM.attributes
                0x0000000000000d7e       0x3a build/ux_device_class_cdc_acm_control_request.o
 .ARM.attributes
                0x0000000000000db8       0x3a build/ux_device_class_cdc_acm_deactivate.o
 .ARM.attributes
                0x0000000000000df2       0x3a build/ux_device_class_cdc_acm_entry.o
 .ARM.attributes
                0x0000000000000e2c       0x3a build/ux_device_class_cdc_acm_initialize.o
 .ARM.attributes
                0x0000000000000e66       0x3a build/ux_device_class_cdc_acm_ioctl.o
 .ARM.attributes
                0x0000000000000ea0       0x3a build/ux_device_class_cdc_acm_unitialize.o
 .ARM.attributes
                0x0000000000000eda       0x3a build/ux_device_class_cdc_acm_read_run.o
 .ARM.attributes
                0x0000000000000f14       0x3a build/ux_device_class_cdc_acm_write_run.o
 .ARM.attributes
                0x0000000000000f4e       0x3a build/main.o
 .ARM.attributes
                0x0000000000000f88       0x3a build/cmd.o
 .ARM.attributes
                0x0000000000000fc2       0x3a build/tty.o
 .ARM.attributes
                0x0000000000000ffc       0x3a build/led.o
 .ARM.attributes
                0x0000000000001036       0x3a build/dma.o
 .ARM.attributes
                0x0000000000001070       0x3a build/gpio.o
 .ARM.attributes
                0x00000000000010aa       0x3a build/irq.o
 .ARM.attributes
                0x00000000000010e4       0x3a build/reset.o
 .ARM.attributes
                0x000000000000111e       0x3a build/time.o
 .ARM.attributes
                0x0000000000001158       0x3a build/uart.o
 .ARM.attributes
                0x0000000000001192       0x3a build/sys.o
 .ARM.attributes
                0x00000000000011cc       0x3a build/wd.o
 .ARM.attributes
                0x0000000000001206       0x3a build/spi.o
 .ARM.attributes
                0x0000000000001240       0x3a build/util.o
 .ARM.attributes
                0x000000000000127a       0x3a build/ux_device_cdc_acm.o
 .ARM.attributes
                0x00000000000012b4       0x3a build/ux_device_descriptors.o
 .ARM.attributes
                0x00000000000012ee       0x3a build/usb_device.o
 .ARM.attributes
                0x0000000000001328       0x24 build/startup_stm32u535xx.o
 .ARM.attributes
                0x000000000000134c       0x38 /usr/lib/gcc/arm-none-eabi/10.3.1/../../../arm-none-eabi/lib/thumb/v8-m.main+fp/hard/libc_nano.a(lib_a-fflush.o)
 .ARM.attributes
                0x0000000000001384       0x38 /usr/lib/gcc/arm-none-eabi/10.3.1/../../../arm-none-eabi/lib/thumb/v8-m.main+fp/hard/libc_nano.a(lib_a-findfp.o)
 .ARM.attributes
                0x00000000000013bc       0x38 /usr/lib/gcc/arm-none-eabi/10.3.1/../../../arm-none-eabi/lib/thumb/v8-m.main+fp/hard/libc_nano.a(lib_a-fwalk.o)
 .ARM.attributes
                0x00000000000013f4       0x36 /usr/lib/gcc/arm-none-eabi/10.3.1/../../../arm-none-eabi/lib/thumb/v8-m.main+fp/hard/libc_nano.a(lib_a-impure.o)
 .ARM.attributes
                0x000000000000142a       0x38 /usr/lib/gcc/arm-none-eabi/10.3.1/../../../arm-none-eabi/lib/thumb/v8-m.main+fp/hard/libc_nano.a(lib_a-init.o)
 .ARM.attributes
                0x0000000000001462       0x38 /usr/lib/gcc/arm-none-eabi/10.3.1/../../../arm-none-eabi/lib/thumb/v8-m.main+fp/hard/libc_nano.a(lib_a-memmove.o)
 .ARM.attributes
                0x000000000000149a       0x38 /usr/lib/gcc/arm-none-eabi/10.3.1/../../../arm-none-eabi/lib/thumb/v8-m.main+fp/hard/libc_nano.a(lib_a-memset.o)
 .ARM.attributes
                0x00000000000014d2       0x38 /usr/lib/gcc/arm-none-eabi/10.3.1/../../../arm-none-eabi/lib/thumb/v8-m.main+fp/hard/libc_nano.a(lib_a-nano-freer.o)
 .ARM.attributes
                0x000000000000150a       0x38 /usr/lib/gcc/arm-none-eabi/10.3.1/../../../arm-none-eabi/lib/thumb/v8-m.main+fp/hard/libc_nano.a(lib_a-nano-mallocr.o)
 .ARM.attributes
                0x0000000000001542       0x38 /usr/lib/gcc/arm-none-eabi/10.3.1/../../../arm-none-eabi/lib/thumb/v8-m.main+fp/hard/libc_nano.a(lib_a-printf.o)
 .ARM.attributes
                0x000000000000157a       0x38 /usr/lib/gcc/arm-none-eabi/10.3.1/../../../arm-none-eabi/lib/thumb/v8-m.main+fp/hard/libc_nano.a(lib_a-puts.o)
 .ARM.attributes
                0x00000000000015b2       0x38 /usr/lib/gcc/arm-none-eabi/10.3.1/../../../arm-none-eabi/lib/thumb/v8-m.main+fp/hard/libc_nano.a(lib_a-sbrkr.o)
 .ARM.attributes
                0x00000000000015ea       0x38 /usr/lib/gcc/arm-none-eabi/10.3.1/../../../arm-none-eabi/lib/thumb/v8-m.main+fp/hard/libc_nano.a(lib_a-snprintf.o)
 .ARM.attributes
                0x0000000000001622       0x38 /usr/lib/gcc/arm-none-eabi/10.3.1/../../../arm-none-eabi/lib/thumb/v8-m.main+fp/hard/libc_nano.a(lib_a-stdio.o)
 .ARM.attributes
                0x000000000000165a       0x38 /usr/lib/gcc/arm-none-eabi/10.3.1/../../../arm-none-eabi/lib/thumb/v8-m.main+fp/hard/libc_nano.a(lib_a-strlen-stub.o)
 .ARM.attributes
                0x0000000000001692       0x38 /usr/lib/gcc/arm-none-eabi/10.3.1/../../../arm-none-eabi/lib/thumb/v8-m.main+fp/hard/libc_nano.a(lib_a-wbuf.o)
 .ARM.attributes
                0x00000000000016ca       0x38 /usr/lib/gcc/arm-none-eabi/10.3.1/../../../arm-none-eabi/lib/thumb/v8-m.main+fp/hard/libc_nano.a(lib_a-writer.o)
 .ARM.attributes
                0x0000000000001702       0x38 /usr/lib/gcc/arm-none-eabi/10.3.1/../../../arm-none-eabi/lib/thumb/v8-m.main+fp/hard/libc_nano.a(lib_a-wsetup.o)
 .ARM.attributes
                0x000000000000173a       0x38 /usr/lib/gcc/arm-none-eabi/10.3.1/../../../arm-none-eabi/lib/thumb/v8-m.main+fp/hard/libc_nano.a(lib_a-closer.o)
 .ARM.attributes
                0x0000000000001772       0x38 /usr/lib/gcc/arm-none-eabi/10.3.1/../../../arm-none-eabi/lib/thumb/v8-m.main+fp/hard/libc_nano.a(lib_a-lseekr.o)
 .ARM.attributes
                0x00000000000017aa       0x38 /usr/lib/gcc/arm-none-eabi/10.3.1/../../../arm-none-eabi/lib/thumb/v8-m.main+fp/hard/libc_nano.a(lib_a-makebuf.o)
 .ARM.attributes
                0x00000000000017e2       0x38 /usr/lib/gcc/arm-none-eabi/10.3.1/../../../arm-none-eabi/lib/thumb/v8-m.main+fp/hard/libc_nano.a(lib_a-mlock.o)
 .ARM.attributes
                0x000000000000181a       0x38 /usr/lib/gcc/arm-none-eabi/10.3.1/../../../arm-none-eabi/lib/thumb/v8-m.main+fp/hard/libc_nano.a(lib_a-nano-svfprintf.o)
 .ARM.attributes
                0x0000000000001852       0x38 /usr/lib/gcc/arm-none-eabi/10.3.1/../../../arm-none-eabi/lib/thumb/v8-m.main+fp/hard/libc_nano.a(lib_a-nano-vfprintf.o)
 .ARM.attributes
                0x000000000000188a       0x38 /usr/lib/gcc/arm-none-eabi/10.3.1/../../../arm-none-eabi/lib/thumb/v8-m.main+fp/hard/libc_nano.a(lib_a-nano-vfprintf_i.o)
 .ARM.attributes
                0x00000000000018c2       0x38 /usr/lib/gcc/arm-none-eabi/10.3.1/../../../arm-none-eabi/lib/thumb/v8-m.main+fp/hard/libc_nano.a(lib_a-readr.o)
 .ARM.attributes
                0x00000000000018fa       0x38 /usr/lib/gcc/arm-none-eabi/10.3.1/../../../arm-none-eabi/lib/thumb/v8-m.main+fp/hard/libc_nano.a(lib_a-reent.o)
 .ARM.attributes
                0x0000000000001932       0x38 /usr/lib/gcc/arm-none-eabi/10.3.1/../../../arm-none-eabi/lib/thumb/v8-m.main+fp/hard/libc_nano.a(lib_a-fstatr.o)
 .ARM.attributes
                0x000000000000196a       0x38 /usr/lib/gcc/arm-none-eabi/10.3.1/../../../arm-none-eabi/lib/thumb/v8-m.main+fp/hard/libc_nano.a(lib_a-fvwrite.o)
 .ARM.attributes
                0x00000000000019a2       0x38 /usr/lib/gcc/arm-none-eabi/10.3.1/../../../arm-none-eabi/lib/thumb/v8-m.main+fp/hard/libc_nano.a(lib_a-isattyr.o)
 .ARM.attributes
                0x00000000000019da       0x38 /usr/lib/gcc/arm-none-eabi/10.3.1/../../../arm-none-eabi/lib/thumb/v8-m.main+fp/hard/libc_nano.a(lib_a-memchr-stub.o)
 .ARM.attributes
                0x0000000000001a12       0x20 /usr/lib/gcc/arm-none-eabi/10.3.1/../../../arm-none-eabi/lib/thumb/v8-m.main+fp/hard/libc_nano.a(lib_a-memcpy.o)
 .ARM.attributes
                0x0000000000001a32       0x38 /usr/lib/gcc/arm-none-eabi/10.3.1/../../../arm-none-eabi/lib/thumb/v8-m.main+fp/hard/libc_nano.a(lib_a-nano-reallocr.o)
 .ARM.attributes
                0x0000000000001a6a       0x38 /usr/lib/gcc/arm-none-eabi/10.3.1/../../../arm-none-eabi/lib/thumb/v8-m.main+fp/hard/libc_nano.a(lib_a-nano-msizer.o)
 .ARM.attributes
                0x0000000000001aa2       0x38 /usr/lib/gcc/arm-none-eabi/10.3.1/../../../arm-none-eabi/lib/thumb/v8-m.main+fp/hard/libnosys.a(close.o)
 .ARM.attributes
                0x0000000000001ada       0x38 /usr/lib/gcc/arm-none-eabi/10.3.1/../../../arm-none-eabi/lib/thumb/v8-m.main+fp/hard/libnosys.a(fstat.o)
 .ARM.attributes
                0x0000000000001b12       0x38 /usr/lib/gcc/arm-none-eabi/10.3.1/../../../arm-none-eabi/lib/thumb/v8-m.main+fp/hard/libnosys.a(isatty.o)
 .ARM.attributes
                0x0000000000001b4a       0x38 /usr/lib/gcc/arm-none-eabi/10.3.1/../../../arm-none-eabi/lib/thumb/v8-m.main+fp/hard/libnosys.a(lseek.o)
 .ARM.attributes
                0x0000000000001b82       0x38 /usr/lib/gcc/arm-none-eabi/10.3.1/../../../arm-none-eabi/lib/thumb/v8-m.main+fp/hard/libnosys.a(sbrk.o)
 .ARM.attributes
                0x0000000000001bba       0x36 /usr/lib/gcc/arm-none-eabi/10.3.1/thumb/v8-m.main+fp/hard/crtend.o
 .ARM.attributes
                0x0000000000001bf0       0x22 /usr/lib/gcc/arm-none-eabi/10.3.1/thumb/v8-m.main+fp/hard/crtn.o
OUTPUT(build/app.elf elf32-littlearm)
LOAD linker stubs
LOAD /usr/lib/gcc/arm-none-eabi/10.3.1/../../../arm-none-eabi/lib/thumb/v8-m.main+fp/hard/libc.a
LOAD /usr/lib/gcc/arm-none-eabi/10.3.1/../../../arm-none-eabi/lib/thumb/v8-m.main+fp/hard/libm.a
LOAD /usr/lib/gcc/arm-none-eabi/10.3.1/thumb/v8-m.main+fp/hard/libgcc.a

.comment        0x0000000000000000       0x33
 .comment       0x0000000000000000       0x33 /usr/lib/gcc/arm-none-eabi/10.3.1/thumb/v8-m.main+fp/hard/crtbegin.o
                                         0x34 (size before relaxing)
 .comment       0x0000000000000033       0x34 build/system_stm32u5xx.o
 .comment       0x0000000000000033       0x34 build/stm32u5xx_ll_gpio.o
 .comment       0x0000000000000033       0x34 build/stm32u5xx_ll_usb.o
 .comment       0x0000000000000033       0x34 build/stm32u5xx_ll_utils.o
 .comment       0x0000000000000033       0x34 build/stm32u5xx_hal_dma.o
 .comment       0x0000000000000033       0x34 build/stm32u5xx_hal_dma_ex.o
 .comment       0x0000000000000033       0x34 build/stm32u5xx_hal_pcd.o
 .comment       0x0000000000000033       0x34 build/stm32u5xx_hal_pcd_ex.o
 .comment       0x0000000000000033       0x34 build/stm32u5xx_hal_spi.o
 .comment       0x0000000000000033       0x34 build/stm32u5xx_hal_spi_ex.o
 .comment       0x0000000000000033       0x34 build/ux_dcd_stm32_callback.o
 .comment       0x0000000000000033       0x34 build/ux_dcd_stm32_endpoint_create.o
 .comment       0x0000000000000033       0x34 build/ux_dcd_stm32_endpoint_destroy.o
 .comment       0x0000000000000033       0x34 build/ux_dcd_stm32_endpoint_reset.o
 .comment       0x0000000000000033       0x34 build/ux_dcd_stm32_endpoint_stall.o
 .comment       0x0000000000000033       0x34 build/ux_dcd_stm32_endpoint_status.o
 .comment       0x0000000000000033       0x34 build/ux_dcd_stm32_frame_number_get.o
 .comment       0x0000000000000033       0x34 build/ux_dcd_stm32_function.o
 .comment       0x0000000000000033       0x34 build/ux_dcd_stm32_initialize.o
 .comment       0x0000000000000033       0x34 build/ux_dcd_stm32_initialize_complete.o
 .comment       0x0000000000000033       0x34 build/ux_dcd_stm32_transfer_run.o
 .comment       0x0000000000000033       0x34 build/ux_dcd_stm32_transfer_abort.o
 .comment       0x0000000000000033       0x34 build/ux_utility_descriptor_parse.o
 .comment       0x0000000000000033       0x34 build/ux_utility_long_get.o
 .comment       0x0000000000000033       0x34 build/ux_utility_long_put.o
 .comment       0x0000000000000033       0x34 build/ux_utility_memory_allocate.o
 .comment       0x0000000000000033       0x34 build/ux_utility_memory_allocate_mulc_safe.o
 .comment       0x0000000000000033       0x34 build/ux_utility_memory_copy.o
 .comment       0x0000000000000033       0x34 build/ux_utility_memory_free.o
 .comment       0x0000000000000033       0x34 build/ux_utility_memory_byte_pool_create.o
 .comment       0x0000000000000033       0x34 build/ux_utility_memory_byte_pool_search.o
 .comment       0x0000000000000033       0x34 build/ux_utility_memory_set.o
 .comment       0x0000000000000033       0x34 build/ux_utility_short_get.o
 .comment       0x0000000000000033       0x34 build/ux_utility_string_length_check.o
 .comment       0x0000000000000033       0x34 build/ux_system_error_handler.o
 .comment       0x0000000000000033       0x34 build/ux_system_initialize.o
 .comment       0x0000000000000033       0x34 build/ux_device_stack_alternate_setting_get.o
 .comment       0x0000000000000033       0x34 build/ux_device_stack_alternate_setting_set.o
 .comment       0x0000000000000033       0x34 build/ux_device_stack_class_register.o
 .comment       0x0000000000000033       0x34 build/ux_device_stack_clear_feature.o
 .comment       0x0000000000000033       0x34 build/ux_device_stack_configuration_get.o
 .comment       0x0000000000000033       0x34 build/ux_device_stack_configuration_set.o
 .comment       0x0000000000000033       0x34 build/ux_device_stack_control_request_process.o
 .comment       0x0000000000000033       0x34 build/ux_device_stack_descriptor_send.o
 .comment       0x0000000000000033       0x34 build/ux_device_stack_disconnect.o
 .comment       0x0000000000000033       0x34 build/ux_device_stack_endpoint_stall.o
 .comment       0x0000000000000033       0x34 build/ux_device_stack_get_status.o
 .comment       0x0000000000000033       0x34 build/ux_device_stack_initialize.o
 .comment       0x0000000000000033       0x34 build/ux_device_stack_interface_delete.o
 .comment       0x0000000000000033       0x34 build/ux_device_stack_interface_set.o
 .comment       0x0000000000000033       0x34 build/ux_device_stack_interface_start.o
 .comment       0x0000000000000033       0x34 build/ux_device_stack_set_feature.o
 .comment       0x0000000000000033       0x34 build/ux_device_stack_transfer_abort.o
 .comment       0x0000000000000033       0x34 build/ux_device_stack_transfer_all_request_abort.o
 .comment       0x0000000000000033       0x34 build/ux_device_stack_transfer_request.o
 .comment       0x0000000000000033       0x34 build/ux_device_stack_tasks_run.o
 .comment       0x0000000000000033       0x34 build/ux_device_stack_transfer_run.o
 .comment       0x0000000000000033       0x34 build/ux_device_class_cdc_acm_activate.o
 .comment       0x0000000000000033       0x34 build/ux_device_class_cdc_acm_control_request.o
 .comment       0x0000000000000033       0x34 build/ux_device_class_cdc_acm_deactivate.o
 .comment       0x0000000000000033       0x34 build/ux_device_class_cdc_acm_entry.o
 .comment       0x0000000000000033       0x34 build/ux_device_class_cdc_acm_initialize.o
 .comment       0x0000000000000033       0x34 build/ux_device_class_cdc_acm_ioctl.o
 .comment       0x0000000000000033       0x34 build/ux_device_class_cdc_acm_unitialize.o
 .comment       0x0000000000000033       0x34 build/ux_device_class_cdc_acm_read_run.o
 .comment       0x0000000000000033       0x34 build/ux_device_class_cdc_acm_write_run.o
 .comment       0x0000000000000033       0x34 build/main.o
 .comment       0x0000000000000033       0x34 build/cmd.o
 .comment       0x0000000000000033       0x34 build/tty.o
 .comment       0x0000000000000033       0x34 build/led.o
 .comment       0x0000000000000033       0x34 build/dma.o
 .comment       0x0000000000000033       0x34 build/gpio.o
 .comment       0x0000000000000033       0x34 build/irq.o
 .comment       0x0000000000000033       0x34 build/reset.o
 .comment       0x0000000000000033       0x34 build/time.o
 .comment       0x0000000000000033       0x34 build/uart.o
 .comment       0x0000000000000033       0x34 build/sys.o
 .comment       0x0000000000000033       0x34 build/wd.o
 .comment       0x0000000000000033       0x34 build/spi.o
 .comment       0x0000000000000033       0x34 build/util.o
 .comment       0x0000000000000033       0x34 build/ux_device_cdc_acm.o
 .comment       0x0000000000000033       0x34 build/ux_device_descriptors.o
 .comment       0x0000000000000033       0x34 build/usb_device.o
 .comment       0x0000000000000033       0x34 /usr/lib/gcc/arm-none-eabi/10.3.1/../../../arm-none-eabi/lib/thumb/v8-m.main+fp/hard/libc_nano.a(lib_a-fflush.o)
 .comment       0x0000000000000033       0x34 /usr/lib/gcc/arm-none-eabi/10.3.1/../../../arm-none-eabi/lib/thumb/v8-m.main+fp/hard/libc_nano.a(lib_a-findfp.o)
 .comment       0x0000000000000033       0x34 /usr/lib/gcc/arm-none-eabi/10.3.1/../../../arm-none-eabi/lib/thumb/v8-m.main+fp/hard/libc_nano.a(lib_a-fwalk.o)
 .comment       0x0000000000000033       0x34 /usr/lib/gcc/arm-none-eabi/10.3.1/../../../arm-none-eabi/lib/thumb/v8-m.main+fp/hard/libc_nano.a(lib_a-impure.o)
 .comment       0x0000000000000033       0x34 /usr/lib/gcc/arm-none-eabi/10.3.1/../../../arm-none-eabi/lib/thumb/v8-m.main+fp/hard/libc_nano.a(lib_a-init.o)
 .comment       0x0000000000000033       0x34 /usr/lib/gcc/arm-none-eabi/10.3.1/../../../arm-none-eabi/lib/thumb/v8-m.main+fp/hard/libc_nano.a(lib_a-memmove.o)
 .comment       0x0000000000000033       0x34 /usr/lib/gcc/arm-none-eabi/10.3.1/../../../arm-none-eabi/lib/thumb/v8-m.main+fp/hard/libc_nano.a(lib_a-memset.o)
 .comment       0x0000000000000033       0x34 /usr/lib/gcc/arm-none-eabi/10.3.1/../../../arm-none-eabi/lib/thumb/v8-m.main+fp/hard/libc_nano.a(lib_a-nano-freer.o)
 .comment       0x0000000000000033       0x34 /usr/lib/gcc/arm-none-eabi/10.3.1/../../../arm-none-eabi/lib/thumb/v8-m.main+fp/hard/libc_nano.a(lib_a-nano-mallocr.o)
 .comment       0x0000000000000033       0x34 /usr/lib/gcc/arm-none-eabi/10.3.1/../../../arm-none-eabi/lib/thumb/v8-m.main+fp/hard/libc_nano.a(lib_a-printf.o)
 .comment       0x0000000000000033       0x34 /usr/lib/gcc/arm-none-eabi/10.3.1/../../../arm-none-eabi/lib/thumb/v8-m.main+fp/hard/libc_nano.a(lib_a-puts.o)
 .comment       0x0000000000000033       0x34 /usr/lib/gcc/arm-none-eabi/10.3.1/../../../arm-none-eabi/lib/thumb/v8-m.main+fp/hard/libc_nano.a(lib_a-sbrkr.o)
 .comment       0x0000000000000033       0x34 /usr/lib/gcc/arm-none-eabi/10.3.1/../../../arm-none-eabi/lib/thumb/v8-m.main+fp/hard/libc_nano.a(lib_a-snprintf.o)
 .comment       0x0000000000000033       0x34 /usr/lib/gcc/arm-none-eabi/10.3.1/../../../arm-none-eabi/lib/thumb/v8-m.main+fp/hard/libc_nano.a(lib_a-stdio.o)
 .comment       0x0000000000000033       0x34 /usr/lib/gcc/arm-none-eabi/10.3.1/../../../arm-none-eabi/lib/thumb/v8-m.main+fp/hard/libc_nano.a(lib_a-strlen-stub.o)
 .comment       0x0000000000000033       0x34 /usr/lib/gcc/arm-none-eabi/10.3.1/../../../arm-none-eabi/lib/thumb/v8-m.main+fp/hard/libc_nano.a(lib_a-wbuf.o)
 .comment       0x0000000000000033       0x34 /usr/lib/gcc/arm-none-eabi/10.3.1/../../../arm-none-eabi/lib/thumb/v8-m.main+fp/hard/libc_nano.a(lib_a-writer.o)
 .comment       0x0000000000000033       0x34 /usr/lib/gcc/arm-none-eabi/10.3.1/../../../arm-none-eabi/lib/thumb/v8-m.main+fp/hard/libc_nano.a(lib_a-wsetup.o)
 .comment       0x0000000000000033       0x34 /usr/lib/gcc/arm-none-eabi/10.3.1/../../../arm-none-eabi/lib/thumb/v8-m.main+fp/hard/libc_nano.a(lib_a-closer.o)
 .comment       0x0000000000000033       0x34 /usr/lib/gcc/arm-none-eabi/10.3.1/../../../arm-none-eabi/lib/thumb/v8-m.main+fp/hard/libc_nano.a(lib_a-lseekr.o)
 .comment       0x0000000000000033       0x34 /usr/lib/gcc/arm-none-eabi/10.3.1/../../../arm-none-eabi/lib/thumb/v8-m.main+fp/hard/libc_nano.a(lib_a-makebuf.o)
 .comment       0x0000000000000033       0x34 /usr/lib/gcc/arm-none-eabi/10.3.1/../../../arm-none-eabi/lib/thumb/v8-m.main+fp/hard/libc_nano.a(lib_a-mlock.o)
 .comment       0x0000000000000033       0x34 /usr/lib/gcc/arm-none-eabi/10.3.1/../../../arm-none-eabi/lib/thumb/v8-m.main+fp/hard/libc_nano.a(lib_a-nano-svfprintf.o)
 .comment       0x0000000000000033       0x34 /usr/lib/gcc/arm-none-eabi/10.3.1/../../../arm-none-eabi/lib/thumb/v8-m.main+fp/hard/libc_nano.a(lib_a-nano-vfprintf.o)
 .comment       0x0000000000000033       0x34 /usr/lib/gcc/arm-none-eabi/10.3.1/../../../arm-none-eabi/lib/thumb/v8-m.main+fp/hard/libc_nano.a(lib_a-nano-vfprintf_i.o)
 .comment       0x0000000000000033       0x34 /usr/lib/gcc/arm-none-eabi/10.3.1/../../../arm-none-eabi/lib/thumb/v8-m.main+fp/hard/libc_nano.a(lib_a-readr.o)
 .comment       0x0000000000000033       0x34 /usr/lib/gcc/arm-none-eabi/10.3.1/../../../arm-none-eabi/lib/thumb/v8-m.main+fp/hard/libc_nano.a(lib_a-reent.o)
 .comment       0x0000000000000033       0x34 /usr/lib/gcc/arm-none-eabi/10.3.1/../../../arm-none-eabi/lib/thumb/v8-m.main+fp/hard/libc_nano.a(lib_a-fstatr.o)
 .comment       0x0000000000000033       0x34 /usr/lib/gcc/arm-none-eabi/10.3.1/../../../arm-none-eabi/lib/thumb/v8-m.main+fp/hard/libc_nano.a(lib_a-fvwrite.o)
 .comment       0x0000000000000033       0x34 /usr/lib/gcc/arm-none-eabi/10.3.1/../../../arm-none-eabi/lib/thumb/v8-m.main+fp/hard/libc_nano.a(lib_a-isattyr.o)
 .comment       0x0000000000000033       0x34 /usr/lib/gcc/arm-none-eabi/10.3.1/../../../arm-none-eabi/lib/thumb/v8-m.main+fp/hard/libc_nano.a(lib_a-memchr-stub.o)
 .comment       0x0000000000000033       0x34 /usr/lib/gcc/arm-none-eabi/10.3.1/../../../arm-none-eabi/lib/thumb/v8-m.main+fp/hard/libc_nano.a(lib_a-nano-reallocr.o)
 .comment       0x0000000000000033       0x34 /usr/lib/gcc/arm-none-eabi/10.3.1/../../../arm-none-eabi/lib/thumb/v8-m.main+fp/hard/libc_nano.a(lib_a-nano-msizer.o)
 .comment       0x0000000000000033       0x34 /usr/lib/gcc/arm-none-eabi/10.3.1/../../../arm-none-eabi/lib/thumb/v8-m.main+fp/hard/libnosys.a(close.o)
 .comment       0x0000000000000033       0x34 /usr/lib/gcc/arm-none-eabi/10.3.1/../../../arm-none-eabi/lib/thumb/v8-m.main+fp/hard/libnosys.a(fstat.o)
 .comment       0x0000000000000033       0x34 /usr/lib/gcc/arm-none-eabi/10.3.1/../../../arm-none-eabi/lib/thumb/v8-m.main+fp/hard/libnosys.a(isatty.o)
 .comment       0x0000000000000033       0x34 /usr/lib/gcc/arm-none-eabi/10.3.1/../../../arm-none-eabi/lib/thumb/v8-m.main+fp/hard/libnosys.a(lseek.o)
 .comment       0x0000000000000033       0x34 /usr/lib/gcc/arm-none-eabi/10.3.1/../../../arm-none-eabi/lib/thumb/v8-m.main+fp/hard/libnosys.a(sbrk.o)
 .comment       0x0000000000000033       0x34 /usr/lib/gcc/arm-none-eabi/10.3.1/thumb/v8-m.main+fp/hard/crtend.o

.debug_info     0x0000000000000000    0x12c97
 .debug_info    0x0000000000000000      0xb11 /usr/lib/gcc/arm-none-eabi/10.3.1/../../../arm-none-eabi/lib/thumb/v8-m.main+fp/hard/libc_nano.a(lib_a-fflush.o)
 .debug_info    0x0000000000000b11      0xfae /usr/lib/gcc/arm-none-eabi/10.3.1/../../../arm-none-eabi/lib/thumb/v8-m.main+fp/hard/libc_nano.a(lib_a-findfp.o)
 .debug_info    0x0000000000001abf      0x900 /usr/lib/gcc/arm-none-eabi/10.3.1/../../../arm-none-eabi/lib/thumb/v8-m.main+fp/hard/libc_nano.a(lib_a-fwalk.o)
 .debug_info    0x00000000000023bf      0x863 /usr/lib/gcc/arm-none-eabi/10.3.1/../../../arm-none-eabi/lib/thumb/v8-m.main+fp/hard/libc_nano.a(lib_a-impure.o)
 .debug_info    0x0000000000002c22      0x11a /usr/lib/gcc/arm-none-eabi/10.3.1/../../../arm-none-eabi/lib/thumb/v8-m.main+fp/hard/libc_nano.a(lib_a-init.o)
 .debug_info    0x0000000000002d3c      0x152 /usr/lib/gcc/arm-none-eabi/10.3.1/../../../arm-none-eabi/lib/thumb/v8-m.main+fp/hard/libc_nano.a(lib_a-memmove.o)
 .debug_info    0x0000000000002e8e      0x137 /usr/lib/gcc/arm-none-eabi/10.3.1/../../../arm-none-eabi/lib/thumb/v8-m.main+fp/hard/libc_nano.a(lib_a-memset.o)
 .debug_info    0x0000000000002fc5      0x903 /usr/lib/gcc/arm-none-eabi/10.3.1/../../../arm-none-eabi/lib/thumb/v8-m.main+fp/hard/libc_nano.a(lib_a-nano-freer.o)
 .debug_info    0x00000000000038c8      0xa0c /usr/lib/gcc/arm-none-eabi/10.3.1/../../../arm-none-eabi/lib/thumb/v8-m.main+fp/hard/libc_nano.a(lib_a-nano-mallocr.o)
 .debug_info    0x00000000000042d4      0x8fd /usr/lib/gcc/arm-none-eabi/10.3.1/../../../arm-none-eabi/lib/thumb/v8-m.main+fp/hard/libc_nano.a(lib_a-printf.o)
 .debug_info    0x0000000000004bd1      0xa41 /usr/lib/gcc/arm-none-eabi/10.3.1/../../../arm-none-eabi/lib/thumb/v8-m.main+fp/hard/libc_nano.a(lib_a-puts.o)
 .debug_info    0x0000000000005612      0x828 /usr/lib/gcc/arm-none-eabi/10.3.1/../../../arm-none-eabi/lib/thumb/v8-m.main+fp/hard/libc_nano.a(lib_a-sbrkr.o)
 .debug_info    0x0000000000005e3a      0x9b5 /usr/lib/gcc/arm-none-eabi/10.3.1/../../../arm-none-eabi/lib/thumb/v8-m.main+fp/hard/libc_nano.a(lib_a-snprintf.o)
 .debug_info    0x00000000000067ef      0xabc /usr/lib/gcc/arm-none-eabi/10.3.1/../../../arm-none-eabi/lib/thumb/v8-m.main+fp/hard/libc_nano.a(lib_a-stdio.o)
 .debug_info    0x00000000000072ab       0xbc /usr/lib/gcc/arm-none-eabi/10.3.1/../../../arm-none-eabi/lib/thumb/v8-m.main+fp/hard/libc_nano.a(lib_a-strlen-stub.o)
 .debug_info    0x0000000000007367      0x998 /usr/lib/gcc/arm-none-eabi/10.3.1/../../../arm-none-eabi/lib/thumb/v8-m.main+fp/hard/libc_nano.a(lib_a-wbuf.o)
 .debug_info    0x0000000000007cff      0x85a /usr/lib/gcc/arm-none-eabi/10.3.1/../../../arm-none-eabi/lib/thumb/v8-m.main+fp/hard/libc_nano.a(lib_a-writer.o)
 .debug_info    0x0000000000008559      0x902 /usr/lib/gcc/arm-none-eabi/10.3.1/../../../arm-none-eabi/lib/thumb/v8-m.main+fp/hard/libc_nano.a(lib_a-wsetup.o)
 .debug_info    0x0000000000008e5b      0x805 /usr/lib/gcc/arm-none-eabi/10.3.1/../../../arm-none-eabi/lib/thumb/v8-m.main+fp/hard/libc_nano.a(lib_a-closer.o)
 .debug_info    0x0000000000009660      0x83b /usr/lib/gcc/arm-none-eabi/10.3.1/../../../arm-none-eabi/lib/thumb/v8-m.main+fp/hard/libc_nano.a(lib_a-lseekr.o)
 .debug_info    0x0000000000009e9b      0xc8a /usr/lib/gcc/arm-none-eabi/10.3.1/../../../arm-none-eabi/lib/thumb/v8-m.main+fp/hard/libc_nano.a(lib_a-makebuf.o)
 .debug_info    0x000000000000ab25      0x7dc /usr/lib/gcc/arm-none-eabi/10.3.1/../../../arm-none-eabi/lib/thumb/v8-m.main+fp/hard/libc_nano.a(lib_a-mlock.o)
 .debug_info    0x000000000000b301     0x10e2 /usr/lib/gcc/arm-none-eabi/10.3.1/../../../arm-none-eabi/lib/thumb/v8-m.main+fp/hard/libc_nano.a(lib_a-nano-svfprintf.o)
 .debug_info    0x000000000000c3e3     0x115c /usr/lib/gcc/arm-none-eabi/10.3.1/../../../arm-none-eabi/lib/thumb/v8-m.main+fp/hard/libc_nano.a(lib_a-nano-vfprintf.o)
 .debug_info    0x000000000000d53f      0xe9e /usr/lib/gcc/arm-none-eabi/10.3.1/../../../arm-none-eabi/lib/thumb/v8-m.main+fp/hard/libc_nano.a(lib_a-nano-vfprintf_i.o)
 .debug_info    0x000000000000e3dd      0x853 /usr/lib/gcc/arm-none-eabi/10.3.1/../../../arm-none-eabi/lib/thumb/v8-m.main+fp/hard/libc_nano.a(lib_a-readr.o)
 .debug_info    0x000000000000ec30      0xa7e /usr/lib/gcc/arm-none-eabi/10.3.1/../../../arm-none-eabi/lib/thumb/v8-m.main+fp/hard/libc_nano.a(lib_a-reent.o)
 .debug_info    0x000000000000f6ae      0xa1d /usr/lib/gcc/arm-none-eabi/10.3.1/../../../arm-none-eabi/lib/thumb/v8-m.main+fp/hard/libc_nano.a(lib_a-fstatr.o)
 .debug_info    0x00000000000100cb      0xb64 /usr/lib/gcc/arm-none-eabi/10.3.1/../../../arm-none-eabi/lib/thumb/v8-m.main+fp/hard/libc_nano.a(lib_a-fvwrite.o)
 .debug_info    0x0000000000010c2f      0x805 /usr/lib/gcc/arm-none-eabi/10.3.1/../../../arm-none-eabi/lib/thumb/v8-m.main+fp/hard/libc_nano.a(lib_a-isattyr.o)
 .debug_info    0x0000000000011434      0x14e /usr/lib/gcc/arm-none-eabi/10.3.1/../../../arm-none-eabi/lib/thumb/v8-m.main+fp/hard/libc_nano.a(lib_a-memchr-stub.o)
 .debug_info    0x0000000000011582       0x26 /usr/lib/gcc/arm-none-eabi/10.3.1/../../../arm-none-eabi/lib/thumb/v8-m.main+fp/hard/libc_nano.a(lib_a-memcpy.o)
 .debug_info    0x00000000000115a8      0x911 /usr/lib/gcc/arm-none-eabi/10.3.1/../../../arm-none-eabi/lib/thumb/v8-m.main+fp/hard/libc_nano.a(lib_a-nano-reallocr.o)
 .debug_info    0x0000000000011eb9      0x840 /usr/lib/gcc/arm-none-eabi/10.3.1/../../../arm-none-eabi/lib/thumb/v8-m.main+fp/hard/libc_nano.a(lib_a-nano-msizer.o)
 .debug_info    0x00000000000126f9       0xb1 /usr/lib/gcc/arm-none-eabi/10.3.1/../../../arm-none-eabi/lib/thumb/v8-m.main+fp/hard/libnosys.a(close.o)
 .debug_info    0x00000000000127aa      0x2cc /usr/lib/gcc/arm-none-eabi/10.3.1/../../../arm-none-eabi/lib/thumb/v8-m.main+fp/hard/libnosys.a(fstat.o)
 .debug_info    0x0000000000012a76       0xb1 /usr/lib/gcc/arm-none-eabi/10.3.1/../../../arm-none-eabi/lib/thumb/v8-m.main+fp/hard/libnosys.a(isatty.o)
 .debug_info    0x0000000000012b27       0xd3 /usr/lib/gcc/arm-none-eabi/10.3.1/../../../arm-none-eabi/lib/thumb/v8-m.main+fp/hard/libnosys.a(lseek.o)
 .debug_info    0x0000000000012bfa       0x9d /usr/lib/gcc/arm-none-eabi/10.3.1/../../../arm-none-eabi/lib/thumb/v8-m.main+fp/hard/libnosys.a(sbrk.o)

.debug_abbrev   0x0000000000000000     0x41ef
 .debug_abbrev  0x0000000000000000      0x2e8 /usr/lib/gcc/arm-none-eabi/10.3.1/../../../arm-none-eabi/lib/thumb/v8-m.main+fp/hard/libc_nano.a(lib_a-fflush.o)
 .debug_abbrev  0x00000000000002e8      0x3cd /usr/lib/gcc/arm-none-eabi/10.3.1/../../../arm-none-eabi/lib/thumb/v8-m.main+fp/hard/libc_nano.a(lib_a-findfp.o)
 .debug_abbrev  0x00000000000006b5      0x197 /usr/lib/gcc/arm-none-eabi/10.3.1/../../../arm-none-eabi/lib/thumb/v8-m.main+fp/hard/libc_nano.a(lib_a-fwalk.o)
 .debug_abbrev  0x000000000000084c      0x151 /usr/lib/gcc/arm-none-eabi/10.3.1/../../../arm-none-eabi/lib/thumb/v8-m.main+fp/hard/libc_nano.a(lib_a-impure.o)
 .debug_abbrev  0x000000000000099d       0xcc /usr/lib/gcc/arm-none-eabi/10.3.1/../../../arm-none-eabi/lib/thumb/v8-m.main+fp/hard/libc_nano.a(lib_a-init.o)
 .debug_abbrev  0x0000000000000a69       0xc0 /usr/lib/gcc/arm-none-eabi/10.3.1/../../../arm-none-eabi/lib/thumb/v8-m.main+fp/hard/libc_nano.a(lib_a-memmove.o)
 .debug_abbrev  0x0000000000000b29       0xb4 /usr/lib/gcc/arm-none-eabi/10.3.1/../../../arm-none-eabi/lib/thumb/v8-m.main+fp/hard/libc_nano.a(lib_a-memset.o)
 .debug_abbrev  0x0000000000000bdd      0x235 /usr/lib/gcc/arm-none-eabi/10.3.1/../../../arm-none-eabi/lib/thumb/v8-m.main+fp/hard/libc_nano.a(lib_a-nano-freer.o)
 .debug_abbrev  0x0000000000000e12      0x290 /usr/lib/gcc/arm-none-eabi/10.3.1/../../../arm-none-eabi/lib/thumb/v8-m.main+fp/hard/libc_nano.a(lib_a-nano-mallocr.o)
 .debug_abbrev  0x00000000000010a2      0x23e /usr/lib/gcc/arm-none-eabi/10.3.1/../../../arm-none-eabi/lib/thumb/v8-m.main+fp/hard/libc_nano.a(lib_a-printf.o)
 .debug_abbrev  0x00000000000012e0      0x28e /usr/lib/gcc/arm-none-eabi/10.3.1/../../../arm-none-eabi/lib/thumb/v8-m.main+fp/hard/libc_nano.a(lib_a-puts.o)
 .debug_abbrev  0x000000000000156e      0x1d6 /usr/lib/gcc/arm-none-eabi/10.3.1/../../../arm-none-eabi/lib/thumb/v8-m.main+fp/hard/libc_nano.a(lib_a-sbrkr.o)
 .debug_abbrev  0x0000000000001744      0x216 /usr/lib/gcc/arm-none-eabi/10.3.1/../../../arm-none-eabi/lib/thumb/v8-m.main+fp/hard/libc_nano.a(lib_a-snprintf.o)
 .debug_abbrev  0x000000000000195a      0x1fb /usr/lib/gcc/arm-none-eabi/10.3.1/../../../arm-none-eabi/lib/thumb/v8-m.main+fp/hard/libc_nano.a(lib_a-stdio.o)
 .debug_abbrev  0x0000000000001b55       0x79 /usr/lib/gcc/arm-none-eabi/10.3.1/../../../arm-none-eabi/lib/thumb/v8-m.main+fp/hard/libc_nano.a(lib_a-strlen-stub.o)
 .debug_abbrev  0x0000000000001bce      0x21f /usr/lib/gcc/arm-none-eabi/10.3.1/../../../arm-none-eabi/lib/thumb/v8-m.main+fp/hard/libc_nano.a(lib_a-wbuf.o)
 .debug_abbrev  0x0000000000001ded      0x1b0 /usr/lib/gcc/arm-none-eabi/10.3.1/../../../arm-none-eabi/lib/thumb/v8-m.main+fp/hard/libc_nano.a(lib_a-writer.o)
 .debug_abbrev  0x0000000000001f9d      0x1d4 /usr/lib/gcc/arm-none-eabi/10.3.1/../../../arm-none-eabi/lib/thumb/v8-m.main+fp/hard/libc_nano.a(lib_a-wsetup.o)
 .debug_abbrev  0x0000000000002171      0x1ab /usr/lib/gcc/arm-none-eabi/10.3.1/../../../arm-none-eabi/lib/thumb/v8-m.main+fp/hard/libc_nano.a(lib_a-closer.o)
 .debug_abbrev  0x000000000000231c      0x1bf /usr/lib/gcc/arm-none-eabi/10.3.1/../../../arm-none-eabi/lib/thumb/v8-m.main+fp/hard/libc_nano.a(lib_a-lseekr.o)
 .debug_abbrev  0x00000000000024db      0x278 /usr/lib/gcc/arm-none-eabi/10.3.1/../../../arm-none-eabi/lib/thumb/v8-m.main+fp/hard/libc_nano.a(lib_a-makebuf.o)
 .debug_abbrev  0x0000000000002753      0x189 /usr/lib/gcc/arm-none-eabi/10.3.1/../../../arm-none-eabi/lib/thumb/v8-m.main+fp/hard/libc_nano.a(lib_a-mlock.o)
 .debug_abbrev  0x00000000000028dc      0x2ca /usr/lib/gcc/arm-none-eabi/10.3.1/../../../arm-none-eabi/lib/thumb/v8-m.main+fp/hard/libc_nano.a(lib_a-nano-svfprintf.o)
 .debug_abbrev  0x0000000000002ba6      0x353 /usr/lib/gcc/arm-none-eabi/10.3.1/../../../arm-none-eabi/lib/thumb/v8-m.main+fp/hard/libc_nano.a(lib_a-nano-vfprintf.o)
 .debug_abbrev  0x0000000000002ef9      0x25c /usr/lib/gcc/arm-none-eabi/10.3.1/../../../arm-none-eabi/lib/thumb/v8-m.main+fp/hard/libc_nano.a(lib_a-nano-vfprintf_i.o)
 .debug_abbrev  0x0000000000003155      0x1ab /usr/lib/gcc/arm-none-eabi/10.3.1/../../../arm-none-eabi/lib/thumb/v8-m.main+fp/hard/libc_nano.a(lib_a-readr.o)
 .debug_abbrev  0x0000000000003300      0x265 /usr/lib/gcc/arm-none-eabi/10.3.1/../../../arm-none-eabi/lib/thumb/v8-m.main+fp/hard/libc_nano.a(lib_a-reent.o)
 .debug_abbrev  0x0000000000003565      0x1bf /usr/lib/gcc/arm-none-eabi/10.3.1/../../../arm-none-eabi/lib/thumb/v8-m.main+fp/hard/libc_nano.a(lib_a-fstatr.o)
 .debug_abbrev  0x0000000000003724      0x1f7 /usr/lib/gcc/arm-none-eabi/10.3.1/../../../arm-none-eabi/lib/thumb/v8-m.main+fp/hard/libc_nano.a(lib_a-fvwrite.o)
 .debug_abbrev  0x000000000000391b      0x1ab /usr/lib/gcc/arm-none-eabi/10.3.1/../../../arm-none-eabi/lib/thumb/v8-m.main+fp/hard/libc_nano.a(lib_a-isattyr.o)
 .debug_abbrev  0x0000000000003ac6       0xd4 /usr/lib/gcc/arm-none-eabi/10.3.1/../../../arm-none-eabi/lib/thumb/v8-m.main+fp/hard/libc_nano.a(lib_a-memchr-stub.o)
 .debug_abbrev  0x0000000000003b9a       0x14 /usr/lib/gcc/arm-none-eabi/10.3.1/../../../arm-none-eabi/lib/thumb/v8-m.main+fp/hard/libc_nano.a(lib_a-memcpy.o)
 .debug_abbrev  0x0000000000003bae      0x1d6 /usr/lib/gcc/arm-none-eabi/10.3.1/../../../arm-none-eabi/lib/thumb/v8-m.main+fp/hard/libc_nano.a(lib_a-nano-reallocr.o)
 .debug_abbrev  0x0000000000003d84      0x191 /usr/lib/gcc/arm-none-eabi/10.3.1/../../../arm-none-eabi/lib/thumb/v8-m.main+fp/hard/libc_nano.a(lib_a-nano-msizer.o)
 .debug_abbrev  0x0000000000003f15       0x6d /usr/lib/gcc/arm-none-eabi/10.3.1/../../../arm-none-eabi/lib/thumb/v8-m.main+fp/hard/libnosys.a(close.o)
 .debug_abbrev  0x0000000000003f82       0xcc /usr/lib/gcc/arm-none-eabi/10.3.1/../../../arm-none-eabi/lib/thumb/v8-m.main+fp/hard/libnosys.a(fstat.o)
 .debug_abbrev  0x000000000000404e       0x6d /usr/lib/gcc/arm-none-eabi/10.3.1/../../../arm-none-eabi/lib/thumb/v8-m.main+fp/hard/libnosys.a(isatty.o)
 .debug_abbrev  0x00000000000040bb       0x92 /usr/lib/gcc/arm-none-eabi/10.3.1/../../../arm-none-eabi/lib/thumb/v8-m.main+fp/hard/libnosys.a(lseek.o)
 .debug_abbrev  0x000000000000414d       0xa2 /usr/lib/gcc/arm-none-eabi/10.3.1/../../../arm-none-eabi/lib/thumb/v8-m.main+fp/hard/libnosys.a(sbrk.o)

.debug_loc      0x0000000000000000     0x4ec2
 .debug_loc     0x0000000000000000      0x509 /usr/lib/gcc/arm-none-eabi/10.3.1/../../../arm-none-eabi/lib/thumb/v8-m.main+fp/hard/libc_nano.a(lib_a-fflush.o)
 .debug_loc     0x0000000000000509      0x3d6 /usr/lib/gcc/arm-none-eabi/10.3.1/../../../arm-none-eabi/lib/thumb/v8-m.main+fp/hard/libc_nano.a(lib_a-findfp.o)
 .debug_loc     0x00000000000008df      0x1d9 /usr/lib/gcc/arm-none-eabi/10.3.1/../../../arm-none-eabi/lib/thumb/v8-m.main+fp/hard/libc_nano.a(lib_a-fwalk.o)
 .debug_loc     0x0000000000000ab8       0xba /usr/lib/gcc/arm-none-eabi/10.3.1/../../../arm-none-eabi/lib/thumb/v8-m.main+fp/hard/libc_nano.a(lib_a-init.o)
 .debug_loc     0x0000000000000b72      0x335 /usr/lib/gcc/arm-none-eabi/10.3.1/../../../arm-none-eabi/lib/thumb/v8-m.main+fp/hard/libc_nano.a(lib_a-memmove.o)
 .debug_loc     0x0000000000000ea7      0x22c /usr/lib/gcc/arm-none-eabi/10.3.1/../../../arm-none-eabi/lib/thumb/v8-m.main+fp/hard/libc_nano.a(lib_a-memset.o)
 .debug_loc     0x00000000000010d3      0x1db /usr/lib/gcc/arm-none-eabi/10.3.1/../../../arm-none-eabi/lib/thumb/v8-m.main+fp/hard/libc_nano.a(lib_a-nano-freer.o)
 .debug_loc     0x00000000000012ae      0x3c0 /usr/lib/gcc/arm-none-eabi/10.3.1/../../../arm-none-eabi/lib/thumb/v8-m.main+fp/hard/libc_nano.a(lib_a-nano-mallocr.o)
 .debug_loc     0x000000000000166e       0x98 /usr/lib/gcc/arm-none-eabi/10.3.1/../../../arm-none-eabi/lib/thumb/v8-m.main+fp/hard/libc_nano.a(lib_a-printf.o)
 .debug_loc     0x0000000000001706      0x2e7 /usr/lib/gcc/arm-none-eabi/10.3.1/../../../arm-none-eabi/lib/thumb/v8-m.main+fp/hard/libc_nano.a(lib_a-puts.o)
 .debug_loc     0x00000000000019ed       0x6c /usr/lib/gcc/arm-none-eabi/10.3.1/../../../arm-none-eabi/lib/thumb/v8-m.main+fp/hard/libc_nano.a(lib_a-sbrkr.o)
 .debug_loc     0x0000000000001a59      0x2b1 /usr/lib/gcc/arm-none-eabi/10.3.1/../../../arm-none-eabi/lib/thumb/v8-m.main+fp/hard/libc_nano.a(lib_a-snprintf.o)
 .debug_loc     0x0000000000001d0a      0x3a0 /usr/lib/gcc/arm-none-eabi/10.3.1/../../../arm-none-eabi/lib/thumb/v8-m.main+fp/hard/libc_nano.a(lib_a-stdio.o)
 .debug_loc     0x00000000000020aa       0x25 /usr/lib/gcc/arm-none-eabi/10.3.1/../../../arm-none-eabi/lib/thumb/v8-m.main+fp/hard/libc_nano.a(lib_a-strlen-stub.o)
 .debug_loc     0x00000000000020cf      0x193 /usr/lib/gcc/arm-none-eabi/10.3.1/../../../arm-none-eabi/lib/thumb/v8-m.main+fp/hard/libc_nano.a(lib_a-wbuf.o)
 .debug_loc     0x0000000000002262       0xf7 /usr/lib/gcc/arm-none-eabi/10.3.1/../../../arm-none-eabi/lib/thumb/v8-m.main+fp/hard/libc_nano.a(lib_a-writer.o)
 .debug_loc     0x0000000000002359       0xb7 /usr/lib/gcc/arm-none-eabi/10.3.1/../../../arm-none-eabi/lib/thumb/v8-m.main+fp/hard/libc_nano.a(lib_a-wsetup.o)
 .debug_loc     0x0000000000002410       0x6c /usr/lib/gcc/arm-none-eabi/10.3.1/../../../arm-none-eabi/lib/thumb/v8-m.main+fp/hard/libc_nano.a(lib_a-closer.o)
 .debug_loc     0x000000000000247c       0xf7 /usr/lib/gcc/arm-none-eabi/10.3.1/../../../arm-none-eabi/lib/thumb/v8-m.main+fp/hard/libc_nano.a(lib_a-lseekr.o)
 .debug_loc     0x0000000000002573      0x31a /usr/lib/gcc/arm-none-eabi/10.3.1/../../../arm-none-eabi/lib/thumb/v8-m.main+fp/hard/libc_nano.a(lib_a-makebuf.o)
 .debug_loc     0x000000000000288d      0x8df /usr/lib/gcc/arm-none-eabi/10.3.1/../../../arm-none-eabi/lib/thumb/v8-m.main+fp/hard/libc_nano.a(lib_a-nano-svfprintf.o)
 .debug_loc     0x000000000000316c      0x7f0 /usr/lib/gcc/arm-none-eabi/10.3.1/../../../arm-none-eabi/lib/thumb/v8-m.main+fp/hard/libc_nano.a(lib_a-nano-vfprintf.o)
 .debug_loc     0x000000000000395c      0x58c /usr/lib/gcc/arm-none-eabi/10.3.1/../../../arm-none-eabi/lib/thumb/v8-m.main+fp/hard/libc_nano.a(lib_a-nano-vfprintf_i.o)
 .debug_loc     0x0000000000003ee8       0xf7 /usr/lib/gcc/arm-none-eabi/10.3.1/../../../arm-none-eabi/lib/thumb/v8-m.main+fp/hard/libc_nano.a(lib_a-readr.o)
 .debug_loc     0x0000000000003fdf      0x1cd /usr/lib/gcc/arm-none-eabi/10.3.1/../../../arm-none-eabi/lib/thumb/v8-m.main+fp/hard/libc_nano.a(lib_a-reent.o)
 .debug_loc     0x00000000000041ac       0xab /usr/lib/gcc/arm-none-eabi/10.3.1/../../../arm-none-eabi/lib/thumb/v8-m.main+fp/hard/libc_nano.a(lib_a-fstatr.o)
 .debug_loc     0x0000000000004257      0x782 /usr/lib/gcc/arm-none-eabi/10.3.1/../../../arm-none-eabi/lib/thumb/v8-m.main+fp/hard/libc_nano.a(lib_a-fvwrite.o)
 .debug_loc     0x00000000000049d9       0x6c /usr/lib/gcc/arm-none-eabi/10.3.1/../../../arm-none-eabi/lib/thumb/v8-m.main+fp/hard/libc_nano.a(lib_a-isattyr.o)
 .debug_loc     0x0000000000004a45      0x1a6 /usr/lib/gcc/arm-none-eabi/10.3.1/../../../arm-none-eabi/lib/thumb/v8-m.main+fp/hard/libc_nano.a(lib_a-memchr-stub.o)
 .debug_loc     0x0000000000004beb      0x133 /usr/lib/gcc/arm-none-eabi/10.3.1/../../../arm-none-eabi/lib/thumb/v8-m.main+fp/hard/libc_nano.a(lib_a-nano-reallocr.o)
 .debug_loc     0x0000000000004d1e       0x86 /usr/lib/gcc/arm-none-eabi/10.3.1/../../../arm-none-eabi/lib/thumb/v8-m.main+fp/hard/libc_nano.a(lib_a-nano-msizer.o)
 .debug_loc     0x0000000000004da4       0x25 /usr/lib/gcc/arm-none-eabi/10.3.1/../../../arm-none-eabi/lib/thumb/v8-m.main+fp/hard/libnosys.a(close.o)
 .debug_loc     0x0000000000004dc9       0x25 /usr/lib/gcc/arm-none-eabi/10.3.1/../../../arm-none-eabi/lib/thumb/v8-m.main+fp/hard/libnosys.a(fstat.o)
 .debug_loc     0x0000000000004dee       0x25 /usr/lib/gcc/arm-none-eabi/10.3.1/../../../arm-none-eabi/lib/thumb/v8-m.main+fp/hard/libnosys.a(isatty.o)
 .debug_loc     0x0000000000004e13       0x4a /usr/lib/gcc/arm-none-eabi/10.3.1/../../../arm-none-eabi/lib/thumb/v8-m.main+fp/hard/libnosys.a(lseek.o)
 .debug_loc     0x0000000000004e5d       0x65 /usr/lib/gcc/arm-none-eabi/10.3.1/../../../arm-none-eabi/lib/thumb/v8-m.main+fp/hard/libnosys.a(sbrk.o)

.debug_aranges  0x0000000000000000      0x4d8
 .debug_aranges
                0x0000000000000000       0x20 /usr/lib/gcc/arm-none-eabi/10.3.1/../../../arm-none-eabi/lib/thumb/v8-m.main+fp/hard/libc_nano.a(lib_a-fflush.o)
 .debug_aranges
                0x0000000000000020       0x20 /usr/lib/gcc/arm-none-eabi/10.3.1/../../../arm-none-eabi/lib/thumb/v8-m.main+fp/hard/libc_nano.a(lib_a-findfp.o)
 .debug_aranges
                0x0000000000000040       0x20 /usr/lib/gcc/arm-none-eabi/10.3.1/../../../arm-none-eabi/lib/thumb/v8-m.main+fp/hard/libc_nano.a(lib_a-fwalk.o)
 .debug_aranges
                0x0000000000000060       0x18 /usr/lib/gcc/arm-none-eabi/10.3.1/../../../arm-none-eabi/lib/thumb/v8-m.main+fp/hard/libc_nano.a(lib_a-impure.o)
 .debug_aranges
                0x0000000000000078       0x20 /usr/lib/gcc/arm-none-eabi/10.3.1/../../../arm-none-eabi/lib/thumb/v8-m.main+fp/hard/libc_nano.a(lib_a-init.o)
 .debug_aranges
                0x0000000000000098       0x20 /usr/lib/gcc/arm-none-eabi/10.3.1/../../../arm-none-eabi/lib/thumb/v8-m.main+fp/hard/libc_nano.a(lib_a-memmove.o)
 .debug_aranges
                0x00000000000000b8       0x20 /usr/lib/gcc/arm-none-eabi/10.3.1/../../../arm-none-eabi/lib/thumb/v8-m.main+fp/hard/libc_nano.a(lib_a-memset.o)
 .debug_aranges
                0x00000000000000d8       0x20 /usr/lib/gcc/arm-none-eabi/10.3.1/../../../arm-none-eabi/lib/thumb/v8-m.main+fp/hard/libc_nano.a(lib_a-nano-freer.o)
 .debug_aranges
                0x00000000000000f8       0x20 /usr/lib/gcc/arm-none-eabi/10.3.1/../../../arm-none-eabi/lib/thumb/v8-m.main+fp/hard/libc_nano.a(lib_a-nano-mallocr.o)
 .debug_aranges
                0x0000000000000118       0x20 /usr/lib/gcc/arm-none-eabi/10.3.1/../../../arm-none-eabi/lib/thumb/v8-m.main+fp/hard/libc_nano.a(lib_a-printf.o)
 .debug_aranges
                0x0000000000000138       0x20 /usr/lib/gcc/arm-none-eabi/10.3.1/../../../arm-none-eabi/lib/thumb/v8-m.main+fp/hard/libc_nano.a(lib_a-puts.o)
 .debug_aranges
                0x0000000000000158       0x20 /usr/lib/gcc/arm-none-eabi/10.3.1/../../../arm-none-eabi/lib/thumb/v8-m.main+fp/hard/libc_nano.a(lib_a-sbrkr.o)
 .debug_aranges
                0x0000000000000178       0x20 /usr/lib/gcc/arm-none-eabi/10.3.1/../../../arm-none-eabi/lib/thumb/v8-m.main+fp/hard/libc_nano.a(lib_a-snprintf.o)
 .debug_aranges
                0x0000000000000198       0x20 /usr/lib/gcc/arm-none-eabi/10.3.1/../../../arm-none-eabi/lib/thumb/v8-m.main+fp/hard/libc_nano.a(lib_a-stdio.o)
 .debug_aranges
                0x00000000000001b8       0x20 /usr/lib/gcc/arm-none-eabi/10.3.1/../../../arm-none-eabi/lib/thumb/v8-m.main+fp/hard/libc_nano.a(lib_a-strlen-stub.o)
 .debug_aranges
                0x00000000000001d8       0x20 /usr/lib/gcc/arm-none-eabi/10.3.1/../../../arm-none-eabi/lib/thumb/v8-m.main+fp/hard/libc_nano.a(lib_a-wbuf.o)
 .debug_aranges
                0x00000000000001f8       0x20 /usr/lib/gcc/arm-none-eabi/10.3.1/../../../arm-none-eabi/lib/thumb/v8-m.main+fp/hard/libc_nano.a(lib_a-writer.o)
 .debug_aranges
                0x0000000000000218       0x20 /usr/lib/gcc/arm-none-eabi/10.3.1/../../../arm-none-eabi/lib/thumb/v8-m.main+fp/hard/libc_nano.a(lib_a-wsetup.o)
 .debug_aranges
                0x0000000000000238       0x20 /usr/lib/gcc/arm-none-eabi/10.3.1/../../../arm-none-eabi/lib/thumb/v8-m.main+fp/hard/libc_nano.a(lib_a-closer.o)
 .debug_aranges
                0x0000000000000258       0x20 /usr/lib/gcc/arm-none-eabi/10.3.1/../../../arm-none-eabi/lib/thumb/v8-m.main+fp/hard/libc_nano.a(lib_a-lseekr.o)
 .debug_aranges
                0x0000000000000278       0x20 /usr/lib/gcc/arm-none-eabi/10.3.1/../../../arm-none-eabi/lib/thumb/v8-m.main+fp/hard/libc_nano.a(lib_a-makebuf.o)
 .debug_aranges
                0x0000000000000298       0x20 /usr/lib/gcc/arm-none-eabi/10.3.1/../../../arm-none-eabi/lib/thumb/v8-m.main+fp/hard/libc_nano.a(lib_a-mlock.o)
 .debug_aranges
                0x00000000000002b8       0x20 /usr/lib/gcc/arm-none-eabi/10.3.1/../../../arm-none-eabi/lib/thumb/v8-m.main+fp/hard/libc_nano.a(lib_a-nano-svfprintf.o)
 .debug_aranges
                0x00000000000002d8       0x20 /usr/lib/gcc/arm-none-eabi/10.3.1/../../../arm-none-eabi/lib/thumb/v8-m.main+fp/hard/libc_nano.a(lib_a-nano-vfprintf.o)
 .debug_aranges
                0x00000000000002f8       0x20 /usr/lib/gcc/arm-none-eabi/10.3.1/../../../arm-none-eabi/lib/thumb/v8-m.main+fp/hard/libc_nano.a(lib_a-nano-vfprintf_i.o)
 .debug_aranges
                0x0000000000000318       0x20 /usr/lib/gcc/arm-none-eabi/10.3.1/../../../arm-none-eabi/lib/thumb/v8-m.main+fp/hard/libc_nano.a(lib_a-readr.o)
 .debug_aranges
                0x0000000000000338       0x20 /usr/lib/gcc/arm-none-eabi/10.3.1/../../../arm-none-eabi/lib/thumb/v8-m.main+fp/hard/libc_nano.a(lib_a-reent.o)
 .debug_aranges
                0x0000000000000358       0x20 /usr/lib/gcc/arm-none-eabi/10.3.1/../../../arm-none-eabi/lib/thumb/v8-m.main+fp/hard/libc_nano.a(lib_a-fstatr.o)
 .debug_aranges
                0x0000000000000378       0x20 /usr/lib/gcc/arm-none-eabi/10.3.1/../../../arm-none-eabi/lib/thumb/v8-m.main+fp/hard/libc_nano.a(lib_a-fvwrite.o)
 .debug_aranges
                0x0000000000000398       0x20 /usr/lib/gcc/arm-none-eabi/10.3.1/../../../arm-none-eabi/lib/thumb/v8-m.main+fp/hard/libc_nano.a(lib_a-isattyr.o)
 .debug_aranges
                0x00000000000003b8       0x20 /usr/lib/gcc/arm-none-eabi/10.3.1/../../../arm-none-eabi/lib/thumb/v8-m.main+fp/hard/libc_nano.a(lib_a-memchr-stub.o)
 .debug_aranges
                0x00000000000003d8       0x20 /usr/lib/gcc/arm-none-eabi/10.3.1/../../../arm-none-eabi/lib/thumb/v8-m.main+fp/hard/libc_nano.a(lib_a-memcpy.o)
 .debug_aranges
                0x00000000000003f8       0x20 /usr/lib/gcc/arm-none-eabi/10.3.1/../../../arm-none-eabi/lib/thumb/v8-m.main+fp/hard/libc_nano.a(lib_a-nano-reallocr.o)
 .debug_aranges
                0x0000000000000418       0x20 /usr/lib/gcc/arm-none-eabi/10.3.1/../../../arm-none-eabi/lib/thumb/v8-m.main+fp/hard/libc_nano.a(lib_a-nano-msizer.o)
 .debug_aranges
                0x0000000000000438       0x20 /usr/lib/gcc/arm-none-eabi/10.3.1/../../../arm-none-eabi/lib/thumb/v8-m.main+fp/hard/libnosys.a(close.o)
 .debug_aranges
                0x0000000000000458       0x20 /usr/lib/gcc/arm-none-eabi/10.3.1/../../../arm-none-eabi/lib/thumb/v8-m.main+fp/hard/libnosys.a(fstat.o)
 .debug_aranges
                0x0000000000000478       0x20 /usr/lib/gcc/arm-none-eabi/10.3.1/../../../arm-none-eabi/lib/thumb/v8-m.main+fp/hard/libnosys.a(isatty.o)
 .debug_aranges
                0x0000000000000498       0x20 /usr/lib/gcc/arm-none-eabi/10.3.1/../../../arm-none-eabi/lib/thumb/v8-m.main+fp/hard/libnosys.a(lseek.o)
 .debug_aranges
                0x00000000000004b8       0x20 /usr/lib/gcc/arm-none-eabi/10.3.1/../../../arm-none-eabi/lib/thumb/v8-m.main+fp/hard/libnosys.a(sbrk.o)

.debug_ranges   0x0000000000000000      0x540
 .debug_ranges  0x0000000000000000       0xa0 /usr/lib/gcc/arm-none-eabi/10.3.1/../../../arm-none-eabi/lib/thumb/v8-m.main+fp/hard/libc_nano.a(lib_a-fflush.o)
 .debug_ranges  0x00000000000000a0      0x1b0 /usr/lib/gcc/arm-none-eabi/10.3.1/../../../arm-none-eabi/lib/thumb/v8-m.main+fp/hard/libc_nano.a(lib_a-findfp.o)
 .debug_ranges  0x0000000000000250       0x28 /usr/lib/gcc/arm-none-eabi/10.3.1/../../../arm-none-eabi/lib/thumb/v8-m.main+fp/hard/libc_nano.a(lib_a-nano-freer.o)
 .debug_ranges  0x0000000000000278       0x38 /usr/lib/gcc/arm-none-eabi/10.3.1/../../../arm-none-eabi/lib/thumb/v8-m.main+fp/hard/libc_nano.a(lib_a-nano-mallocr.o)
 .debug_ranges  0x00000000000002b0       0x60 /usr/lib/gcc/arm-none-eabi/10.3.1/../../../arm-none-eabi/lib/thumb/v8-m.main+fp/hard/libc_nano.a(lib_a-puts.o)
 .debug_ranges  0x0000000000000310       0x10 /usr/lib/gcc/arm-none-eabi/10.3.1/../../../arm-none-eabi/lib/thumb/v8-m.main+fp/hard/libc_nano.a(lib_a-strlen-stub.o)
 .debug_ranges  0x0000000000000320       0x28 /usr/lib/gcc/arm-none-eabi/10.3.1/../../../arm-none-eabi/lib/thumb/v8-m.main+fp/hard/libc_nano.a(lib_a-wbuf.o)
 .debug_ranges  0x0000000000000348       0x30 /usr/lib/gcc/arm-none-eabi/10.3.1/../../../arm-none-eabi/lib/thumb/v8-m.main+fp/hard/libc_nano.a(lib_a-wsetup.o)
 .debug_ranges  0x0000000000000378       0x80 /usr/lib/gcc/arm-none-eabi/10.3.1/../../../arm-none-eabi/lib/thumb/v8-m.main+fp/hard/libc_nano.a(lib_a-makebuf.o)
 .debug_ranges  0x00000000000003f8       0x58 /usr/lib/gcc/arm-none-eabi/10.3.1/../../../arm-none-eabi/lib/thumb/v8-m.main+fp/hard/libc_nano.a(lib_a-nano-svfprintf.o)
 .debug_ranges  0x0000000000000450       0x28 /usr/lib/gcc/arm-none-eabi/10.3.1/../../../arm-none-eabi/lib/thumb/v8-m.main+fp/hard/libc_nano.a(lib_a-nano-vfprintf.o)
 .debug_ranges  0x0000000000000478       0x98 /usr/lib/gcc/arm-none-eabi/10.3.1/../../../arm-none-eabi/lib/thumb/v8-m.main+fp/hard/libc_nano.a(lib_a-nano-vfprintf_i.o)
 .debug_ranges  0x0000000000000510       0x30 /usr/lib/gcc/arm-none-eabi/10.3.1/../../../arm-none-eabi/lib/thumb/v8-m.main+fp/hard/libc_nano.a(lib_a-fvwrite.o)

.debug_line     0x0000000000000000     0x6235
 .debug_line    0x0000000000000000      0x48d /usr/lib/gcc/arm-none-eabi/10.3.1/../../../arm-none-eabi/lib/thumb/v8-m.main+fp/hard/libc_nano.a(lib_a-fflush.o)
 .debug_line    0x000000000000048d      0x5d3 /usr/lib/gcc/arm-none-eabi/10.3.1/../../../arm-none-eabi/lib/thumb/v8-m.main+fp/hard/libc_nano.a(lib_a-findfp.o)
 .debug_line    0x0000000000000a60      0x296 /usr/lib/gcc/arm-none-eabi/10.3.1/../../../arm-none-eabi/lib/thumb/v8-m.main+fp/hard/libc_nano.a(lib_a-fwalk.o)
 .debug_line    0x0000000000000cf6       0xe4 /usr/lib/gcc/arm-none-eabi/10.3.1/../../../arm-none-eabi/lib/thumb/v8-m.main+fp/hard/libc_nano.a(lib_a-impure.o)
 .debug_line    0x0000000000000dda      0x13e /usr/lib/gcc/arm-none-eabi/10.3.1/../../../arm-none-eabi/lib/thumb/v8-m.main+fp/hard/libc_nano.a(lib_a-init.o)
 .debug_line    0x0000000000000f18      0x202 /usr/lib/gcc/arm-none-eabi/10.3.1/../../../arm-none-eabi/lib/thumb/v8-m.main+fp/hard/libc_nano.a(lib_a-memmove.o)
 .debug_line    0x000000000000111a      0x1c1 /usr/lib/gcc/arm-none-eabi/10.3.1/../../../arm-none-eabi/lib/thumb/v8-m.main+fp/hard/libc_nano.a(lib_a-memset.o)
 .debug_line    0x00000000000012db      0x2a9 /usr/lib/gcc/arm-none-eabi/10.3.1/../../../arm-none-eabi/lib/thumb/v8-m.main+fp/hard/libc_nano.a(lib_a-nano-freer.o)
 .debug_line    0x0000000000001584      0x2c0 /usr/lib/gcc/arm-none-eabi/10.3.1/../../../arm-none-eabi/lib/thumb/v8-m.main+fp/hard/libc_nano.a(lib_a-nano-mallocr.o)
 .debug_line    0x0000000000001844      0x232 /usr/lib/gcc/arm-none-eabi/10.3.1/../../../arm-none-eabi/lib/thumb/v8-m.main+fp/hard/libc_nano.a(lib_a-printf.o)
 .debug_line    0x0000000000001a76      0x335 /usr/lib/gcc/arm-none-eabi/10.3.1/../../../arm-none-eabi/lib/thumb/v8-m.main+fp/hard/libc_nano.a(lib_a-puts.o)
 .debug_line    0x0000000000001dab      0x183 /usr/lib/gcc/arm-none-eabi/10.3.1/../../../arm-none-eabi/lib/thumb/v8-m.main+fp/hard/libc_nano.a(lib_a-sbrkr.o)
 .debug_line    0x0000000000001f2e      0x38c /usr/lib/gcc/arm-none-eabi/10.3.1/../../../arm-none-eabi/lib/thumb/v8-m.main+fp/hard/libc_nano.a(lib_a-snprintf.o)
 .debug_line    0x00000000000022ba      0x241 /usr/lib/gcc/arm-none-eabi/10.3.1/../../../arm-none-eabi/lib/thumb/v8-m.main+fp/hard/libc_nano.a(lib_a-stdio.o)
 .debug_line    0x00000000000024fb       0xf4 /usr/lib/gcc/arm-none-eabi/10.3.1/../../../arm-none-eabi/lib/thumb/v8-m.main+fp/hard/libc_nano.a(lib_a-strlen-stub.o)
 .debug_line    0x00000000000025ef      0x282 /usr/lib/gcc/arm-none-eabi/10.3.1/../../../arm-none-eabi/lib/thumb/v8-m.main+fp/hard/libc_nano.a(lib_a-wbuf.o)
 .debug_line    0x0000000000002871      0x18d /usr/lib/gcc/arm-none-eabi/10.3.1/../../../arm-none-eabi/lib/thumb/v8-m.main+fp/hard/libc_nano.a(lib_a-writer.o)
 .debug_line    0x00000000000029fe      0x342 /usr/lib/gcc/arm-none-eabi/10.3.1/../../../arm-none-eabi/lib/thumb/v8-m.main+fp/hard/libc_nano.a(lib_a-wsetup.o)
 .debug_line    0x0000000000002d40      0x183 /usr/lib/gcc/arm-none-eabi/10.3.1/../../../arm-none-eabi/lib/thumb/v8-m.main+fp/hard/libc_nano.a(lib_a-closer.o)
 .debug_line    0x0000000000002ec3      0x18d /usr/lib/gcc/arm-none-eabi/10.3.1/../../../arm-none-eabi/lib/thumb/v8-m.main+fp/hard/libc_nano.a(lib_a-lseekr.o)
 .debug_line    0x0000000000003050      0x3bd /usr/lib/gcc/arm-none-eabi/10.3.1/../../../arm-none-eabi/lib/thumb/v8-m.main+fp/hard/libc_nano.a(lib_a-makebuf.o)
 .debug_line    0x000000000000340d      0x13e /usr/lib/gcc/arm-none-eabi/10.3.1/../../../arm-none-eabi/lib/thumb/v8-m.main+fp/hard/libc_nano.a(lib_a-mlock.o)
 .debug_line    0x000000000000354b      0x82d /usr/lib/gcc/arm-none-eabi/10.3.1/../../../arm-none-eabi/lib/thumb/v8-m.main+fp/hard/libc_nano.a(lib_a-nano-svfprintf.o)
 .debug_line    0x0000000000003d78      0x6db /usr/lib/gcc/arm-none-eabi/10.3.1/../../../arm-none-eabi/lib/thumb/v8-m.main+fp/hard/libc_nano.a(lib_a-nano-vfprintf.o)
 .debug_line    0x0000000000004453      0x768 /usr/lib/gcc/arm-none-eabi/10.3.1/../../../arm-none-eabi/lib/thumb/v8-m.main+fp/hard/libc_nano.a(lib_a-nano-vfprintf_i.o)
 .debug_line    0x0000000000004bbb      0x18c /usr/lib/gcc/arm-none-eabi/10.3.1/../../../arm-none-eabi/lib/thumb/v8-m.main+fp/hard/libc_nano.a(lib_a-readr.o)
 .debug_line    0x0000000000004d47      0x2c7 /usr/lib/gcc/arm-none-eabi/10.3.1/../../../arm-none-eabi/lib/thumb/v8-m.main+fp/hard/libc_nano.a(lib_a-reent.o)
 .debug_line    0x000000000000500e      0x1fd /usr/lib/gcc/arm-none-eabi/10.3.1/../../../arm-none-eabi/lib/thumb/v8-m.main+fp/hard/libc_nano.a(lib_a-fstatr.o)
 .debug_line    0x000000000000520b      0x5e1 /usr/lib/gcc/arm-none-eabi/10.3.1/../../../arm-none-eabi/lib/thumb/v8-m.main+fp/hard/libc_nano.a(lib_a-fvwrite.o)
 .debug_line    0x00000000000057ec      0x184 /usr/lib/gcc/arm-none-eabi/10.3.1/../../../arm-none-eabi/lib/thumb/v8-m.main+fp/hard/libc_nano.a(lib_a-isattyr.o)
 .debug_line    0x0000000000005970      0x1a9 /usr/lib/gcc/arm-none-eabi/10.3.1/../../../arm-none-eabi/lib/thumb/v8-m.main+fp/hard/libc_nano.a(lib_a-memchr-stub.o)
 .debug_line    0x0000000000005b19       0xc1 /usr/lib/gcc/arm-none-eabi/10.3.1/../../../arm-none-eabi/lib/thumb/v8-m.main+fp/hard/libc_nano.a(lib_a-memcpy.o)
 .debug_line    0x0000000000005bda      0x1c7 /usr/lib/gcc/arm-none-eabi/10.3.1/../../../arm-none-eabi/lib/thumb/v8-m.main+fp/hard/libc_nano.a(lib_a-nano-reallocr.o)
 .debug_line    0x0000000000005da1      0x160 /usr/lib/gcc/arm-none-eabi/10.3.1/../../../arm-none-eabi/lib/thumb/v8-m.main+fp/hard/libc_nano.a(lib_a-nano-msizer.o)
 .debug_line    0x0000000000005f01       0x75 /usr/lib/gcc/arm-none-eabi/10.3.1/../../../arm-none-eabi/lib/thumb/v8-m.main+fp/hard/libnosys.a(close.o)
 .debug_line    0x0000000000005f76      0x13f /usr/lib/gcc/arm-none-eabi/10.3.1/../../../arm-none-eabi/lib/thumb/v8-m.main+fp/hard/libnosys.a(fstat.o)
 .debug_line    0x00000000000060b5       0x76 /usr/lib/gcc/arm-none-eabi/10.3.1/../../../arm-none-eabi/lib/thumb/v8-m.main+fp/hard/libnosys.a(isatty.o)
 .debug_line    0x000000000000612b       0x75 /usr/lib/gcc/arm-none-eabi/10.3.1/../../../arm-none-eabi/lib/thumb/v8-m.main+fp/hard/libnosys.a(lseek.o)
 .debug_line    0x00000000000061a0       0x95 /usr/lib/gcc/arm-none-eabi/10.3.1/../../../arm-none-eabi/lib/thumb/v8-m.main+fp/hard/libnosys.a(sbrk.o)

.debug_str      0x0000000000000000     0x17db
 .debug_str     0x0000000000000000      0x502 /usr/lib/gcc/arm-none-eabi/10.3.1/../../../arm-none-eabi/lib/thumb/v8-m.main+fp/hard/libc_nano.a(lib_a-fflush.o)
                                        0x5c6 (size before relaxing)
 .debug_str     0x0000000000000502      0x1db /usr/lib/gcc/arm-none-eabi/10.3.1/../../../arm-none-eabi/lib/thumb/v8-m.main+fp/hard/libc_nano.a(lib_a-findfp.o)
                                        0x73f (size before relaxing)
 .debug_str     0x00000000000006dd       0x41 /usr/lib/gcc/arm-none-eabi/10.3.1/../../../arm-none-eabi/lib/thumb/v8-m.main+fp/hard/libc_nano.a(lib_a-fwalk.o)
                                        0x52c (size before relaxing)
 .debug_str     0x000000000000071e       0xa4 /usr/lib/gcc/arm-none-eabi/10.3.1/../../../arm-none-eabi/lib/thumb/v8-m.main+fp/hard/libc_nano.a(lib_a-impure.o)
                                        0x566 (size before relaxing)
 .debug_str     0x00000000000007c2       0xf4 /usr/lib/gcc/arm-none-eabi/10.3.1/../../../arm-none-eabi/lib/thumb/v8-m.main+fp/hard/libc_nano.a(lib_a-init.o)
                                        0x213 (size before relaxing)
 .debug_str     0x00000000000008b6       0xd4 /usr/lib/gcc/arm-none-eabi/10.3.1/../../../arm-none-eabi/lib/thumb/v8-m.main+fp/hard/libc_nano.a(lib_a-memmove.o)
                                        0x1e7 (size before relaxing)
 .debug_str     0x000000000000098a       0x48 /usr/lib/gcc/arm-none-eabi/10.3.1/../../../arm-none-eabi/lib/thumb/v8-m.main+fp/hard/libc_nano.a(lib_a-memset.o)
                                        0x1c8 (size before relaxing)
 .debug_str     0x00000000000009d2      0x11a /usr/lib/gcc/arm-none-eabi/10.3.1/../../../arm-none-eabi/lib/thumb/v8-m.main+fp/hard/libc_nano.a(lib_a-nano-freer.o)
                                        0x59d (size before relaxing)
 .debug_str     0x0000000000000aec       0x46 /usr/lib/gcc/arm-none-eabi/10.3.1/../../../arm-none-eabi/lib/thumb/v8-m.main+fp/hard/libc_nano.a(lib_a-nano-mallocr.o)
                                        0x5c8 (size before relaxing)
 .debug_str     0x0000000000000b32       0x67 /usr/lib/gcc/arm-none-eabi/10.3.1/../../../arm-none-eabi/lib/thumb/v8-m.main+fp/hard/libc_nano.a(lib_a-printf.o)
                                        0x553 (size before relaxing)
 .debug_str     0x0000000000000b99       0x5e /usr/lib/gcc/arm-none-eabi/10.3.1/../../../arm-none-eabi/lib/thumb/v8-m.main+fp/hard/libc_nano.a(lib_a-puts.o)
                                        0x59b (size before relaxing)
 .debug_str     0x0000000000000bf7       0x47 /usr/lib/gcc/arm-none-eabi/10.3.1/../../../arm-none-eabi/lib/thumb/v8-m.main+fp/hard/libc_nano.a(lib_a-sbrkr.o)
                                        0x51e (size before relaxing)
 .debug_str     0x0000000000000c3e       0x57 /usr/lib/gcc/arm-none-eabi/10.3.1/../../../arm-none-eabi/lib/thumb/v8-m.main+fp/hard/libc_nano.a(lib_a-snprintf.o)
                                        0x563 (size before relaxing)
 .debug_str     0x0000000000000c95       0x92 /usr/lib/gcc/arm-none-eabi/10.3.1/../../../arm-none-eabi/lib/thumb/v8-m.main+fp/hard/libc_nano.a(lib_a-stdio.o)
                                        0x57b (size before relaxing)
 .debug_str     0x0000000000000d27       0xb3 /usr/lib/gcc/arm-none-eabi/10.3.1/../../../arm-none-eabi/lib/thumb/v8-m.main+fp/hard/libc_nano.a(lib_a-strlen-stub.o)
                                        0x1c6 (size before relaxing)
 .debug_str     0x0000000000000dda       0x39 /usr/lib/gcc/arm-none-eabi/10.3.1/../../../arm-none-eabi/lib/thumb/v8-m.main+fp/hard/libc_nano.a(lib_a-wbuf.o)
                                        0x58a (size before relaxing)
 .debug_str     0x0000000000000e13       0x33 /usr/lib/gcc/arm-none-eabi/10.3.1/../../../arm-none-eabi/lib/thumb/v8-m.main+fp/hard/libc_nano.a(lib_a-writer.o)
                                        0x51b (size before relaxing)
 .debug_str     0x0000000000000e46       0x40 /usr/lib/gcc/arm-none-eabi/10.3.1/../../../arm-none-eabi/lib/thumb/v8-m.main+fp/hard/libc_nano.a(lib_a-wsetup.o)
                                        0x585 (size before relaxing)
 .debug_str     0x0000000000000e86       0x33 /usr/lib/gcc/arm-none-eabi/10.3.1/../../../arm-none-eabi/lib/thumb/v8-m.main+fp/hard/libc_nano.a(lib_a-closer.o)
                                        0x50b (size before relaxing)
 .debug_str     0x0000000000000eb9       0x3a /usr/lib/gcc/arm-none-eabi/10.3.1/../../../arm-none-eabi/lib/thumb/v8-m.main+fp/hard/libc_nano.a(lib_a-lseekr.o)
                                        0x519 (size before relaxing)
 .debug_str     0x0000000000000ef3      0x16c /usr/lib/gcc/arm-none-eabi/10.3.1/../../../arm-none-eabi/lib/thumb/v8-m.main+fp/hard/libc_nano.a(lib_a-makebuf.o)
                                        0x6a8 (size before relaxing)
 .debug_str     0x000000000000105f       0x4c /usr/lib/gcc/arm-none-eabi/10.3.1/../../../arm-none-eabi/lib/thumb/v8-m.main+fp/hard/libc_nano.a(lib_a-mlock.o)
                                        0x534 (size before relaxing)
 .debug_str     0x00000000000010ab      0x286 /usr/lib/gcc/arm-none-eabi/10.3.1/../../../arm-none-eabi/lib/thumb/v8-m.main+fp/hard/libc_nano.a(lib_a-nano-svfprintf.o)
                                        0x85d (size before relaxing)
 .debug_str     0x0000000000001331       0x37 /usr/lib/gcc/arm-none-eabi/10.3.1/../../../arm-none-eabi/lib/thumb/v8-m.main+fp/hard/libc_nano.a(lib_a-nano-vfprintf.o)
                                        0x8c1 (size before relaxing)
 .debug_str     0x0000000000001368       0x94 /usr/lib/gcc/arm-none-eabi/10.3.1/../../../arm-none-eabi/lib/thumb/v8-m.main+fp/hard/libc_nano.a(lib_a-nano-vfprintf_i.o)
                                        0x7f4 (size before relaxing)
 .debug_str     0x00000000000013fc       0x32 /usr/lib/gcc/arm-none-eabi/10.3.1/../../../arm-none-eabi/lib/thumb/v8-m.main+fp/hard/libc_nano.a(lib_a-readr.o)
                                        0x519 (size before relaxing)
 .debug_str     0x000000000000142e       0x5e /usr/lib/gcc/arm-none-eabi/10.3.1/../../../arm-none-eabi/lib/thumb/v8-m.main+fp/hard/libc_nano.a(lib_a-reent.o)
                                        0x546 (size before relaxing)
 .debug_str     0x000000000000148c       0x40 /usr/lib/gcc/arm-none-eabi/10.3.1/../../../arm-none-eabi/lib/thumb/v8-m.main+fp/hard/libc_nano.a(lib_a-fstatr.o)
                                        0x65d (size before relaxing)
 .debug_str     0x00000000000014cc       0x43 /usr/lib/gcc/arm-none-eabi/10.3.1/../../../arm-none-eabi/lib/thumb/v8-m.main+fp/hard/libc_nano.a(lib_a-fvwrite.o)
                                        0x5b9 (size before relaxing)
 .debug_str     0x000000000000150f       0x3c /usr/lib/gcc/arm-none-eabi/10.3.1/../../../arm-none-eabi/lib/thumb/v8-m.main+fp/hard/libc_nano.a(lib_a-isattyr.o)
                                        0x515 (size before relaxing)
 .debug_str     0x000000000000154b       0x4b /usr/lib/gcc/arm-none-eabi/10.3.1/../../../arm-none-eabi/lib/thumb/v8-m.main+fp/hard/libc_nano.a(lib_a-memchr-stub.o)
                                        0x1e0 (size before relaxing)
 .debug_str     0x0000000000001596       0x4f /usr/lib/gcc/arm-none-eabi/10.3.1/../../../arm-none-eabi/lib/thumb/v8-m.main+fp/hard/libc_nano.a(lib_a-memcpy.o)
                                         0xba (size before relaxing)
 .debug_str     0x00000000000015e5       0x23 /usr/lib/gcc/arm-none-eabi/10.3.1/../../../arm-none-eabi/lib/thumb/v8-m.main+fp/hard/libc_nano.a(lib_a-nano-reallocr.o)
                                        0x587 (size before relaxing)
 .debug_str     0x0000000000001608        0xf /usr/lib/gcc/arm-none-eabi/10.3.1/../../../arm-none-eabi/lib/thumb/v8-m.main+fp/hard/libc_nano.a(lib_a-nano-msizer.o)
                                        0x565 (size before relaxing)
 .debug_str     0x0000000000001617       0xfa /usr/lib/gcc/arm-none-eabi/10.3.1/../../../arm-none-eabi/lib/thumb/v8-m.main+fp/hard/libnosys.a(close.o)
                                        0x19c (size before relaxing)
 .debug_str     0x0000000000001711       0x2f /usr/lib/gcc/arm-none-eabi/10.3.1/../../../arm-none-eabi/lib/thumb/v8-m.main+fp/hard/libnosys.a(fstat.o)
                                        0x2e8 (size before relaxing)
 .debug_str     0x0000000000001740       0x30 /usr/lib/gcc/arm-none-eabi/10.3.1/../../../arm-none-eabi/lib/thumb/v8-m.main+fp/hard/libnosys.a(isatty.o)
                                        0x19c (size before relaxing)
 .debug_str     0x0000000000001770       0x2f /usr/lib/gcc/arm-none-eabi/10.3.1/../../../arm-none-eabi/lib/thumb/v8-m.main+fp/hard/libnosys.a(lseek.o)
                                        0x19a (size before relaxing)
 .debug_str     0x000000000000179f       0x3c /usr/lib/gcc/arm-none-eabi/10.3.1/../../../arm-none-eabi/lib/thumb/v8-m.main+fp/hard/libnosys.a(sbrk.o)
                                        0x119 (size before relaxing)

.debug_frame    0x0000000000000000      0xb04
 .debug_frame   0x0000000000000000       0x88 /usr/lib/gcc/arm-none-eabi/10.3.1/../../../arm-none-eabi/lib/thumb/v8-m.main+fp/hard/libc_nano.a(lib_a-fflush.o)
 .debug_frame   0x0000000000000088      0x124 /usr/lib/gcc/arm-none-eabi/10.3.1/../../../arm-none-eabi/lib/thumb/v8-m.main+fp/hard/libc_nano.a(lib_a-findfp.o)
 .debug_frame   0x00000000000001ac       0x54 /usr/lib/gcc/arm-none-eabi/10.3.1/../../../arm-none-eabi/lib/thumb/v8-m.main+fp/hard/libc_nano.a(lib_a-fwalk.o)
 .debug_frame   0x0000000000000200       0x2c /usr/lib/gcc/arm-none-eabi/10.3.1/../../../arm-none-eabi/lib/thumb/v8-m.main+fp/hard/libc_nano.a(lib_a-init.o)
 .debug_frame   0x000000000000022c       0x40 /usr/lib/gcc/arm-none-eabi/10.3.1/../../../arm-none-eabi/lib/thumb/v8-m.main+fp/hard/libc_nano.a(lib_a-memmove.o)
 .debug_frame   0x000000000000026c       0x2c /usr/lib/gcc/arm-none-eabi/10.3.1/../../../arm-none-eabi/lib/thumb/v8-m.main+fp/hard/libc_nano.a(lib_a-memset.o)
 .debug_frame   0x0000000000000298       0x54 /usr/lib/gcc/arm-none-eabi/10.3.1/../../../arm-none-eabi/lib/thumb/v8-m.main+fp/hard/libc_nano.a(lib_a-nano-freer.o)
 .debug_frame   0x00000000000002ec       0x30 /usr/lib/gcc/arm-none-eabi/10.3.1/../../../arm-none-eabi/lib/thumb/v8-m.main+fp/hard/libc_nano.a(lib_a-nano-mallocr.o)
 .debug_frame   0x000000000000031c       0x7c /usr/lib/gcc/arm-none-eabi/10.3.1/../../../arm-none-eabi/lib/thumb/v8-m.main+fp/hard/libc_nano.a(lib_a-printf.o)
 .debug_frame   0x0000000000000398       0x40 /usr/lib/gcc/arm-none-eabi/10.3.1/../../../arm-none-eabi/lib/thumb/v8-m.main+fp/hard/libc_nano.a(lib_a-puts.o)
 .debug_frame   0x00000000000003d8       0x2c /usr/lib/gcc/arm-none-eabi/10.3.1/../../../arm-none-eabi/lib/thumb/v8-m.main+fp/hard/libc_nano.a(lib_a-sbrkr.o)
 .debug_frame   0x0000000000000404       0x94 /usr/lib/gcc/arm-none-eabi/10.3.1/../../../arm-none-eabi/lib/thumb/v8-m.main+fp/hard/libc_nano.a(lib_a-snprintf.o)
 .debug_frame   0x0000000000000498       0x8c /usr/lib/gcc/arm-none-eabi/10.3.1/../../../arm-none-eabi/lib/thumb/v8-m.main+fp/hard/libc_nano.a(lib_a-stdio.o)
 .debug_frame   0x0000000000000524       0x20 /usr/lib/gcc/arm-none-eabi/10.3.1/../../../arm-none-eabi/lib/thumb/v8-m.main+fp/hard/libc_nano.a(lib_a-strlen-stub.o)
 .debug_frame   0x0000000000000544       0x40 /usr/lib/gcc/arm-none-eabi/10.3.1/../../../arm-none-eabi/lib/thumb/v8-m.main+fp/hard/libc_nano.a(lib_a-wbuf.o)
 .debug_frame   0x0000000000000584       0x2c /usr/lib/gcc/arm-none-eabi/10.3.1/../../../arm-none-eabi/lib/thumb/v8-m.main+fp/hard/libc_nano.a(lib_a-writer.o)
 .debug_frame   0x00000000000005b0       0x2c /usr/lib/gcc/arm-none-eabi/10.3.1/../../../arm-none-eabi/lib/thumb/v8-m.main+fp/hard/libc_nano.a(lib_a-wsetup.o)
 .debug_frame   0x00000000000005dc       0x2c /usr/lib/gcc/arm-none-eabi/10.3.1/../../../arm-none-eabi/lib/thumb/v8-m.main+fp/hard/libc_nano.a(lib_a-closer.o)
 .debug_frame   0x0000000000000608       0x2c /usr/lib/gcc/arm-none-eabi/10.3.1/../../../arm-none-eabi/lib/thumb/v8-m.main+fp/hard/libc_nano.a(lib_a-lseekr.o)
 .debug_frame   0x0000000000000634       0x68 /usr/lib/gcc/arm-none-eabi/10.3.1/../../../arm-none-eabi/lib/thumb/v8-m.main+fp/hard/libc_nano.a(lib_a-makebuf.o)
 .debug_frame   0x000000000000069c       0x30 /usr/lib/gcc/arm-none-eabi/10.3.1/../../../arm-none-eabi/lib/thumb/v8-m.main+fp/hard/libc_nano.a(lib_a-mlock.o)
 .debug_frame   0x00000000000006cc       0x98 /usr/lib/gcc/arm-none-eabi/10.3.1/../../../arm-none-eabi/lib/thumb/v8-m.main+fp/hard/libc_nano.a(lib_a-nano-svfprintf.o)
 .debug_frame   0x0000000000000764       0xbc /usr/lib/gcc/arm-none-eabi/10.3.1/../../../arm-none-eabi/lib/thumb/v8-m.main+fp/hard/libc_nano.a(lib_a-nano-vfprintf.o)
 .debug_frame   0x0000000000000820       0x6c /usr/lib/gcc/arm-none-eabi/10.3.1/../../../arm-none-eabi/lib/thumb/v8-m.main+fp/hard/libc_nano.a(lib_a-nano-vfprintf_i.o)
 .debug_frame   0x000000000000088c       0x2c /usr/lib/gcc/arm-none-eabi/10.3.1/../../../arm-none-eabi/lib/thumb/v8-m.main+fp/hard/libc_nano.a(lib_a-readr.o)
 .debug_frame   0x00000000000008b8       0x70 /usr/lib/gcc/arm-none-eabi/10.3.1/../../../arm-none-eabi/lib/thumb/v8-m.main+fp/hard/libc_nano.a(lib_a-reent.o)
 .debug_frame   0x0000000000000928       0x2c /usr/lib/gcc/arm-none-eabi/10.3.1/../../../arm-none-eabi/lib/thumb/v8-m.main+fp/hard/libc_nano.a(lib_a-fstatr.o)
 .debug_frame   0x0000000000000954       0x64 /usr/lib/gcc/arm-none-eabi/10.3.1/../../../arm-none-eabi/lib/thumb/v8-m.main+fp/hard/libc_nano.a(lib_a-fvwrite.o)
 .debug_frame   0x00000000000009b8       0x2c /usr/lib/gcc/arm-none-eabi/10.3.1/../../../arm-none-eabi/lib/thumb/v8-m.main+fp/hard/libc_nano.a(lib_a-isattyr.o)
 .debug_frame   0x00000000000009e4       0x28 /usr/lib/gcc/arm-none-eabi/10.3.1/../../../arm-none-eabi/lib/thumb/v8-m.main+fp/hard/libc_nano.a(lib_a-memchr-stub.o)
 .debug_frame   0x0000000000000a0c       0x38 /usr/lib/gcc/arm-none-eabi/10.3.1/../../../arm-none-eabi/lib/thumb/v8-m.main+fp/hard/libc_nano.a(lib_a-nano-reallocr.o)
 .debug_frame   0x0000000000000a44       0x20 /usr/lib/gcc/arm-none-eabi/10.3.1/../../../arm-none-eabi/lib/thumb/v8-m.main+fp/hard/libc_nano.a(lib_a-nano-msizer.o)
 .debug_frame   0x0000000000000a64       0x20 /usr/lib/gcc/arm-none-eabi/10.3.1/../../../arm-none-eabi/lib/thumb/v8-m.main+fp/hard/libnosys.a(close.o)
 .debug_frame   0x0000000000000a84       0x20 /usr/lib/gcc/arm-none-eabi/10.3.1/../../../arm-none-eabi/lib/thumb/v8-m.main+fp/hard/libnosys.a(fstat.o)
 .debug_frame   0x0000000000000aa4       0x20 /usr/lib/gcc/arm-none-eabi/10.3.1/../../../arm-none-eabi/lib/thumb/v8-m.main+fp/hard/libnosys.a(isatty.o)
 .debug_frame   0x0000000000000ac4       0x20 /usr/lib/gcc/arm-none-eabi/10.3.1/../../../arm-none-eabi/lib/thumb/v8-m.main+fp/hard/libnosys.a(lseek.o)
 .debug_frame   0x0000000000000ae4       0x20 /usr/lib/gcc/arm-none-eabi/10.3.1/../../../arm-none-eabi/lib/thumb/v8-m.main+fp/hard/libnosys.a(sbrk.o)

.stab           0x0000000000000000       0x6c
 .stab          0x0000000000000000       0x24 /usr/lib/gcc/arm-none-eabi/10.3.1/../../../arm-none-eabi/lib/thumb/v8-m.main+fp/hard/libnosys.a(close.o)
 .stab          0x0000000000000024       0x18 /usr/lib/gcc/arm-none-eabi/10.3.1/../../../arm-none-eabi/lib/thumb/v8-m.main+fp/hard/libnosys.a(fstat.o)
                                         0x24 (size before relaxing)
 .stab          0x000000000000003c       0x18 /usr/lib/gcc/arm-none-eabi/10.3.1/../../../arm-none-eabi/lib/thumb/v8-m.main+fp/hard/libnosys.a(isatty.o)
                                         0x24 (size before relaxing)
 .stab          0x0000000000000054       0x18 /usr/lib/gcc/arm-none-eabi/10.3.1/../../../arm-none-eabi/lib/thumb/v8-m.main+fp/hard/libnosys.a(lseek.o)
                                         0x24 (size before relaxing)

.stabstr        0x0000000000000000       0xe3
 .stabstr       0x0000000000000000       0xe3 /usr/lib/gcc/arm-none-eabi/10.3.1/../../../arm-none-eabi/lib/thumb/v8-m.main+fp/hard/libnosys.a(close.o)

Cross Reference Table

Symbol                                            File
ADC1_IRQHandler                                   build/startup_stm32u535xx.o
ADC4_IRQHandler                                   build/startup_stm32u535xx.o
ADF1_IRQHandler                                   build/startup_stm32u535xx.o
AHBPrescTable                                     build/system_stm32u5xx.o
                                                  build/stm32u5xx_ll_utils.o
                                                  build/stm32u5xx_ll_rcc.o
APBPrescTable                                     build/system_stm32u5xx.o
                                                  build/stm32u5xx_ll_rcc.o
BusFault_Handler                                  build/startup_stm32u535xx.o
CDC_VCP_LineCoding                                build/ux_device_cdc_acm.o
COMP_IRQHandler                                   build/startup_stm32u535xx.o
CORDIC_IRQHandler                                 build/startup_stm32u535xx.o
CRS_IRQHandler                                    build/startup_stm32u535xx.o
DAC1_IRQHandler                                   build/startup_stm32u535xx.o
DCACHE1_IRQHandler                                build/startup_stm32u535xx.o
DCMI_PSSI_IRQHandler                              build/startup_stm32u535xx.o
DebugMon_Handler                                  build/startup_stm32u535xx.o
Default_Handler                                   build/startup_stm32u535xx.o
EXTI0_IRQHandler                                  build/startup_stm32u535xx.o
EXTI10_IRQHandler                                 build/startup_stm32u535xx.o
EXTI11_IRQHandler                                 build/startup_stm32u535xx.o
EXTI12_IRQHandler                                 build/startup_stm32u535xx.o
EXTI13_IRQHandler                                 build/startup_stm32u535xx.o
EXTI14_IRQHandler                                 build/startup_stm32u535xx.o
EXTI15_IRQHandler                                 build/startup_stm32u535xx.o
EXTI1_IRQHandler                                  build/startup_stm32u535xx.o
EXTI2_IRQHandler                                  build/startup_stm32u535xx.o
EXTI3_IRQHandler                                  build/startup_stm32u535xx.o
EXTI4_IRQHandler                                  build/startup_stm32u535xx.o
EXTI5_IRQHandler                                  build/startup_stm32u535xx.o
EXTI6_IRQHandler                                  build/startup_stm32u535xx.o
EXTI7_IRQHandler                                  build/startup_stm32u535xx.o
EXTI8_IRQHandler                                  build/startup_stm32u535xx.o
EXTI9_IRQHandler                                  build/startup_stm32u535xx.o
Error_Handler                                     build/main.o
                                                  build/usb_device.o
                                                  build/spi.o
                                                  build/dma.o
FDCAN1_IT0_IRQHandler                             build/startup_stm32u535xx.o
FDCAN1_IT1_IRQHandler                             build/startup_stm32u535xx.o
FLASH_IRQHandler                                  build/startup_stm32u535xx.o
FLASH_S_IRQHandler                                build/startup_stm32u535xx.o
FMAC_IRQHandler                                   build/startup_stm32u535xx.o
FPU_IRQHandler                                    build/startup_stm32u535xx.o
GPDMA1_Channel0_IRQHandler                        build/startup_stm32u535xx.o
GPDMA1_Channel10_IRQHandler                       build/startup_stm32u535xx.o
GPDMA1_Channel11_IRQHandler                       build/startup_stm32u535xx.o
GPDMA1_Channel12_IRQHandler                       build/startup_stm32u535xx.o
GPDMA1_Channel13_IRQHandler                       build/startup_stm32u535xx.o
GPDMA1_Channel14_IRQHandler                       build/startup_stm32u535xx.o
GPDMA1_Channel15_IRQHandler                       build/startup_stm32u535xx.o
GPDMA1_Channel1_IRQHandler                        build/startup_stm32u535xx.o
GPDMA1_Channel2_IRQHandler                        build/startup_stm32u535xx.o
GPDMA1_Channel3_IRQHandler                        build/startup_stm32u535xx.o
GPDMA1_Channel4_IRQHandler                        build/startup_stm32u535xx.o
GPDMA1_Channel5_IRQHandler                        build/startup_stm32u535xx.o
GPDMA1_Channel6_IRQHandler                        build/dma.o
GPDMA1_Channel7_IRQHandler                        build/dma.o
GPDMA1_Channel8_IRQHandler                        build/startup_stm32u535xx.o
GPDMA1_Channel9_IRQHandler                        build/startup_stm32u535xx.o
GTZC_IRQHandler                                   build/startup_stm32u535xx.o
HAL_DMAEx_ConfigDataHandling                      build/stm32u5xx_hal_dma_ex.o
HAL_DMAEx_ConfigRepeatBlock                       build/stm32u5xx_hal_dma_ex.o
HAL_DMAEx_ConfigTrigger                           build/stm32u5xx_hal_dma_ex.o
HAL_DMAEx_GetFifoLevel                            build/stm32u5xx_hal_dma_ex.o
HAL_DMAEx_List_BuildNode                          build/stm32u5xx_hal_dma_ex.o
                                                  build/dma.o
HAL_DMAEx_List_ClearCircularMode                  build/stm32u5xx_hal_dma_ex.o
HAL_DMAEx_List_ConvertQToDynamic                  build/stm32u5xx_hal_dma_ex.o
HAL_DMAEx_List_ConvertQToStatic                   build/stm32u5xx_hal_dma_ex.o
HAL_DMAEx_List_DeInit                             build/stm32u5xx_hal_dma_ex.o
HAL_DMAEx_List_GetNodeConfig                      build/stm32u5xx_hal_dma_ex.o
HAL_DMAEx_List_Init                               build/stm32u5xx_hal_dma_ex.o
                                                  build/dma.o
HAL_DMAEx_List_InsertNode                         build/stm32u5xx_hal_dma_ex.o
HAL_DMAEx_List_InsertNode_Head                    build/stm32u5xx_hal_dma_ex.o
HAL_DMAEx_List_InsertNode_Tail                    build/stm32u5xx_hal_dma_ex.o
                                                  build/dma.o
HAL_DMAEx_List_InsertQ                            build/stm32u5xx_hal_dma_ex.o
HAL_DMAEx_List_InsertQ_Head                       build/stm32u5xx_hal_dma_ex.o
HAL_DMAEx_List_InsertQ_Tail                       build/stm32u5xx_hal_dma_ex.o
HAL_DMAEx_List_LinkQ                              build/stm32u5xx_hal_dma_ex.o
                                                  build/dma.o
HAL_DMAEx_List_RemoveNode                         build/stm32u5xx_hal_dma_ex.o
HAL_DMAEx_List_RemoveNode_Head                    build/stm32u5xx_hal_dma_ex.o
HAL_DMAEx_List_RemoveNode_Tail                    build/stm32u5xx_hal_dma_ex.o
HAL_DMAEx_List_ReplaceNode                        build/stm32u5xx_hal_dma_ex.o
HAL_DMAEx_List_ReplaceNode_Head                   build/stm32u5xx_hal_dma_ex.o
HAL_DMAEx_List_ReplaceNode_Tail                   build/stm32u5xx_hal_dma_ex.o
HAL_DMAEx_List_ResetQ                             build/stm32u5xx_hal_dma_ex.o
HAL_DMAEx_List_SetCircularMode                    build/stm32u5xx_hal_dma_ex.o
HAL_DMAEx_List_SetCircularModeConfig              build/stm32u5xx_hal_dma_ex.o
HAL_DMAEx_List_Start                              build/stm32u5xx_hal_dma_ex.o
HAL_DMAEx_List_Start_IT                           build/stm32u5xx_hal_dma_ex.o
                                                  build/stm32u5xx_hal_spi.o
HAL_DMAEx_List_UnLinkQ                            build/stm32u5xx_hal_dma_ex.o
HAL_DMAEx_Resume                                  build/stm32u5xx_hal_dma_ex.o
HAL_DMAEx_Suspend                                 build/stm32u5xx_hal_dma_ex.o
HAL_DMAEx_Suspend_IT                              build/stm32u5xx_hal_dma_ex.o
HAL_DMA_Abort                                     build/stm32u5xx_hal_dma.o
                                                  build/stm32u5xx_hal_spi.o
HAL_DMA_Abort_IT                                  build/stm32u5xx_hal_dma.o
                                                  build/stm32u5xx_hal_spi.o
HAL_DMA_ConfigChannelAttributes                   build/stm32u5xx_hal_dma.o
                                                  build/dma.o
HAL_DMA_DeInit                                    build/stm32u5xx_hal_dma.o
HAL_DMA_GetConfigChannelAttributes                build/stm32u5xx_hal_dma.o
HAL_DMA_GetError                                  build/stm32u5xx_hal_dma.o
                                                  build/stm32u5xx_hal_spi.o
HAL_DMA_GetLockChannelAttributes                  build/stm32u5xx_hal_dma.o
HAL_DMA_GetState                                  build/stm32u5xx_hal_dma.o
HAL_DMA_IRQHandler                                build/stm32u5xx_hal_dma.o
                                                  build/dma.o
HAL_DMA_Init                                      build/stm32u5xx_hal_dma.o
HAL_DMA_PollForTransfer                           build/stm32u5xx_hal_dma.o
HAL_DMA_RegisterCallback                          build/stm32u5xx_hal_dma.o
HAL_DMA_Start                                     build/stm32u5xx_hal_dma.o
HAL_DMA_Start_IT                                  build/stm32u5xx_hal_dma.o
                                                  build/stm32u5xx_hal_spi.o
HAL_DMA_UnRegisterCallback                        build/stm32u5xx_hal_dma.o
HAL_Delay                                         build/sys.o
                                                  build/stm32u5xx_hal_pcd_ex.o
                                                  build/stm32u5xx_ll_usb.o
HAL_GetTick                                       build/sys.o
                                                  build/stm32u5xx_hal_spi.o
                                                  build/stm32u5xx_hal_pcd_ex.o
                                                  build/stm32u5xx_hal_dma_ex.o
                                                  build/stm32u5xx_hal_dma.o
HAL_MPU_ConfigMemoryAttributes                    build/stm32u5xx_hal_cortex.o
HAL_MPU_ConfigRegion                              build/stm32u5xx_hal_cortex.o
HAL_MPU_Disable                                   build/stm32u5xx_hal_cortex.o
HAL_MPU_DisableRegion                             build/stm32u5xx_hal_cortex.o
HAL_MPU_Enable                                    build/stm32u5xx_hal_cortex.o
HAL_MPU_EnableRegion                              build/stm32u5xx_hal_cortex.o
HAL_NVIC_ClearPendingIRQ                          build/stm32u5xx_hal_cortex.o
HAL_NVIC_DisableIRQ                               build/stm32u5xx_hal_cortex.o
HAL_NVIC_EnableIRQ                                build/stm32u5xx_hal_cortex.o
HAL_NVIC_GetActive                                build/stm32u5xx_hal_cortex.o
HAL_NVIC_GetPendingIRQ                            build/stm32u5xx_hal_cortex.o
HAL_NVIC_GetPriority                              build/stm32u5xx_hal_cortex.o
HAL_NVIC_GetPriorityGrouping                      build/stm32u5xx_hal_cortex.o
HAL_NVIC_SetPendingIRQ                            build/stm32u5xx_hal_cortex.o
HAL_NVIC_SetPriority                              build/stm32u5xx_hal_cortex.o
HAL_NVIC_SetPriorityGrouping                      build/stm32u5xx_hal_cortex.o
HAL_NVIC_SystemReset                              build/stm32u5xx_hal_cortex.o
HAL_PCDEx_ActivateBCD                             build/stm32u5xx_hal_pcd_ex.o
HAL_PCDEx_ActivateLPM                             build/stm32u5xx_hal_pcd_ex.o
                                                  build/stm32u5xx_hal_pcd.o
HAL_PCDEx_BCD_Callback                            build/stm32u5xx_hal_pcd_ex.o
HAL_PCDEx_BCD_VBUSDetect                          build/stm32u5xx_hal_pcd_ex.o
HAL_PCDEx_DeActivateBCD                           build/stm32u5xx_hal_pcd_ex.o
HAL_PCDEx_DeActivateLPM                           build/stm32u5xx_hal_pcd_ex.o
HAL_PCDEx_LPM_Callback                            build/stm32u5xx_hal_pcd_ex.o
                                                  build/stm32u5xx_hal_pcd.o
HAL_PCDEx_PMAConfig                               build/stm32u5xx_hal_pcd_ex.o
                                                  build/usb_device.o
HAL_PCD_ActivateRemoteWakeup                      build/stm32u5xx_hal_pcd.o
HAL_PCD_ConnectCallback                           build/ux_dcd_stm32_callback.o
                                                  build/stm32u5xx_hal_pcd.o
HAL_PCD_DataInStageCallback                       build/ux_dcd_stm32_callback.o
                                                  build/stm32u5xx_hal_pcd.o
HAL_PCD_DataOutStageCallback                      build/ux_dcd_stm32_callback.o
                                                  build/stm32u5xx_hal_pcd.o
HAL_PCD_DeActivateRemoteWakeup                    build/stm32u5xx_hal_pcd.o
HAL_PCD_DeInit                                    build/stm32u5xx_hal_pcd.o
HAL_PCD_DevConnect                                build/stm32u5xx_hal_pcd.o
HAL_PCD_DevDisconnect                             build/stm32u5xx_hal_pcd.o
HAL_PCD_DisconnectCallback                        build/ux_dcd_stm32_callback.o
                                                  build/stm32u5xx_hal_pcd.o
HAL_PCD_EP_Abort                                  build/stm32u5xx_hal_pcd.o
                                                  build/ux_dcd_stm32_transfer_abort.o
HAL_PCD_EP_Close                                  build/stm32u5xx_hal_pcd.o
                                                  build/ux_dcd_stm32_endpoint_destroy.o
HAL_PCD_EP_ClrStall                               build/stm32u5xx_hal_pcd.o
                                                  build/ux_dcd_stm32_endpoint_reset.o
HAL_PCD_EP_Flush                                  build/stm32u5xx_hal_pcd.o
                                                  build/ux_dcd_stm32_transfer_abort.o
                                                  build/ux_dcd_stm32_initialize_complete.o
                                                  build/ux_dcd_stm32_endpoint_reset.o
HAL_PCD_EP_GetRxCount                             build/stm32u5xx_hal_pcd.o
                                                  build/ux_dcd_stm32_callback.o
HAL_PCD_EP_Open                                   build/stm32u5xx_hal_pcd.o
                                                  build/ux_dcd_stm32_initialize_complete.o
                                                  build/ux_dcd_stm32_endpoint_create.o
HAL_PCD_EP_Receive                                build/stm32u5xx_hal_pcd.o
                                                  build/ux_dcd_stm32_transfer_run.o
                                                  build/ux_dcd_stm32_callback.o
HAL_PCD_EP_SetStall                               build/stm32u5xx_hal_pcd.o
                                                  build/ux_dcd_stm32_endpoint_stall.o
HAL_PCD_EP_Transmit                               build/stm32u5xx_hal_pcd.o
                                                  build/ux_dcd_stm32_transfer_run.o
                                                  build/ux_dcd_stm32_callback.o
HAL_PCD_GetState                                  build/stm32u5xx_hal_pcd.o
HAL_PCD_IRQHandler                                build/stm32u5xx_hal_pcd.o
                                                  build/usb_device.o
                                                  build/ux_dcd_stm32_interrupt_handler.o
HAL_PCD_ISOINIncompleteCallback                   build/stm32u5xx_hal_pcd.o
HAL_PCD_ISOOUTIncompleteCallback                  build/stm32u5xx_hal_pcd.o
HAL_PCD_Init                                      build/stm32u5xx_hal_pcd.o
                                                  build/usb_device.o
HAL_PCD_MspDeInit                                 build/stm32u5xx_hal_pcd.o
HAL_PCD_MspInit                                   build/usb_device.o
                                                  build/stm32u5xx_hal_pcd.o
HAL_PCD_ResetCallback                             build/ux_dcd_stm32_callback.o
                                                  build/stm32u5xx_hal_pcd.o
HAL_PCD_ResumeCallback                            build/ux_dcd_stm32_callback.o
                                                  build/stm32u5xx_hal_pcd.o
HAL_PCD_SOFCallback                               build/ux_dcd_stm32_callback.o
                                                  build/stm32u5xx_hal_pcd.o
HAL_PCD_SetAddress                                build/stm32u5xx_hal_pcd.o
                                                  build/ux_dcd_stm32_function.o
HAL_PCD_SetupStageCallback                        build/ux_dcd_stm32_callback.o
                                                  build/stm32u5xx_hal_pcd.o
HAL_PCD_Start                                     build/stm32u5xx_hal_pcd.o
                                                  build/usb_device.o
HAL_PCD_Stop                                      build/stm32u5xx_hal_pcd.o
                                                  build/ux_dcd_stm32_function.o
HAL_PCD_SuspendCallback                           build/ux_dcd_stm32_callback.o
                                                  build/stm32u5xx_hal_pcd.o
HAL_SPIEx_ClearConfigAutonomousMode               build/stm32u5xx_hal_spi_ex.o
HAL_SPIEx_ConfigureUnderrun                       build/stm32u5xx_hal_spi_ex.o
HAL_SPIEx_EnableLockConfiguration                 build/stm32u5xx_hal_spi_ex.o
HAL_SPIEx_FlushRxFifo                             build/stm32u5xx_hal_spi_ex.o
HAL_SPIEx_GetConfigAutonomousMode                 build/stm32u5xx_hal_spi_ex.o
HAL_SPIEx_SetConfigAutonomousMode                 build/stm32u5xx_hal_spi_ex.o
                                                  build/spi.o
HAL_SPI_Abort                                     build/stm32u5xx_hal_spi.o
HAL_SPI_AbortCpltCallback                         build/stm32u5xx_hal_spi.o
HAL_SPI_Abort_IT                                  build/stm32u5xx_hal_spi.o
HAL_SPI_DMAPause                                  build/stm32u5xx_hal_spi.o
HAL_SPI_DMAResume                                 build/stm32u5xx_hal_spi.o
HAL_SPI_DMAStop                                   build/stm32u5xx_hal_spi.o
HAL_SPI_DeInit                                    build/stm32u5xx_hal_spi.o
HAL_SPI_ErrorCallback                             build/stm32u5xx_hal_spi.o
HAL_SPI_GetError                                  build/stm32u5xx_hal_spi.o
HAL_SPI_GetState                                  build/stm32u5xx_hal_spi.o
HAL_SPI_IRQHandler                                build/stm32u5xx_hal_spi.o
                                                  build/spi.o
HAL_SPI_Init                                      build/stm32u5xx_hal_spi.o
                                                  build/spi.o
HAL_SPI_MspDeInit                                 build/stm32u5xx_hal_spi.o
HAL_SPI_MspInit                                   build/spi.o
                                                  build/stm32u5xx_hal_spi.o
HAL_SPI_Receive                                   build/stm32u5xx_hal_spi.o
HAL_SPI_Receive_DMA                               build/stm32u5xx_hal_spi.o
HAL_SPI_Receive_IT                                build/stm32u5xx_hal_spi.o
HAL_SPI_RxCpltCallback                            build/stm32u5xx_hal_spi.o
HAL_SPI_RxHalfCpltCallback                        build/stm32u5xx_hal_spi.o
HAL_SPI_SuspendCallback                           build/stm32u5xx_hal_spi.o
HAL_SPI_Transmit                                  build/stm32u5xx_hal_spi.o
HAL_SPI_TransmitReceive                           build/stm32u5xx_hal_spi.o
HAL_SPI_TransmitReceive_DMA                       build/stm32u5xx_hal_spi.o
                                                  build/spi.o
HAL_SPI_TransmitReceive_IT                        build/stm32u5xx_hal_spi.o
HAL_SPI_Transmit_DMA                              build/stm32u5xx_hal_spi.o
HAL_SPI_Transmit_IT                               build/stm32u5xx_hal_spi.o
HAL_SPI_TxCpltCallback                            build/stm32u5xx_hal_spi.o
HAL_SPI_TxHalfCpltCallback                        build/stm32u5xx_hal_spi.o
HAL_SPI_TxRxCpltCallback                          build/spi.o
                                                  build/stm32u5xx_hal_spi.o
HAL_SPI_TxRxHalfCpltCallback                      build/stm32u5xx_hal_spi.o
HAL_SYSTICK_CLKSourceConfig                       build/stm32u5xx_hal_cortex.o
HAL_SYSTICK_Callback                              build/stm32u5xx_hal_cortex.o
HAL_SYSTICK_Config                                build/stm32u5xx_hal_cortex.o
HAL_SYSTICK_GetCLKSourceConfig                    build/stm32u5xx_hal_cortex.o
HAL_SYSTICK_IRQHandler                            build/stm32u5xx_hal_cortex.o
HASH_IRQHandler                                   build/startup_stm32u535xx.o
HardFault_Handler                                 build/startup_stm32u535xx.o
I2C1_ER_IRQHandler                                build/startup_stm32u535xx.o
I2C1_EV_IRQHandler                                build/startup_stm32u535xx.o
I2C2_ER_IRQHandler                                build/startup_stm32u535xx.o
I2C2_EV_IRQHandler                                build/startup_stm32u535xx.o
I2C3_ER_IRQHandler                                build/startup_stm32u535xx.o
I2C3_EV_IRQHandler                                build/startup_stm32u535xx.o
I2C4_ER_IRQHandler                                build/startup_stm32u535xx.o
I2C4_EV_IRQHandler                                build/startup_stm32u535xx.o
ICACHE_IRQHandler                                 build/startup_stm32u535xx.o
IWDG_IRQHandler                                   build/startup_stm32u535xx.o
LL_ADC_CommonDeInit                               build/stm32u5xx_ll_adc.o
LL_ADC_CommonInit                                 build/stm32u5xx_ll_adc.o
LL_ADC_CommonStructInit                           build/stm32u5xx_ll_adc.o
LL_ADC_DeInit                                     build/stm32u5xx_ll_adc.o
LL_ADC_INJ_Init                                   build/stm32u5xx_ll_adc.o
LL_ADC_INJ_StructInit                             build/stm32u5xx_ll_adc.o
LL_ADC_Init                                       build/stm32u5xx_ll_adc.o
LL_ADC_REG_Init                                   build/stm32u5xx_ll_adc.o
LL_ADC_REG_StructInit                             build/stm32u5xx_ll_adc.o
LL_ADC_StructInit                                 build/stm32u5xx_ll_adc.o
LL_DMA_ConnectLinkNode                            build/stm32u5xx_ll_dma.o
LL_DMA_CreateLinkNode                             build/stm32u5xx_ll_dma.o
LL_DMA_DeInit                                     build/stm32u5xx_ll_dma.o
LL_DMA_DisconnectNextLinkNode                     build/stm32u5xx_ll_dma.o
LL_DMA_Init                                       build/stm32u5xx_ll_dma.o
LL_DMA_ListStructInit                             build/stm32u5xx_ll_dma.o
LL_DMA_List_DeInit                                build/stm32u5xx_ll_dma.o
LL_DMA_List_Init                                  build/stm32u5xx_ll_dma.o
LL_DMA_NodeStructInit                             build/stm32u5xx_ll_dma.o
LL_DMA_StructInit                                 build/stm32u5xx_ll_dma.o
LL_EXTI_DeInit                                    build/stm32u5xx_ll_exti.o
LL_EXTI_Init                                      build/stm32u5xx_ll_exti.o
LL_EXTI_StructInit                                build/stm32u5xx_ll_exti.o
LL_GPIO_DeInit                                    build/stm32u5xx_ll_gpio.o
LL_GPIO_Init                                      build/stm32u5xx_ll_gpio.o
                                                  build/spi.o
                                                  build/uart.o
                                                  build/gpio.o
LL_GPIO_StructInit                                build/stm32u5xx_ll_gpio.o
LL_Init1msTick                                    build/stm32u5xx_ll_utils.o
LL_Init1msTick_HCLK_Div8                          build/stm32u5xx_ll_utils.o
LL_Init1msTick_LSE                                build/stm32u5xx_ll_utils.o
LL_Init1msTick_LSI                                build/stm32u5xx_ll_utils.o
LL_LPUART_DeInit                                  build/stm32u5xx_ll_lpuart.o
LL_LPUART_Init                                    build/stm32u5xx_ll_lpuart.o
                                                  build/uart.o
LL_LPUART_StructInit                              build/stm32u5xx_ll_lpuart.o
LL_PLL_ConfigSystemClock_HSE                      build/stm32u5xx_ll_utils.o
LL_PLL_ConfigSystemClock_HSI                      build/stm32u5xx_ll_utils.o
LL_PLL_ConfigSystemClock_MSI                      build/stm32u5xx_ll_utils.o
LL_PWR_DeInit                                     build/stm32u5xx_ll_pwr.o
LL_RCC_DeInit                                     build/stm32u5xx_ll_rcc.o
LL_RCC_GetADCDACClockFreq                         build/stm32u5xx_ll_rcc.o
LL_RCC_GetADF1ClockFreq                           build/stm32u5xx_ll_rcc.o
LL_RCC_GetDAC1ClockFreq                           build/stm32u5xx_ll_rcc.o
LL_RCC_GetFDCANClockFreq                          build/stm32u5xx_ll_rcc.o
LL_RCC_GetI2CClockFreq                            build/stm32u5xx_ll_rcc.o
LL_RCC_GetLPTIMClockFreq                          build/stm32u5xx_ll_rcc.o
LL_RCC_GetLPUARTClockFreq                         build/stm32u5xx_ll_rcc.o
                                                  build/stm32u5xx_ll_lpuart.o
LL_RCC_GetMDF1ClockFreq                           build/stm32u5xx_ll_rcc.o
LL_RCC_GetOCTOSPIClockFreq                        build/stm32u5xx_ll_rcc.o
LL_RCC_GetRNGClockFreq                            build/stm32u5xx_ll_rcc.o
LL_RCC_GetSAIClockFreq                            build/stm32u5xx_ll_rcc.o
LL_RCC_GetSDMMCClockFreq                          build/stm32u5xx_ll_rcc.o
LL_RCC_GetSDMMCKernelClockFreq                    build/stm32u5xx_ll_rcc.o
LL_RCC_GetSPIClockFreq                            build/stm32u5xx_ll_rcc.o
LL_RCC_GetSystemClocksFreq                        build/stm32u5xx_ll_rcc.o
LL_RCC_GetUARTClockFreq                           build/stm32u5xx_ll_rcc.o
                                                  build/stm32u5xx_ll_usart.o
LL_RCC_GetUSARTClockFreq                          build/stm32u5xx_ll_rcc.o
                                                  build/stm32u5xx_ll_usart.o
LL_RCC_GetUSBClockFreq                            build/stm32u5xx_ll_rcc.o
LL_RTC_ALMA_Init                                  build/stm32u5xx_ll_rtc.o
LL_RTC_ALMA_StructInit                            build/stm32u5xx_ll_rtc.o
LL_RTC_ALMB_Init                                  build/stm32u5xx_ll_rtc.o
LL_RTC_ALMB_StructInit                            build/stm32u5xx_ll_rtc.o
LL_RTC_DATE_Init                                  build/stm32u5xx_ll_rtc.o
LL_RTC_DATE_StructInit                            build/stm32u5xx_ll_rtc.o
LL_RTC_DeInit                                     build/stm32u5xx_ll_rtc.o
LL_RTC_EnterInitMode                              build/stm32u5xx_ll_rtc.o
LL_RTC_ExitInitMode                               build/stm32u5xx_ll_rtc.o
LL_RTC_Init                                       build/stm32u5xx_ll_rtc.o
LL_RTC_StructInit                                 build/stm32u5xx_ll_rtc.o
LL_RTC_TIME_Init                                  build/stm32u5xx_ll_rtc.o
LL_RTC_TIME_StructInit                            build/stm32u5xx_ll_rtc.o
LL_RTC_WaitForSynchro                             build/stm32u5xx_ll_rtc.o
LL_SPI_DeInit                                     build/stm32u5xx_ll_spi.o
LL_SPI_Init                                       build/stm32u5xx_ll_spi.o
LL_SPI_StructInit                                 build/stm32u5xx_ll_spi.o
LL_SetFlashLatency                                build/stm32u5xx_ll_utils.o
LL_SetSystemCoreClock                             build/stm32u5xx_ll_utils.o
                                                  build/sys.o
LL_TIM_BDTR_Init                                  build/stm32u5xx_ll_tim.o
LL_TIM_BDTR_StructInit                            build/stm32u5xx_ll_tim.o
LL_TIM_DeInit                                     build/stm32u5xx_ll_tim.o
LL_TIM_ENCODER_Init                               build/stm32u5xx_ll_tim.o
LL_TIM_ENCODER_StructInit                         build/stm32u5xx_ll_tim.o
LL_TIM_HALLSENSOR_Init                            build/stm32u5xx_ll_tim.o
LL_TIM_HALLSENSOR_StructInit                      build/stm32u5xx_ll_tim.o
LL_TIM_IC_Init                                    build/stm32u5xx_ll_tim.o
LL_TIM_IC_StructInit                              build/stm32u5xx_ll_tim.o
LL_TIM_Init                                       build/stm32u5xx_ll_tim.o
LL_TIM_OC_Init                                    build/stm32u5xx_ll_tim.o
LL_TIM_OC_StructInit                              build/stm32u5xx_ll_tim.o
LL_TIM_StructInit                                 build/stm32u5xx_ll_tim.o
LL_USART_ClockInit                                build/stm32u5xx_ll_usart.o
LL_USART_ClockStructInit                          build/stm32u5xx_ll_usart.o
LL_USART_DeInit                                   build/stm32u5xx_ll_usart.o
LL_USART_Init                                     build/stm32u5xx_ll_usart.o
LL_USART_StructInit                               build/stm32u5xx_ll_usart.o
LL_mDelay                                         build/stm32u5xx_ll_utils.o
LPDMA1_Channel0_IRQHandler                        build/startup_stm32u535xx.o
LPDMA1_Channel1_IRQHandler                        build/startup_stm32u535xx.o
LPDMA1_Channel2_IRQHandler                        build/startup_stm32u535xx.o
LPDMA1_Channel3_IRQHandler                        build/startup_stm32u535xx.o
LPTIM1_IRQHandler                                 build/startup_stm32u535xx.o
LPTIM2_IRQHandler                                 build/startup_stm32u535xx.o
LPTIM3_IRQHandler                                 build/startup_stm32u535xx.o
LPTIM4_IRQHandler                                 build/startup_stm32u535xx.o
LPUART1_IRQHandler                                build/uart.o
LSECSSD_IRQHandler                                build/startup_stm32u535xx.o
MDF1_FLT0_IRQHandler                              build/startup_stm32u535xx.o
MDF1_FLT1_IRQHandler                              build/startup_stm32u535xx.o
MSIRangeTable                                     build/system_stm32u5xx.o
                                                  build/stm32u5xx_ll_utils.o
                                                  build/stm32u5xx_ll_rcc.o
MemManage_Handler                                 build/startup_stm32u535xx.o
NMI_Handler                                       build/startup_stm32u535xx.o
OCTOSPI1_IRQHandler                               build/startup_stm32u535xx.o
PVD_PVM_IRQHandler                                build/startup_stm32u535xx.o
PWR_S3WU_IRQHandler                               build/startup_stm32u535xx.o
PendSV_Handler                                    build/startup_stm32u535xx.o
RAMCFG_IRQHandler                                 build/startup_stm32u535xx.o
RCC_IRQHandler                                    build/startup_stm32u535xx.o
RCC_S_IRQHandler                                  build/startup_stm32u535xx.o
RNG_IRQHandler                                    build/startup_stm32u535xx.o
RTC_IRQHandler                                    build/startup_stm32u535xx.o
RTC_S_IRQHandler                                  build/startup_stm32u535xx.o
Reset_Handler                                     build/startup_stm32u535xx.o
SAI1_IRQHandler                                   build/startup_stm32u535xx.o
SDMMC1_IRQHandler                                 build/startup_stm32u535xx.o
SPI1_IRQHandler                                   build/spi.o
SPI2_IRQHandler                                   build/startup_stm32u535xx.o
SPI3_IRQHandler                                   build/startup_stm32u535xx.o
SVC_Handler                                       build/startup_stm32u535xx.o
SecureFault_Handler                               build/startup_stm32u535xx.o
SysTick_Handler                                   build/startup_stm32u535xx.o
SystemCoreClock                                   build/system_stm32u5xx.o
                                                  build/sys.o
                                                  build/stm32u5xx_hal_spi.o
                                                  build/stm32u5xx_ll_utils.o
SystemCoreClockUpdate                             build/system_stm32u5xx.o
SystemInit                                        build/system_stm32u5xx.o
                                                  build/startup_stm32u535xx.o
TAMP_IRQHandler                                   build/startup_stm32u535xx.o
TIM15_IRQHandler                                  build/startup_stm32u535xx.o
TIM16_IRQHandler                                  build/startup_stm32u535xx.o
TIM17_IRQHandler                                  build/startup_stm32u535xx.o
TIM1_BRK_IRQHandler                               build/startup_stm32u535xx.o
TIM1_CC_IRQHandler                                build/startup_stm32u535xx.o
TIM1_TRG_COM_IRQHandler                           build/startup_stm32u535xx.o
TIM1_UP_IRQHandler                                build/startup_stm32u535xx.o
TIM2_IRQHandler                                   build/time.o
TIM3_IRQHandler                                   build/startup_stm32u535xx.o
TIM4_IRQHandler                                   build/startup_stm32u535xx.o
TIM5_IRQHandler                                   build/startup_stm32u535xx.o
TIM6_IRQHandler                                   build/startup_stm32u535xx.o
TIM7_IRQHandler                                   build/startup_stm32u535xx.o
TIM8_BRK_IRQHandler                               build/startup_stm32u535xx.o
TIM8_CC_IRQHandler                                build/startup_stm32u535xx.o
TIM8_TRG_COM_IRQHandler                           build/startup_stm32u535xx.o
TIM8_UP_IRQHandler                                build/startup_stm32u535xx.o
TSC_IRQHandler                                    build/startup_stm32u535xx.o
UART4_IRQHandler                                  build/startup_stm32u535xx.o
UART5_IRQHandler                                  build/startup_stm32u535xx.o
USART1_IRQHandler                                 build/startup_stm32u535xx.o
USART3_IRQHandler                                 build/startup_stm32u535xx.o
USBD_Device_FS                                    build/ux_device_descriptors.o
USBD_Device_HS                                    build/ux_device_descriptors.o
USBD_Get_Configuration_Number                     build/ux_device_descriptors.o
                                                  build/usb_device.o
USBD_Get_Device_Framework_Speed                   build/ux_device_descriptors.o
                                                  build/usb_device.o
USBD_Get_Interface_Number                         build/ux_device_descriptors.o
                                                  build/usb_device.o
USBD_Get_Language_Id_Framework                    build/ux_device_descriptors.o
                                                  build/usb_device.o
USBD_Get_String_Framework                         build/ux_device_descriptors.o
                                                  build/usb_device.o
USBD_language_id_framework                        build/ux_device_descriptors.o
USBD_string_framework                             build/ux_device_descriptors.o
USB_ActivateEndpoint                              build/stm32u5xx_ll_usb.o
                                                  build/stm32u5xx_hal_pcd.o
USB_ActivateRemoteWakeup                          build/stm32u5xx_ll_usb.o
                                                  build/stm32u5xx_hal_pcd.o
USB_CoreInit                                      build/stm32u5xx_ll_usb.o
                                                  build/stm32u5xx_hal_pcd.o
USB_DeActivateRemoteWakeup                        build/stm32u5xx_ll_usb.o
                                                  build/stm32u5xx_hal_pcd.o
USB_DeactivateEndpoint                            build/stm32u5xx_ll_usb.o
                                                  build/stm32u5xx_hal_pcd.o
USB_DevConnect                                    build/stm32u5xx_ll_usb.o
                                                  build/stm32u5xx_hal_pcd.o
USB_DevDisconnect                                 build/stm32u5xx_ll_usb.o
                                                  build/stm32u5xx_hal_pcd.o
USB_DevInit                                       build/stm32u5xx_ll_usb.o
                                                  build/stm32u5xx_hal_pcd.o
USB_DisableGlobalInt                              build/stm32u5xx_ll_usb.o
                                                  build/stm32u5xx_hal_pcd.o
USB_EPClearStall                                  build/stm32u5xx_ll_usb.o
                                                  build/stm32u5xx_hal_pcd.o
USB_EPSetStall                                    build/stm32u5xx_ll_usb.o
                                                  build/stm32u5xx_hal_pcd.o
USB_EPStartXfer                                   build/stm32u5xx_ll_usb.o
                                                  build/stm32u5xx_hal_pcd.o
USB_EPStopXfer                                    build/stm32u5xx_ll_usb.o
                                                  build/stm32u5xx_hal_pcd.o
USB_EnableGlobalInt                               build/stm32u5xx_ll_usb.o
                                                  build/stm32u5xx_hal_pcd.o
USB_FlushRxFifo                                   build/stm32u5xx_ll_usb.o
                                                  build/stm32u5xx_hal_pcd.o
USB_FlushTxFifo                                   build/stm32u5xx_ll_usb.o
                                                  build/stm32u5xx_hal_pcd.o
USB_GetCurrentFrame                               build/stm32u5xx_ll_usb.o
USB_GetHostSpeed                                  build/stm32u5xx_ll_usb.o
USB_HC_DoubleBuffer                               build/stm32u5xx_ll_usb.o
USB_HC_IN_Halt                                    build/stm32u5xx_ll_usb.o
USB_HC_Init                                       build/stm32u5xx_ll_usb.o
USB_HC_OUT_Halt                                   build/stm32u5xx_ll_usb.o
USB_HC_StartXfer                                  build/stm32u5xx_ll_usb.o
USB_HostInit                                      build/stm32u5xx_ll_usb.o
USB_IRQHandler                                    build/usb_device.o
USB_ReadInterrupts                                build/stm32u5xx_ll_usb.o
                                                  build/stm32u5xx_hal_pcd.o
USB_ReadPMA                                       build/stm32u5xx_ll_usb.o
                                                  build/stm32u5xx_hal_pcd.o
USB_ResetPort                                     build/stm32u5xx_ll_usb.o
USB_SetCurrentMode                                build/stm32u5xx_ll_usb.o
                                                  build/stm32u5xx_hal_pcd.o
USB_SetDevAddress                                 build/stm32u5xx_ll_usb.o
                                                  build/stm32u5xx_hal_pcd.o
USB_StopDevice                                    build/stm32u5xx_ll_usb.o
                                                  build/stm32u5xx_hal_pcd.o
USB_StopHost                                      build/stm32u5xx_ll_usb.o
USB_WritePMA                                      build/stm32u5xx_ll_usb.o
                                                  build/stm32u5xx_hal_pcd.o
UsageFault_Handler                                build/startup_stm32u535xx.o
UserClassInstance                                 build/ux_device_descriptors.o
WWDG_IRQHandler                                   build/startup_stm32u535xx.o
_ITM_deregisterTMCloneTable                       /usr/lib/gcc/arm-none-eabi/10.3.1/thumb/v8-m.main+fp/hard/crtbegin.o
_ITM_registerTMCloneTable                         /usr/lib/gcc/arm-none-eabi/10.3.1/thumb/v8-m.main+fp/hard/crtbegin.o
__TMC_END__                                       /usr/lib/gcc/arm-none-eabi/10.3.1/thumb/v8-m.main+fp/hard/crtend.o
                                                  /usr/lib/gcc/arm-none-eabi/10.3.1/thumb/v8-m.main+fp/hard/crtbegin.o
__aeabi_idiv0                                     /usr/lib/gcc/arm-none-eabi/10.3.1/thumb/v8-m.main+fp/hard/libgcc.a(_dvmd_tls.o)
__aeabi_ldiv0                                     /usr/lib/gcc/arm-none-eabi/10.3.1/thumb/v8-m.main+fp/hard/libgcc.a(_dvmd_tls.o)
                                                  /usr/lib/gcc/arm-none-eabi/10.3.1/thumb/v8-m.main+fp/hard/libgcc.a(_aeabi_uldivmod.o)
                                                  /usr/lib/gcc/arm-none-eabi/10.3.1/thumb/v8-m.main+fp/hard/libgcc.a(_aeabi_ldivmod.o)
__aeabi_ldivmod                                   /usr/lib/gcc/arm-none-eabi/10.3.1/thumb/v8-m.main+fp/hard/libgcc.a(_aeabi_ldivmod.o)
                                                  build/stm32u5xx_ll_lpuart.o
__aeabi_uldivmod                                  /usr/lib/gcc/arm-none-eabi/10.3.1/thumb/v8-m.main+fp/hard/libgcc.a(_aeabi_uldivmod.o)
                                                  build/stm32u5xx_ll_lpuart.o
__atexit_dummy                                    /usr/lib/gcc/arm-none-eabi/10.3.1/../../../arm-none-eabi/lib/thumb/v8-m.main+fp/hard/libc_nano.a(lib_a-__atexit.o)
__bss_end__                                       /usr/lib/gcc/arm-none-eabi/10.3.1/../../../arm-none-eabi/lib/thumb/v8-m.main+fp/hard/crt0.o
__bss_start__                                     /usr/lib/gcc/arm-none-eabi/10.3.1/../../../arm-none-eabi/lib/thumb/v8-m.main+fp/hard/crt0.o
__call_exitprocs                                  /usr/lib/gcc/arm-none-eabi/10.3.1/../../../arm-none-eabi/lib/thumb/v8-m.main+fp/hard/libc_nano.a(lib_a-__call_atexit.o)
                                                  /usr/lib/gcc/arm-none-eabi/10.3.1/../../../arm-none-eabi/lib/thumb/v8-m.main+fp/hard/libc_nano.a(lib_a-__atexit.o)
                                                  /usr/lib/gcc/arm-none-eabi/10.3.1/../../../arm-none-eabi/lib/thumb/v8-m.main+fp/hard/libc_nano.a(lib_a-exit.o)
__deregister_frame_info                           /usr/lib/gcc/arm-none-eabi/10.3.1/thumb/v8-m.main+fp/hard/crtbegin.o
__dso_handle                                      /usr/lib/gcc/arm-none-eabi/10.3.1/thumb/v8-m.main+fp/hard/crtbegin.o
__fini_array_end                                  /usr/lib/gcc/arm-none-eabi/10.3.1/../../../arm-none-eabi/lib/thumb/v8-m.main+fp/hard/libc_nano.a(lib_a-fini.o)
__fini_array_start                                /usr/lib/gcc/arm-none-eabi/10.3.1/../../../arm-none-eabi/lib/thumb/v8-m.main+fp/hard/libc_nano.a(lib_a-fini.o)
__fp_lock_all                                     /usr/lib/gcc/arm-none-eabi/10.3.1/../../../arm-none-eabi/lib/thumb/v8-m.main+fp/hard/libc_nano.a(lib_a-findfp.o)
__fp_unlock_all                                   /usr/lib/gcc/arm-none-eabi/10.3.1/../../../arm-none-eabi/lib/thumb/v8-m.main+fp/hard/libc_nano.a(lib_a-findfp.o)
__init_array_end                                  /usr/lib/gcc/arm-none-eabi/10.3.1/../../../arm-none-eabi/lib/thumb/v8-m.main+fp/hard/libc_nano.a(lib_a-init.o)
__init_array_start                                /usr/lib/gcc/arm-none-eabi/10.3.1/../../../arm-none-eabi/lib/thumb/v8-m.main+fp/hard/libc_nano.a(lib_a-init.o)
__libc_fini_array                                 /usr/lib/gcc/arm-none-eabi/10.3.1/../../../arm-none-eabi/lib/thumb/v8-m.main+fp/hard/libc_nano.a(lib_a-fini.o)
                                                  /usr/lib/gcc/arm-none-eabi/10.3.1/../../../arm-none-eabi/lib/thumb/v8-m.main+fp/hard/crt0.o
__libc_init_array                                 /usr/lib/gcc/arm-none-eabi/10.3.1/../../../arm-none-eabi/lib/thumb/v8-m.main+fp/hard/libc_nano.a(lib_a-init.o)
                                                  build/startup_stm32u535xx.o
                                                  /usr/lib/gcc/arm-none-eabi/10.3.1/../../../arm-none-eabi/lib/thumb/v8-m.main+fp/hard/crt0.o
__malloc_free_list                                /usr/lib/gcc/arm-none-eabi/10.3.1/../../../arm-none-eabi/lib/thumb/v8-m.main+fp/hard/libc_nano.a(lib_a-nano-mallocr.o)
                                                  /usr/lib/gcc/arm-none-eabi/10.3.1/../../../arm-none-eabi/lib/thumb/v8-m.main+fp/hard/libc_nano.a(lib_a-nano-freer.o)
__malloc_lock                                     /usr/lib/gcc/arm-none-eabi/10.3.1/../../../arm-none-eabi/lib/thumb/v8-m.main+fp/hard/libc_nano.a(lib_a-mlock.o)
                                                  /usr/lib/gcc/arm-none-eabi/10.3.1/../../../arm-none-eabi/lib/thumb/v8-m.main+fp/hard/libc_nano.a(lib_a-nano-mallocr.o)
                                                  /usr/lib/gcc/arm-none-eabi/10.3.1/../../../arm-none-eabi/lib/thumb/v8-m.main+fp/hard/libc_nano.a(lib_a-nano-freer.o)
__malloc_sbrk_start                               /usr/lib/gcc/arm-none-eabi/10.3.1/../../../arm-none-eabi/lib/thumb/v8-m.main+fp/hard/libc_nano.a(lib_a-nano-mallocr.o)
__malloc_unlock                                   /usr/lib/gcc/arm-none-eabi/10.3.1/../../../arm-none-eabi/lib/thumb/v8-m.main+fp/hard/libc_nano.a(lib_a-mlock.o)
                                                  /usr/lib/gcc/arm-none-eabi/10.3.1/../../../arm-none-eabi/lib/thumb/v8-m.main+fp/hard/libc_nano.a(lib_a-nano-mallocr.o)
                                                  /usr/lib/gcc/arm-none-eabi/10.3.1/../../../arm-none-eabi/lib/thumb/v8-m.main+fp/hard/libc_nano.a(lib_a-nano-freer.o)
__on_exit_args                                    /usr/lib/gcc/arm-none-eabi/10.3.1/../../../arm-none-eabi/lib/thumb/v8-m.main+fp/hard/libc_nano.a(lib_a-__atexit.o)
__preinit_array_end                               /usr/lib/gcc/arm-none-eabi/10.3.1/../../../arm-none-eabi/lib/thumb/v8-m.main+fp/hard/libc_nano.a(lib_a-init.o)
__preinit_array_start                             /usr/lib/gcc/arm-none-eabi/10.3.1/../../../arm-none-eabi/lib/thumb/v8-m.main+fp/hard/libc_nano.a(lib_a-init.o)
__register_exitproc                               /usr/lib/gcc/arm-none-eabi/10.3.1/../../../arm-none-eabi/lib/thumb/v8-m.main+fp/hard/libc_nano.a(lib_a-__atexit.o)
                                                  /usr/lib/gcc/arm-none-eabi/10.3.1/../../../arm-none-eabi/lib/thumb/v8-m.main+fp/hard/libc_nano.a(lib_a-atexit.o)
__register_frame_info                             /usr/lib/gcc/arm-none-eabi/10.3.1/thumb/v8-m.main+fp/hard/crtbegin.o
__sclose                                          /usr/lib/gcc/arm-none-eabi/10.3.1/../../../arm-none-eabi/lib/thumb/v8-m.main+fp/hard/libc_nano.a(lib_a-stdio.o)
                                                  /usr/lib/gcc/arm-none-eabi/10.3.1/../../../arm-none-eabi/lib/thumb/v8-m.main+fp/hard/libc_nano.a(lib_a-findfp.o)
__seofread                                        /usr/lib/gcc/arm-none-eabi/10.3.1/../../../arm-none-eabi/lib/thumb/v8-m.main+fp/hard/libc_nano.a(lib_a-stdio.o)
__sf_fake_stderr                                  /usr/lib/gcc/arm-none-eabi/10.3.1/../../../arm-none-eabi/lib/thumb/v8-m.main+fp/hard/libc_nano.a(lib_a-findfp.o)
                                                  /usr/lib/gcc/arm-none-eabi/10.3.1/../../../arm-none-eabi/lib/thumb/v8-m.main+fp/hard/libc_nano.a(lib_a-nano-vfprintf.o)
                                                  /usr/lib/gcc/arm-none-eabi/10.3.1/../../../arm-none-eabi/lib/thumb/v8-m.main+fp/hard/libc_nano.a(lib_a-wsetup.o)
                                                  /usr/lib/gcc/arm-none-eabi/10.3.1/../../../arm-none-eabi/lib/thumb/v8-m.main+fp/hard/libc_nano.a(lib_a-wbuf.o)
                                                  /usr/lib/gcc/arm-none-eabi/10.3.1/../../../arm-none-eabi/lib/thumb/v8-m.main+fp/hard/libc_nano.a(lib_a-puts.o)
                                                  /usr/lib/gcc/arm-none-eabi/10.3.1/../../../arm-none-eabi/lib/thumb/v8-m.main+fp/hard/libc_nano.a(lib_a-impure.o)
                                                  /usr/lib/gcc/arm-none-eabi/10.3.1/../../../arm-none-eabi/lib/thumb/v8-m.main+fp/hard/libc_nano.a(lib_a-fflush.o)
__sf_fake_stdin                                   /usr/lib/gcc/arm-none-eabi/10.3.1/../../../arm-none-eabi/lib/thumb/v8-m.main+fp/hard/libc_nano.a(lib_a-findfp.o)
                                                  /usr/lib/gcc/arm-none-eabi/10.3.1/../../../arm-none-eabi/lib/thumb/v8-m.main+fp/hard/libc_nano.a(lib_a-nano-vfprintf.o)
                                                  /usr/lib/gcc/arm-none-eabi/10.3.1/../../../arm-none-eabi/lib/thumb/v8-m.main+fp/hard/libc_nano.a(lib_a-wsetup.o)
                                                  /usr/lib/gcc/arm-none-eabi/10.3.1/../../../arm-none-eabi/lib/thumb/v8-m.main+fp/hard/libc_nano.a(lib_a-wbuf.o)
                                                  /usr/lib/gcc/arm-none-eabi/10.3.1/../../../arm-none-eabi/lib/thumb/v8-m.main+fp/hard/libc_nano.a(lib_a-puts.o)
                                                  /usr/lib/gcc/arm-none-eabi/10.3.1/../../../arm-none-eabi/lib/thumb/v8-m.main+fp/hard/libc_nano.a(lib_a-impure.o)
                                                  /usr/lib/gcc/arm-none-eabi/10.3.1/../../../arm-none-eabi/lib/thumb/v8-m.main+fp/hard/libc_nano.a(lib_a-fflush.o)
__sf_fake_stdout                                  /usr/lib/gcc/arm-none-eabi/10.3.1/../../../arm-none-eabi/lib/thumb/v8-m.main+fp/hard/libc_nano.a(lib_a-findfp.o)
                                                  /usr/lib/gcc/arm-none-eabi/10.3.1/../../../arm-none-eabi/lib/thumb/v8-m.main+fp/hard/libc_nano.a(lib_a-nano-vfprintf.o)
                                                  /usr/lib/gcc/arm-none-eabi/10.3.1/../../../arm-none-eabi/lib/thumb/v8-m.main+fp/hard/libc_nano.a(lib_a-wsetup.o)
                                                  /usr/lib/gcc/arm-none-eabi/10.3.1/../../../arm-none-eabi/lib/thumb/v8-m.main+fp/hard/libc_nano.a(lib_a-wbuf.o)
                                                  /usr/lib/gcc/arm-none-eabi/10.3.1/../../../arm-none-eabi/lib/thumb/v8-m.main+fp/hard/libc_nano.a(lib_a-puts.o)
                                                  /usr/lib/gcc/arm-none-eabi/10.3.1/../../../arm-none-eabi/lib/thumb/v8-m.main+fp/hard/libc_nano.a(lib_a-impure.o)
                                                  /usr/lib/gcc/arm-none-eabi/10.3.1/../../../arm-none-eabi/lib/thumb/v8-m.main+fp/hard/libc_nano.a(lib_a-fflush.o)
__sflush_r                                        /usr/lib/gcc/arm-none-eabi/10.3.1/../../../arm-none-eabi/lib/thumb/v8-m.main+fp/hard/libc_nano.a(lib_a-fflush.o)
__sfmoreglue                                      /usr/lib/gcc/arm-none-eabi/10.3.1/../../../arm-none-eabi/lib/thumb/v8-m.main+fp/hard/libc_nano.a(lib_a-findfp.o)
__sfp                                             /usr/lib/gcc/arm-none-eabi/10.3.1/../../../arm-none-eabi/lib/thumb/v8-m.main+fp/hard/libc_nano.a(lib_a-findfp.o)
__sfp_lock_acquire                                /usr/lib/gcc/arm-none-eabi/10.3.1/../../../arm-none-eabi/lib/thumb/v8-m.main+fp/hard/libc_nano.a(lib_a-findfp.o)
__sfp_lock_release                                /usr/lib/gcc/arm-none-eabi/10.3.1/../../../arm-none-eabi/lib/thumb/v8-m.main+fp/hard/libc_nano.a(lib_a-findfp.o)
__sfputs_r                                        /usr/lib/gcc/arm-none-eabi/10.3.1/../../../arm-none-eabi/lib/thumb/v8-m.main+fp/hard/libc_nano.a(lib_a-nano-vfprintf.o)
__sfvwrite_r                                      /usr/lib/gcc/arm-none-eabi/10.3.1/../../../arm-none-eabi/lib/thumb/v8-m.main+fp/hard/libc_nano.a(lib_a-fvwrite.o)
                                                  /usr/lib/gcc/arm-none-eabi/10.3.1/../../../arm-none-eabi/lib/thumb/v8-m.main+fp/hard/libc_nano.a(lib_a-nano-vfprintf.o)
__sinit                                           /usr/lib/gcc/arm-none-eabi/10.3.1/../../../arm-none-eabi/lib/thumb/v8-m.main+fp/hard/libc_nano.a(lib_a-findfp.o)
                                                  /usr/lib/gcc/arm-none-eabi/10.3.1/../../../arm-none-eabi/lib/thumb/v8-m.main+fp/hard/libc_nano.a(lib_a-nano-vfprintf.o)
                                                  /usr/lib/gcc/arm-none-eabi/10.3.1/../../../arm-none-eabi/lib/thumb/v8-m.main+fp/hard/libc_nano.a(lib_a-wsetup.o)
                                                  /usr/lib/gcc/arm-none-eabi/10.3.1/../../../arm-none-eabi/lib/thumb/v8-m.main+fp/hard/libc_nano.a(lib_a-wbuf.o)
                                                  /usr/lib/gcc/arm-none-eabi/10.3.1/../../../arm-none-eabi/lib/thumb/v8-m.main+fp/hard/libc_nano.a(lib_a-puts.o)
                                                  /usr/lib/gcc/arm-none-eabi/10.3.1/../../../arm-none-eabi/lib/thumb/v8-m.main+fp/hard/libc_nano.a(lib_a-printf.o)
                                                  /usr/lib/gcc/arm-none-eabi/10.3.1/../../../arm-none-eabi/lib/thumb/v8-m.main+fp/hard/libc_nano.a(lib_a-fflush.o)
__sinit_lock_acquire                              /usr/lib/gcc/arm-none-eabi/10.3.1/../../../arm-none-eabi/lib/thumb/v8-m.main+fp/hard/libc_nano.a(lib_a-findfp.o)
__sinit_lock_release                              /usr/lib/gcc/arm-none-eabi/10.3.1/../../../arm-none-eabi/lib/thumb/v8-m.main+fp/hard/libc_nano.a(lib_a-findfp.o)
__smakebuf_r                                      /usr/lib/gcc/arm-none-eabi/10.3.1/../../../arm-none-eabi/lib/thumb/v8-m.main+fp/hard/libc_nano.a(lib_a-makebuf.o)
                                                  /usr/lib/gcc/arm-none-eabi/10.3.1/../../../arm-none-eabi/lib/thumb/v8-m.main+fp/hard/libc_nano.a(lib_a-wsetup.o)
__sprint_r                                        /usr/lib/gcc/arm-none-eabi/10.3.1/../../../arm-none-eabi/lib/thumb/v8-m.main+fp/hard/libc_nano.a(lib_a-nano-vfprintf.o)
__sread                                           /usr/lib/gcc/arm-none-eabi/10.3.1/../../../arm-none-eabi/lib/thumb/v8-m.main+fp/hard/libc_nano.a(lib_a-stdio.o)
                                                  /usr/lib/gcc/arm-none-eabi/10.3.1/../../../arm-none-eabi/lib/thumb/v8-m.main+fp/hard/libc_nano.a(lib_a-findfp.o)
__sseek                                           /usr/lib/gcc/arm-none-eabi/10.3.1/../../../arm-none-eabi/lib/thumb/v8-m.main+fp/hard/libc_nano.a(lib_a-stdio.o)
                                                  /usr/lib/gcc/arm-none-eabi/10.3.1/../../../arm-none-eabi/lib/thumb/v8-m.main+fp/hard/libc_nano.a(lib_a-findfp.o)
__ssprint_r                                       /usr/lib/gcc/arm-none-eabi/10.3.1/../../../arm-none-eabi/lib/thumb/v8-m.main+fp/hard/libc_nano.a(lib_a-nano-svfprintf.o)
__ssputs_r                                        /usr/lib/gcc/arm-none-eabi/10.3.1/../../../arm-none-eabi/lib/thumb/v8-m.main+fp/hard/libc_nano.a(lib_a-nano-svfprintf.o)
__stack                                           /usr/lib/gcc/arm-none-eabi/10.3.1/../../../arm-none-eabi/lib/thumb/v8-m.main+fp/hard/crt0.o
__swbuf                                           /usr/lib/gcc/arm-none-eabi/10.3.1/../../../arm-none-eabi/lib/thumb/v8-m.main+fp/hard/libc_nano.a(lib_a-wbuf.o)
__swbuf_r                                         /usr/lib/gcc/arm-none-eabi/10.3.1/../../../arm-none-eabi/lib/thumb/v8-m.main+fp/hard/libc_nano.a(lib_a-wbuf.o)
                                                  /usr/lib/gcc/arm-none-eabi/10.3.1/../../../arm-none-eabi/lib/thumb/v8-m.main+fp/hard/libc_nano.a(lib_a-nano-vfprintf.o)
                                                  /usr/lib/gcc/arm-none-eabi/10.3.1/../../../arm-none-eabi/lib/thumb/v8-m.main+fp/hard/libc_nano.a(lib_a-puts.o)
__swhatbuf_r                                      /usr/lib/gcc/arm-none-eabi/10.3.1/../../../arm-none-eabi/lib/thumb/v8-m.main+fp/hard/libc_nano.a(lib_a-makebuf.o)
__swrite                                          /usr/lib/gcc/arm-none-eabi/10.3.1/../../../arm-none-eabi/lib/thumb/v8-m.main+fp/hard/libc_nano.a(lib_a-stdio.o)
                                                  /usr/lib/gcc/arm-none-eabi/10.3.1/../../../arm-none-eabi/lib/thumb/v8-m.main+fp/hard/libc_nano.a(lib_a-findfp.o)
__swsetup_r                                       /usr/lib/gcc/arm-none-eabi/10.3.1/../../../arm-none-eabi/lib/thumb/v8-m.main+fp/hard/libc_nano.a(lib_a-wsetup.o)
                                                  /usr/lib/gcc/arm-none-eabi/10.3.1/../../../arm-none-eabi/lib/thumb/v8-m.main+fp/hard/libc_nano.a(lib_a-fvwrite.o)
                                                  /usr/lib/gcc/arm-none-eabi/10.3.1/../../../arm-none-eabi/lib/thumb/v8-m.main+fp/hard/libc_nano.a(lib_a-nano-vfprintf.o)
                                                  /usr/lib/gcc/arm-none-eabi/10.3.1/../../../arm-none-eabi/lib/thumb/v8-m.main+fp/hard/libc_nano.a(lib_a-wbuf.o)
                                                  /usr/lib/gcc/arm-none-eabi/10.3.1/../../../arm-none-eabi/lib/thumb/v8-m.main+fp/hard/libc_nano.a(lib_a-puts.o)
__udivmoddi4                                      /usr/lib/gcc/arm-none-eabi/10.3.1/thumb/v8-m.main+fp/hard/libgcc.a(_udivmoddi4.o)
                                                  /usr/lib/gcc/arm-none-eabi/10.3.1/thumb/v8-m.main+fp/hard/libgcc.a(_aeabi_uldivmod.o)
                                                  /usr/lib/gcc/arm-none-eabi/10.3.1/thumb/v8-m.main+fp/hard/libgcc.a(_aeabi_ldivmod.o)
_cleanup                                          /usr/lib/gcc/arm-none-eabi/10.3.1/../../../arm-none-eabi/lib/thumb/v8-m.main+fp/hard/libc_nano.a(lib_a-findfp.o)
_cleanup_r                                        /usr/lib/gcc/arm-none-eabi/10.3.1/../../../arm-none-eabi/lib/thumb/v8-m.main+fp/hard/libc_nano.a(lib_a-findfp.o)
                                                  /usr/lib/gcc/arm-none-eabi/10.3.1/../../../arm-none-eabi/lib/thumb/v8-m.main+fp/hard/libc_nano.a(lib_a-makebuf.o)
_close                                            /usr/lib/gcc/arm-none-eabi/10.3.1/../../../arm-none-eabi/lib/thumb/v8-m.main+fp/hard/libnosys.a(close.o)
                                                  /usr/lib/gcc/arm-none-eabi/10.3.1/../../../arm-none-eabi/lib/thumb/v8-m.main+fp/hard/libc_nano.a(lib_a-closer.o)
_close_r                                          /usr/lib/gcc/arm-none-eabi/10.3.1/../../../arm-none-eabi/lib/thumb/v8-m.main+fp/hard/libc_nano.a(lib_a-closer.o)
                                                  /usr/lib/gcc/arm-none-eabi/10.3.1/../../../arm-none-eabi/lib/thumb/v8-m.main+fp/hard/libc_nano.a(lib_a-stdio.o)
_ebss                                             build/startup_stm32u535xx.o
_edata                                            build/startup_stm32u535xx.o
_estack                                           build/startup_stm32u535xx.o
_exit                                             /usr/lib/gcc/arm-none-eabi/10.3.1/../../../arm-none-eabi/lib/thumb/v8-m.main+fp/hard/libnosys.a(_exit.o)
                                                  /usr/lib/gcc/arm-none-eabi/10.3.1/../../../arm-none-eabi/lib/thumb/v8-m.main+fp/hard/libc_nano.a(lib_a-exit.o)
_fflush_r                                         /usr/lib/gcc/arm-none-eabi/10.3.1/../../../arm-none-eabi/lib/thumb/v8-m.main+fp/hard/libc_nano.a(lib_a-fflush.o)
                                                  /usr/lib/gcc/arm-none-eabi/10.3.1/../../../arm-none-eabi/lib/thumb/v8-m.main+fp/hard/libc_nano.a(lib_a-fvwrite.o)
                                                  /usr/lib/gcc/arm-none-eabi/10.3.1/../../../arm-none-eabi/lib/thumb/v8-m.main+fp/hard/libc_nano.a(lib_a-wbuf.o)
                                                  /usr/lib/gcc/arm-none-eabi/10.3.1/../../../arm-none-eabi/lib/thumb/v8-m.main+fp/hard/libc_nano.a(lib_a-findfp.o)
_fini                                             /usr/lib/gcc/arm-none-eabi/10.3.1/thumb/v8-m.main+fp/hard/crti.o
                                                  /usr/lib/gcc/arm-none-eabi/10.3.1/../../../arm-none-eabi/lib/thumb/v8-m.main+fp/hard/libc_nano.a(lib_a-fini.o)
_free_r                                           /usr/lib/gcc/arm-none-eabi/10.3.1/../../../arm-none-eabi/lib/thumb/v8-m.main+fp/hard/libc_nano.a(lib_a-nano-freer.o)
                                                  /usr/lib/gcc/arm-none-eabi/10.3.1/../../../arm-none-eabi/lib/thumb/v8-m.main+fp/hard/libc_nano.a(lib_a-nano-reallocr.o)
                                                  /usr/lib/gcc/arm-none-eabi/10.3.1/../../../arm-none-eabi/lib/thumb/v8-m.main+fp/hard/libc_nano.a(lib_a-fvwrite.o)
                                                  /usr/lib/gcc/arm-none-eabi/10.3.1/../../../arm-none-eabi/lib/thumb/v8-m.main+fp/hard/libc_nano.a(lib_a-reent.o)
                                                  /usr/lib/gcc/arm-none-eabi/10.3.1/../../../arm-none-eabi/lib/thumb/v8-m.main+fp/hard/libc_nano.a(lib_a-nano-svfprintf.o)
                                                  /usr/lib/gcc/arm-none-eabi/10.3.1/../../../arm-none-eabi/lib/thumb/v8-m.main+fp/hard/libc_nano.a(lib_a-wsetup.o)
                                                  /usr/lib/gcc/arm-none-eabi/10.3.1/../../../arm-none-eabi/lib/thumb/v8-m.main+fp/hard/libc_nano.a(lib_a-fflush.o)
_fstat                                            /usr/lib/gcc/arm-none-eabi/10.3.1/../../../arm-none-eabi/lib/thumb/v8-m.main+fp/hard/libnosys.a(fstat.o)
                                                  /usr/lib/gcc/arm-none-eabi/10.3.1/../../../arm-none-eabi/lib/thumb/v8-m.main+fp/hard/libc_nano.a(lib_a-fstatr.o)
_fstat_r                                          /usr/lib/gcc/arm-none-eabi/10.3.1/../../../arm-none-eabi/lib/thumb/v8-m.main+fp/hard/libc_nano.a(lib_a-fstatr.o)
                                                  /usr/lib/gcc/arm-none-eabi/10.3.1/../../../arm-none-eabi/lib/thumb/v8-m.main+fp/hard/libc_nano.a(lib_a-makebuf.o)
_fwalk                                            /usr/lib/gcc/arm-none-eabi/10.3.1/../../../arm-none-eabi/lib/thumb/v8-m.main+fp/hard/libc_nano.a(lib_a-fwalk.o)
                                                  /usr/lib/gcc/arm-none-eabi/10.3.1/../../../arm-none-eabi/lib/thumb/v8-m.main+fp/hard/libc_nano.a(lib_a-findfp.o)
_fwalk_reent                                      /usr/lib/gcc/arm-none-eabi/10.3.1/../../../arm-none-eabi/lib/thumb/v8-m.main+fp/hard/libc_nano.a(lib_a-fwalk.o)
                                                  /usr/lib/gcc/arm-none-eabi/10.3.1/../../../arm-none-eabi/lib/thumb/v8-m.main+fp/hard/libc_nano.a(lib_a-findfp.o)
                                                  /usr/lib/gcc/arm-none-eabi/10.3.1/../../../arm-none-eabi/lib/thumb/v8-m.main+fp/hard/libc_nano.a(lib_a-fflush.o)
_global_atexit                                    /usr/lib/gcc/arm-none-eabi/10.3.1/../../../arm-none-eabi/lib/thumb/v8-m.main+fp/hard/libc_nano.a(lib_a-__call_atexit.o)
                                                  /usr/lib/gcc/arm-none-eabi/10.3.1/../../../arm-none-eabi/lib/thumb/v8-m.main+fp/hard/libc_nano.a(lib_a-__atexit.o)
_global_impure_ptr                                /usr/lib/gcc/arm-none-eabi/10.3.1/../../../arm-none-eabi/lib/thumb/v8-m.main+fp/hard/libc_nano.a(lib_a-impure.o)
                                                  /usr/lib/gcc/arm-none-eabi/10.3.1/../../../arm-none-eabi/lib/thumb/v8-m.main+fp/hard/libc_nano.a(lib_a-findfp.o)
                                                  /usr/lib/gcc/arm-none-eabi/10.3.1/../../../arm-none-eabi/lib/thumb/v8-m.main+fp/hard/libc_nano.a(lib_a-fflush.o)
                                                  /usr/lib/gcc/arm-none-eabi/10.3.1/../../../arm-none-eabi/lib/thumb/v8-m.main+fp/hard/libc_nano.a(lib_a-exit.o)
_impure_ptr                                       /usr/lib/gcc/arm-none-eabi/10.3.1/../../../arm-none-eabi/lib/thumb/v8-m.main+fp/hard/libc_nano.a(lib_a-impure.o)
                                                  /usr/lib/gcc/arm-none-eabi/10.3.1/../../../arm-none-eabi/lib/thumb/v8-m.main+fp/hard/libc_nano.a(lib_a-reent.o)
                                                  /usr/lib/gcc/arm-none-eabi/10.3.1/../../../arm-none-eabi/lib/thumb/v8-m.main+fp/hard/libc_nano.a(lib_a-nano-vfprintf.o)
                                                  /usr/lib/gcc/arm-none-eabi/10.3.1/../../../arm-none-eabi/lib/thumb/v8-m.main+fp/hard/libc_nano.a(lib_a-wsetup.o)
                                                  /usr/lib/gcc/arm-none-eabi/10.3.1/../../../arm-none-eabi/lib/thumb/v8-m.main+fp/hard/libc_nano.a(lib_a-wbuf.o)
                                                  /usr/lib/gcc/arm-none-eabi/10.3.1/../../../arm-none-eabi/lib/thumb/v8-m.main+fp/hard/libc_nano.a(lib_a-snprintf.o)
                                                  /usr/lib/gcc/arm-none-eabi/10.3.1/../../../arm-none-eabi/lib/thumb/v8-m.main+fp/hard/libc_nano.a(lib_a-puts.o)
                                                  /usr/lib/gcc/arm-none-eabi/10.3.1/../../../arm-none-eabi/lib/thumb/v8-m.main+fp/hard/libc_nano.a(lib_a-printf.o)
                                                  /usr/lib/gcc/arm-none-eabi/10.3.1/../../../arm-none-eabi/lib/thumb/v8-m.main+fp/hard/libc_nano.a(lib_a-findfp.o)
                                                  /usr/lib/gcc/arm-none-eabi/10.3.1/../../../arm-none-eabi/lib/thumb/v8-m.main+fp/hard/libc_nano.a(lib_a-fflush.o)
                                                  build/main.o
_init                                             /usr/lib/gcc/arm-none-eabi/10.3.1/thumb/v8-m.main+fp/hard/crti.o
                                                  /usr/lib/gcc/arm-none-eabi/10.3.1/../../../arm-none-eabi/lib/thumb/v8-m.main+fp/hard/libc_nano.a(lib_a-init.o)
_iprintf_r                                        /usr/lib/gcc/arm-none-eabi/10.3.1/../../../arm-none-eabi/lib/thumb/v8-m.main+fp/hard/libc_nano.a(lib_a-printf.o)
_isatty                                           /usr/lib/gcc/arm-none-eabi/10.3.1/../../../arm-none-eabi/lib/thumb/v8-m.main+fp/hard/libnosys.a(isatty.o)
                                                  /usr/lib/gcc/arm-none-eabi/10.3.1/../../../arm-none-eabi/lib/thumb/v8-m.main+fp/hard/libc_nano.a(lib_a-isattyr.o)
_isatty_r                                         /usr/lib/gcc/arm-none-eabi/10.3.1/../../../arm-none-eabi/lib/thumb/v8-m.main+fp/hard/libc_nano.a(lib_a-isattyr.o)
                                                  /usr/lib/gcc/arm-none-eabi/10.3.1/../../../arm-none-eabi/lib/thumb/v8-m.main+fp/hard/libc_nano.a(lib_a-makebuf.o)
_lseek                                            /usr/lib/gcc/arm-none-eabi/10.3.1/../../../arm-none-eabi/lib/thumb/v8-m.main+fp/hard/libnosys.a(lseek.o)
                                                  /usr/lib/gcc/arm-none-eabi/10.3.1/../../../arm-none-eabi/lib/thumb/v8-m.main+fp/hard/libc_nano.a(lib_a-lseekr.o)
_lseek_r                                          /usr/lib/gcc/arm-none-eabi/10.3.1/../../../arm-none-eabi/lib/thumb/v8-m.main+fp/hard/libc_nano.a(lib_a-lseekr.o)
                                                  /usr/lib/gcc/arm-none-eabi/10.3.1/../../../arm-none-eabi/lib/thumb/v8-m.main+fp/hard/libc_nano.a(lib_a-stdio.o)
_mainCRTStartup                                   /usr/lib/gcc/arm-none-eabi/10.3.1/../../../arm-none-eabi/lib/thumb/v8-m.main+fp/hard/crt0.o
_malloc_r                                         /usr/lib/gcc/arm-none-eabi/10.3.1/../../../arm-none-eabi/lib/thumb/v8-m.main+fp/hard/libc_nano.a(lib_a-nano-mallocr.o)
                                                  /usr/lib/gcc/arm-none-eabi/10.3.1/../../../arm-none-eabi/lib/thumb/v8-m.main+fp/hard/libc_nano.a(lib_a-nano-reallocr.o)
                                                  /usr/lib/gcc/arm-none-eabi/10.3.1/../../../arm-none-eabi/lib/thumb/v8-m.main+fp/hard/libc_nano.a(lib_a-fvwrite.o)
                                                  /usr/lib/gcc/arm-none-eabi/10.3.1/../../../arm-none-eabi/lib/thumb/v8-m.main+fp/hard/libc_nano.a(lib_a-nano-svfprintf.o)
                                                  /usr/lib/gcc/arm-none-eabi/10.3.1/../../../arm-none-eabi/lib/thumb/v8-m.main+fp/hard/libc_nano.a(lib_a-makebuf.o)
                                                  /usr/lib/gcc/arm-none-eabi/10.3.1/../../../arm-none-eabi/lib/thumb/v8-m.main+fp/hard/libc_nano.a(lib_a-findfp.o)
_malloc_usable_size_r                             /usr/lib/gcc/arm-none-eabi/10.3.1/../../../arm-none-eabi/lib/thumb/v8-m.main+fp/hard/libc_nano.a(lib_a-nano-msizer.o)
                                                  /usr/lib/gcc/arm-none-eabi/10.3.1/../../../arm-none-eabi/lib/thumb/v8-m.main+fp/hard/libc_nano.a(lib_a-nano-reallocr.o)
_printf_common                                    /usr/lib/gcc/arm-none-eabi/10.3.1/../../../arm-none-eabi/lib/thumb/v8-m.main+fp/hard/libc_nano.a(lib_a-nano-vfprintf_i.o)
_printf_float                                     /usr/lib/gcc/arm-none-eabi/10.3.1/../../../arm-none-eabi/lib/thumb/v8-m.main+fp/hard/libc_nano.a(lib_a-nano-vfprintf.o)
                                                  /usr/lib/gcc/arm-none-eabi/10.3.1/../../../arm-none-eabi/lib/thumb/v8-m.main+fp/hard/libc_nano.a(lib_a-nano-svfprintf.o)
_printf_i                                         /usr/lib/gcc/arm-none-eabi/10.3.1/../../../arm-none-eabi/lib/thumb/v8-m.main+fp/hard/libc_nano.a(lib_a-nano-vfprintf_i.o)
                                                  /usr/lib/gcc/arm-none-eabi/10.3.1/../../../arm-none-eabi/lib/thumb/v8-m.main+fp/hard/libc_nano.a(lib_a-nano-vfprintf.o)
                                                  /usr/lib/gcc/arm-none-eabi/10.3.1/../../../arm-none-eabi/lib/thumb/v8-m.main+fp/hard/libc_nano.a(lib_a-nano-svfprintf.o)
_printf_r                                         /usr/lib/gcc/arm-none-eabi/10.3.1/../../../arm-none-eabi/lib/thumb/v8-m.main+fp/hard/libc_nano.a(lib_a-printf.o)
_puts_r                                           /usr/lib/gcc/arm-none-eabi/10.3.1/../../../arm-none-eabi/lib/thumb/v8-m.main+fp/hard/libc_nano.a(lib_a-puts.o)
_read                                             build/tty.o
                                                  /usr/lib/gcc/arm-none-eabi/10.3.1/../../../arm-none-eabi/lib/thumb/v8-m.main+fp/hard/libc_nano.a(lib_a-readr.o)
_read_r                                           /usr/lib/gcc/arm-none-eabi/10.3.1/../../../arm-none-eabi/lib/thumb/v8-m.main+fp/hard/libc_nano.a(lib_a-readr.o)
                                                  /usr/lib/gcc/arm-none-eabi/10.3.1/../../../arm-none-eabi/lib/thumb/v8-m.main+fp/hard/libc_nano.a(lib_a-stdio.o)
_realloc_r                                        /usr/lib/gcc/arm-none-eabi/10.3.1/../../../arm-none-eabi/lib/thumb/v8-m.main+fp/hard/libc_nano.a(lib_a-nano-reallocr.o)
                                                  /usr/lib/gcc/arm-none-eabi/10.3.1/../../../arm-none-eabi/lib/thumb/v8-m.main+fp/hard/libc_nano.a(lib_a-fvwrite.o)
                                                  /usr/lib/gcc/arm-none-eabi/10.3.1/../../../arm-none-eabi/lib/thumb/v8-m.main+fp/hard/libc_nano.a(lib_a-nano-svfprintf.o)
_reclaim_reent                                    /usr/lib/gcc/arm-none-eabi/10.3.1/../../../arm-none-eabi/lib/thumb/v8-m.main+fp/hard/libc_nano.a(lib_a-reent.o)
_rx_callback                                      build/tty.o
_rx_feed                                          build/tty.o
_sbrk                                             /usr/lib/gcc/arm-none-eabi/10.3.1/../../../arm-none-eabi/lib/thumb/v8-m.main+fp/hard/libnosys.a(sbrk.o)
                                                  /usr/lib/gcc/arm-none-eabi/10.3.1/../../../arm-none-eabi/lib/thumb/v8-m.main+fp/hard/libc_nano.a(lib_a-sbrkr.o)
_sbrk_r                                           /usr/lib/gcc/arm-none-eabi/10.3.1/../../../arm-none-eabi/lib/thumb/v8-m.main+fp/hard/libc_nano.a(lib_a-sbrkr.o)
                                                  /usr/lib/gcc/arm-none-eabi/10.3.1/../../../arm-none-eabi/lib/thumb/v8-m.main+fp/hard/libc_nano.a(lib_a-nano-mallocr.o)
_sbss                                             build/startup_stm32u535xx.o
_sdata                                            build/startup_stm32u535xx.o
_sidata                                           build/startup_stm32u535xx.o
_sniprintf_r                                      /usr/lib/gcc/arm-none-eabi/10.3.1/../../../arm-none-eabi/lib/thumb/v8-m.main+fp/hard/libc_nano.a(lib_a-snprintf.o)
_snprintf_r                                       /usr/lib/gcc/arm-none-eabi/10.3.1/../../../arm-none-eabi/lib/thumb/v8-m.main+fp/hard/libc_nano.a(lib_a-snprintf.o)
_stack_init                                       /usr/lib/gcc/arm-none-eabi/10.3.1/../../../arm-none-eabi/lib/thumb/v8-m.main+fp/hard/crt0.o
_start                                            /usr/lib/gcc/arm-none-eabi/10.3.1/../../../arm-none-eabi/lib/thumb/v8-m.main+fp/hard/crt0.o
_svfiprintf_r                                     /usr/lib/gcc/arm-none-eabi/10.3.1/../../../arm-none-eabi/lib/thumb/v8-m.main+fp/hard/libc_nano.a(lib_a-nano-svfprintf.o)
_svfprintf_r                                      /usr/lib/gcc/arm-none-eabi/10.3.1/../../../arm-none-eabi/lib/thumb/v8-m.main+fp/hard/libc_nano.a(lib_a-nano-svfprintf.o)
                                                  /usr/lib/gcc/arm-none-eabi/10.3.1/../../../arm-none-eabi/lib/thumb/v8-m.main+fp/hard/libc_nano.a(lib_a-snprintf.o)
_usb_getchar                                      build/tty.o
_ux_dcd_stm32_endpoint_create                     build/ux_dcd_stm32_endpoint_create.o
                                                  build/ux_dcd_stm32_function.o
_ux_dcd_stm32_endpoint_destroy                    build/ux_dcd_stm32_endpoint_destroy.o
                                                  build/ux_dcd_stm32_function.o
_ux_dcd_stm32_endpoint_reset                      build/ux_dcd_stm32_endpoint_reset.o
                                                  build/ux_dcd_stm32_function.o
_ux_dcd_stm32_endpoint_stall                      build/ux_dcd_stm32_endpoint_stall.o
                                                  build/ux_dcd_stm32_function.o
                                                  build/ux_dcd_stm32_callback.o
_ux_dcd_stm32_endpoint_status                     build/ux_dcd_stm32_endpoint_status.o
                                                  build/ux_dcd_stm32_function.o
_ux_dcd_stm32_frame_number_get                    build/ux_dcd_stm32_frame_number_get.o
                                                  build/ux_dcd_stm32_function.o
_ux_dcd_stm32_function                            build/ux_dcd_stm32_function.o
                                                  build/ux_dcd_stm32_initialize.o
_ux_dcd_stm32_initialize                          build/ux_dcd_stm32_initialize.o
                                                  build/usb_device.o
_ux_dcd_stm32_initialize_complete                 build/ux_dcd_stm32_initialize_complete.o
                                                  build/ux_dcd_stm32_callback.o
_ux_dcd_stm32_interrupt_handler                   build/ux_dcd_stm32_interrupt_handler.o
_ux_dcd_stm32_setup_isr_pending                   build/ux_dcd_stm32_callback.o
                                                  build/ux_dcd_stm32_function.o
_ux_dcd_stm32_transfer_abort                      build/ux_dcd_stm32_transfer_abort.o
                                                  build/ux_dcd_stm32_function.o
_ux_dcd_stm32_transfer_run                        build/ux_dcd_stm32_transfer_run.o
                                                  build/ux_dcd_stm32_function.o
_ux_dcd_stm32_uninitialize                        build/ux_dcd_stm32_uninitialize.o
_ux_device_class_cdc_acm_activate                 build/ux_device_class_cdc_acm_activate.o
                                                  build/ux_device_class_cdc_acm_entry.o
_ux_device_class_cdc_acm_control_request          build/ux_device_class_cdc_acm_control_request.o
                                                  build/ux_device_class_cdc_acm_entry.o
_ux_device_class_cdc_acm_deactivate               build/ux_device_class_cdc_acm_deactivate.o
                                                  build/ux_device_class_cdc_acm_entry.o
_ux_device_class_cdc_acm_entry                    build/ux_device_class_cdc_acm_entry.o
                                                  build/usb_device.o
_ux_device_class_cdc_acm_initialize               build/ux_device_class_cdc_acm_initialize.o
                                                  build/ux_device_class_cdc_acm_entry.o
_ux_device_class_cdc_acm_ioctl                    build/ux_device_class_cdc_acm_ioctl.o
                                                  build/ux_device_cdc_acm.o
                                                  build/ux_device_class_cdc_acm_deactivate.o
_ux_device_class_cdc_acm_read_run                 build/ux_device_class_cdc_acm_read_run.o
                                                  build/ux_device_cdc_acm.o
_ux_device_class_cdc_acm_tasks_run                build/ux_device_class_cdc_acm_tasks_run.o
_ux_device_class_cdc_acm_uninitialize             build/ux_device_class_cdc_acm_unitialize.o
                                                  build/ux_device_class_cdc_acm_entry.o
_ux_device_class_cdc_acm_write_run                build/ux_device_class_cdc_acm_write_run.o
                                                  build/ux_device_cdc_acm.o
_ux_device_class_cdc_acm_write_with_callback      build/ux_device_class_cdc_acm_write_with_callback.o
_ux_device_stack_alternate_setting_get            build/ux_device_stack_alternate_setting_get.o
                                                  build/ux_device_stack_control_request_process.o
_ux_device_stack_alternate_setting_set            build/ux_device_stack_alternate_setting_set.o
                                                  build/ux_device_stack_control_request_process.o
_ux_device_stack_class_register                   build/ux_device_stack_class_register.o
                                                  build/usb_device.o
_ux_device_stack_class_unregister                 build/ux_device_stack_class_unregister.o
_ux_device_stack_clear_feature                    build/ux_device_stack_clear_feature.o
                                                  build/ux_device_stack_control_request_process.o
_ux_device_stack_configuration_get                build/ux_device_stack_configuration_get.o
                                                  build/ux_device_stack_control_request_process.o
_ux_device_stack_configuration_set                build/ux_device_stack_configuration_set.o
                                                  build/ux_device_stack_control_request_process.o
_ux_device_stack_control_request_process          build/ux_device_stack_control_request_process.o
                                                  build/ux_dcd_stm32_callback.o
_ux_device_stack_descriptor_send                  build/ux_device_stack_descriptor_send.o
                                                  build/ux_device_stack_control_request_process.o
_ux_device_stack_disconnect                       build/ux_device_stack_disconnect.o
                                                  build/ux_dcd_stm32_callback.o
_ux_device_stack_endpoint_stall                   build/ux_device_stack_endpoint_stall.o
                                                  build/ux_device_stack_control_request_process.o
_ux_device_stack_get_status                       build/ux_device_stack_get_status.o
                                                  build/ux_device_stack_control_request_process.o
_ux_device_stack_host_wakeup                      build/ux_device_stack_host_wakeup.o
_ux_device_stack_initialize                       build/ux_device_stack_initialize.o
                                                  build/usb_device.o
_ux_device_stack_interface_delete                 build/ux_device_stack_interface_delete.o
                                                  build/ux_device_stack_disconnect.o
                                                  build/ux_device_stack_configuration_set.o
_ux_device_stack_interface_get                    build/ux_device_stack_interface_get.o
_ux_device_stack_interface_set                    build/ux_device_stack_interface_set.o
                                                  build/ux_device_stack_configuration_set.o
_ux_device_stack_interface_start                  build/ux_device_stack_interface_start.o
                                                  build/ux_device_stack_interface_set.o
_ux_device_stack_microsoft_extension_register     build/ux_device_stack_microsoft_extension_register.o
_ux_device_stack_set_feature                      build/ux_device_stack_set_feature.o
                                                  build/ux_device_stack_control_request_process.o
_ux_device_stack_tasks_run                        build/ux_device_stack_tasks_run.o
                                                  build/usb_device.o
                                                  build/ux_system_tasks_run.o
_ux_device_stack_transfer_abort                   build/ux_device_stack_transfer_abort.o
                                                  build/ux_device_class_cdc_acm_ioctl.o
                                                  build/ux_device_stack_transfer_all_request_abort.o
_ux_device_stack_transfer_all_request_abort       build/ux_device_stack_transfer_all_request_abort.o
                                                  build/ux_device_class_cdc_acm_deactivate.o
                                                  build/ux_device_stack_alternate_setting_set.o
_ux_device_stack_transfer_request                 build/ux_device_stack_transfer_request.o
                                                  build/ux_device_class_cdc_acm_control_request.o
                                                  build/ux_device_stack_get_status.o
                                                  build/ux_device_stack_descriptor_send.o
                                                  build/ux_device_stack_control_request_process.o
                                                  build/ux_device_stack_configuration_get.o
                                                  build/ux_device_stack_alternate_setting_get.o
_ux_device_stack_transfer_run                     build/ux_device_stack_transfer_run.o
                                                  build/ux_device_class_cdc_acm_write_run.o
                                                  build/ux_device_class_cdc_acm_read_run.o
                                                  build/ux_device_stack_transfer_request.o
_ux_device_stack_uninitialize                     build/ux_device_stack_uninitialize.o
_ux_system                                        build/ux_system_initialize.o
                                                  build/ux_system_error_handler.o
                                                  build/ux_utility_memory_free.o
                                                  build/ux_utility_memory_allocate.o
                                                  build/ux_utility_error_callback_register.o
_ux_system_bos_descriptor_structure               build/ux_system_initialize.o
                                                  build/ux_device_stack_descriptor_send.o
_ux_system_class_audio_feature_unit_descriptor_structure build/ux_system_initialize.o
_ux_system_class_audio_input_terminal_descriptor_structure build/ux_system_initialize.o
_ux_system_class_audio_interface_descriptor_structure build/ux_system_initialize.o
_ux_system_class_audio_output_terminal_descriptor_structure build/ux_system_initialize.o
_ux_system_class_audio_streaming_endpoint_descriptor_structure build/ux_system_initialize.o
_ux_system_class_audio_streaming_interface_descriptor_structure build/ux_system_initialize.o
_ux_system_class_pima_object_structure            build/ux_system_initialize.o
_ux_system_class_pima_storage_structure           build/ux_system_initialize.o
_ux_system_configuration_descriptor_structure     build/ux_system_initialize.o
                                                  build/ux_device_stack_descriptor_send.o
                                                  build/ux_device_stack_configuration_set.o
                                                  build/ux_device_stack_alternate_setting_set.o
_ux_system_container_id_descriptor_structure      build/ux_system_initialize.o
_ux_system_device_class_ccid_name                 build/ux_device_stack_initialize.o
_ux_system_device_class_printer_name              build/ux_device_stack_initialize.o
_ux_system_device_class_video_name                build/ux_device_stack_initialize.o
_ux_system_device_descriptor_structure            build/ux_system_initialize.o
                                                  build/ux_dcd_stm32_initialize_complete.o
_ux_system_dfu_functional_descriptor_structure    build/ux_system_initialize.o
_ux_system_ecm_interface_descriptor_structure     build/ux_system_initialize.o
_ux_system_endpoint_descriptor_structure          build/ux_system_initialize.o
                                                  build/ux_device_stack_interface_set.o
                                                  build/ux_device_stack_alternate_setting_set.o
_ux_system_error_handler                          build/ux_system_error_handler.o
                                                  build/ux_device_class_cdc_acm_write_run.o
                                                  build/ux_device_class_cdc_acm_read_run.o
                                                  build/ux_device_class_cdc_acm_ioctl.o
                                                  build/ux_device_stack_initialize.o
                                                  build/ux_device_stack_descriptor_send.o
                                                  build/ux_device_stack_alternate_setting_set.o
                                                  build/ux_utility_string_length_check.o
                                                  build/ux_utility_memory_free.o
                                                  build/ux_utility_memory_allocate.o
                                                  build/ux_dcd_stm32_function.o
_ux_system_hid_descriptor_structure               build/ux_system_initialize.o
_ux_system_hub_descriptor_structure               build/ux_system_initialize.o
_ux_system_initialize                             build/ux_system_initialize.o
_ux_system_interface_association_descriptor_structure build/ux_system_initialize.o
_ux_system_interface_descriptor_structure         build/ux_system_initialize.o
                                                  build/ux_device_stack_interface_set.o
                                                  build/ux_device_stack_configuration_set.o
                                                  build/ux_device_stack_alternate_setting_set.o
_ux_system_otg                                    build/ux_system_initialize.o
_ux_system_slave                                  build/ux_device_stack_initialize.o
                                                  build/ux_device_cdc_acm.o
                                                  build/ux_device_class_cdc_acm_write_run.o
                                                  build/ux_device_class_cdc_acm_read_run.o
                                                  build/ux_device_class_cdc_acm_control_request.o
                                                  build/ux_device_stack_transfer_run.o
                                                  build/ux_device_stack_tasks_run.o
                                                  build/ux_device_stack_uninitialize.o
                                                  build/ux_device_stack_transfer_abort.o
                                                  build/ux_device_stack_set_feature.o
                                                  build/ux_device_stack_microsoft_extension_register.o
                                                  build/ux_device_stack_interface_start.o
                                                  build/ux_device_stack_interface_set.o
                                                  build/ux_device_stack_interface_get.o
                                                  build/ux_device_stack_interface_delete.o
                                                  build/ux_device_stack_host_wakeup.o
                                                  build/ux_device_stack_get_status.o
                                                  build/ux_device_stack_endpoint_stall.o
                                                  build/ux_device_stack_disconnect.o
                                                  build/ux_device_stack_descriptor_send.o
                                                  build/ux_device_stack_control_request_process.o
                                                  build/ux_device_stack_configuration_set.o
                                                  build/ux_device_stack_configuration_get.o
                                                  build/ux_device_stack_clear_feature.o
                                                  build/ux_device_stack_class_unregister.o
                                                  build/ux_device_stack_class_register.o
                                                  build/ux_device_stack_alternate_setting_set.o
                                                  build/ux_device_stack_alternate_setting_get.o
                                                  build/ux_system_initialize.o
                                                  build/ux_dcd_stm32_uninitialize.o
                                                  build/ux_dcd_stm32_transfer_run.o
                                                  build/ux_dcd_stm32_interrupt_handler.o
                                                  build/ux_dcd_stm32_initialize_complete.o
                                                  build/ux_dcd_stm32_initialize.o
                                                  build/ux_dcd_stm32_callback.o
_ux_system_slave_class_audio_name                 build/ux_device_stack_initialize.o
_ux_system_slave_class_cdc_acm_name               build/ux_device_stack_initialize.o
                                                  build/usb_device.o
_ux_system_slave_class_cdc_ecm_name               build/ux_device_stack_initialize.o
_ux_system_slave_class_dfu_name                   build/ux_device_stack_initialize.o
_ux_system_slave_class_dpump_name                 build/ux_device_stack_initialize.o
_ux_system_slave_class_hid_name                   build/ux_device_stack_initialize.o
_ux_system_slave_class_pima_name                  build/ux_device_stack_initialize.o
_ux_system_slave_class_rndis_name                 build/ux_device_stack_initialize.o
_ux_system_slave_class_storage_name               build/ux_device_stack_initialize.o
_ux_system_string_descriptor_structure            build/ux_system_initialize.o
_ux_system_tasks_run                              build/ux_system_tasks_run.o
_ux_system_uninitialize                           build/ux_system_uninitialize.o
_ux_system_usb_2_0_extension_descriptor_structure build/ux_system_initialize.o
_ux_utility_delay_ms                              build/ux_utility_delay_ms.o
_ux_utility_descriptor_pack                       build/ux_utility_descriptor_pack.o
_ux_utility_descriptor_parse                      build/ux_utility_descriptor_parse.o
                                                  build/ux_device_stack_interface_set.o
                                                  build/ux_device_stack_descriptor_send.o
                                                  build/ux_device_stack_configuration_set.o
                                                  build/ux_device_stack_alternate_setting_set.o
                                                  build/ux_dcd_stm32_initialize_complete.o
_ux_utility_descriptor_parse_size                 build/ux_utility_descriptor_parse.o
_ux_utility_error_callback_register               build/ux_utility_error_callback_register.o
_ux_utility_interrupt_disable                     build/usb_device.o
                                                  build/ux_device_stack_transfer_abort.o
                                                  build/ux_device_stack_endpoint_stall.o
                                                  build/ux_dcd_stm32_transfer_run.o
                                                  build/ux_dcd_stm32_endpoint_reset.o
                                                  build/ux_dcd_stm32_callback.o
_ux_utility_interrupt_restore                     build/usb_device.o
                                                  build/ux_device_stack_transfer_abort.o
                                                  build/ux_device_stack_endpoint_stall.o
                                                  build/ux_dcd_stm32_transfer_run.o
                                                  build/ux_dcd_stm32_endpoint_reset.o
                                                  build/ux_dcd_stm32_callback.o
_ux_utility_long_get                              build/ux_utility_long_get.o
                                                  build/ux_device_class_cdc_acm_control_request.o
                                                  build/ux_utility_descriptor_parse.o
_ux_utility_long_get_big_endian                   build/ux_utility_long_get_big_endian.o
_ux_utility_long_put                              build/ux_utility_long_put.o
                                                  build/ux_device_class_cdc_acm_control_request.o
                                                  build/ux_utility_descriptor_pack.o
_ux_utility_long_put_big_endian                   build/ux_utility_long_put_big_endian.o
_ux_utility_memory_allocate                       build/ux_utility_memory_allocate.o
                                                  build/ux_device_class_cdc_acm_initialize.o
                                                  build/ux_device_stack_initialize.o
                                                  build/ux_utility_memory_allocate_mulv_safe.o
                                                  build/ux_utility_memory_allocate_mulc_safe.o
                                                  build/ux_utility_memory_allocate_add_safe.o
                                                  build/ux_dcd_stm32_initialize.o
_ux_utility_memory_allocate_add_safe              build/ux_utility_memory_allocate_add_safe.o
_ux_utility_memory_allocate_mulc_safe             build/ux_utility_memory_allocate_mulc_safe.o
                                                  build/ux_device_stack_initialize.o
_ux_utility_memory_allocate_mulv_safe             build/ux_utility_memory_allocate_mulv_safe.o
_ux_utility_memory_byte_pool_create               build/ux_utility_memory_byte_pool_create.o
                                                  build/ux_system_initialize.o
_ux_utility_memory_byte_pool_search               build/ux_utility_memory_byte_pool_search.o
                                                  build/ux_utility_memory_allocate.o
_ux_utility_memory_compare                        build/ux_utility_memory_compare.o
                                                  build/ux_device_stack_class_unregister.o
_ux_utility_memory_copy                           build/ux_utility_memory_copy.o
                                                  build/ux_device_class_cdc_acm_write_run.o
                                                  build/ux_device_class_cdc_acm_read_run.o
                                                  build/ux_device_stack_descriptor_send.o
                                                  build/ux_device_stack_class_register.o
                                                  build/ux_device_stack_alternate_setting_set.o
                                                  build/ux_dcd_stm32_callback.o
_ux_utility_memory_free                           build/ux_utility_memory_free.o
                                                  build/ux_device_class_cdc_acm_unitialize.o
                                                  build/ux_device_stack_uninitialize.o
                                                  build/ux_device_stack_initialize.o
                                                  build/ux_dcd_stm32_uninitialize.o
_ux_utility_memory_set                            build/ux_utility_memory_set.o
                                                  build/ux_system_initialize.o
                                                  build/ux_utility_memory_byte_pool_create.o
                                                  build/ux_utility_memory_allocate.o
_ux_utility_physical_address                      build/ux_utility_physical_address.o
_ux_utility_set_interrupt_handler                 build/ux_utility_set_interrupt_handler.o
_ux_utility_short_get                             build/ux_utility_short_get.o
                                                  build/ux_device_class_cdc_acm_control_request.o
                                                  build/ux_device_stack_descriptor_send.o
                                                  build/ux_device_stack_control_request_process.o
                                                  build/ux_utility_descriptor_parse.o
                                                  build/ux_dcd_stm32_callback.o
_ux_utility_short_get_big_endian                  build/ux_utility_short_get_big_endian.o
_ux_utility_short_put                             build/ux_utility_short_put.o
                                                  build/ux_utility_descriptor_pack.o
_ux_utility_short_put_big_endian                  build/ux_utility_short_put_big_endian.o
_ux_utility_string_length_check                   build/ux_utility_string_length_check.o
                                                  build/ux_device_stack_class_unregister.o
                                                  build/ux_device_stack_class_register.o
                                                  build/ux_utility_string_to_unicode.o
_ux_utility_string_length_get                     build/ux_utility_string_length_get.o
_ux_utility_string_to_unicode                     build/ux_utility_string_to_unicode.o
_ux_utility_time_get                              build/ux_utility_delay_ms.o
_ux_utility_unicode_to_string                     build/ux_utility_unicode_to_string.o
_ux_utility_virtual_address                       build/ux_utility_virtual_address.o
_ux_version_id                                    build/ux_system_initialize.o
_uxe_device_class_cdc_acm_ioctl                   build/ux_device_class_cdc_acm_ioctl.o
_uxe_device_class_cdc_acm_read_run                build/ux_device_class_cdc_acm_read_run.o
_uxe_device_class_cdc_acm_write_run               build/ux_device_class_cdc_acm_write_run.o
_uxe_device_class_cdc_acm_write_with_callback     build/ux_device_class_cdc_acm_write_with_callback.o
_uxe_device_stack_class_register                  build/ux_device_stack_class_register.o
_uxe_device_stack_class_unregister                build/ux_device_stack_class_unregister.o
_uxe_device_stack_initialize                      build/ux_device_stack_initialize.o
_uxe_system_initialize                            build/ux_system_initialize.o
                                                  build/usb_device.o
_vfiprintf_r                                      /usr/lib/gcc/arm-none-eabi/10.3.1/../../../arm-none-eabi/lib/thumb/v8-m.main+fp/hard/libc_nano.a(lib_a-nano-vfprintf.o)
_vfprintf_r                                       /usr/lib/gcc/arm-none-eabi/10.3.1/../../../arm-none-eabi/lib/thumb/v8-m.main+fp/hard/libc_nano.a(lib_a-nano-vfprintf.o)
                                                  /usr/lib/gcc/arm-none-eabi/10.3.1/../../../arm-none-eabi/lib/thumb/v8-m.main+fp/hard/libc_nano.a(lib_a-printf.o)
_write                                            build/tty.o
                                                  /usr/lib/gcc/arm-none-eabi/10.3.1/../../../arm-none-eabi/lib/thumb/v8-m.main+fp/hard/libc_nano.a(lib_a-writer.o)
_write_r                                          /usr/lib/gcc/arm-none-eabi/10.3.1/../../../arm-none-eabi/lib/thumb/v8-m.main+fp/hard/libc_nano.a(lib_a-writer.o)
                                                  /usr/lib/gcc/arm-none-eabi/10.3.1/../../../arm-none-eabi/lib/thumb/v8-m.main+fp/hard/libc_nano.a(lib_a-stdio.o)
atexit                                            /usr/lib/gcc/arm-none-eabi/10.3.1/../../../arm-none-eabi/lib/thumb/v8-m.main+fp/hard/libc_nano.a(lib_a-atexit.o)
                                                  /usr/lib/gcc/arm-none-eabi/10.3.1/../../../arm-none-eabi/lib/thumb/v8-m.main+fp/hard/crt0.o
cdc_acm                                           build/ux_device_cdc_acm.o
cleanup_glue                                      /usr/lib/gcc/arm-none-eabi/10.3.1/../../../arm-none-eabi/lib/thumb/v8-m.main+fp/hard/libc_nano.a(lib_a-reent.o)
cmd_parse                                         build/cmd.o
                                                  build/main.o
dma_init                                          build/dma.o
                                                  build/spi.o
dma_init_spi_rx                                   build/dma.o
                                                  build/spi.o
dma_init_spi_tx                                   build/dma.o
                                                  build/spi.o
end                                               /usr/lib/gcc/arm-none-eabi/10.3.1/../../../arm-none-eabi/lib/thumb/v8-m.main+fp/hard/libnosys.a(sbrk.o)
errno                                             /usr/lib/gcc/arm-none-eabi/10.3.1/../../../arm-none-eabi/lib/thumb/v8-m.main+fp/hard/libc_nano.a(lib_a-reent.o)
                                                  /usr/lib/gcc/arm-none-eabi/10.3.1/../../../arm-none-eabi/lib/thumb/v8-m.main+fp/hard/libnosys.a(lseek.o)
                                                  /usr/lib/gcc/arm-none-eabi/10.3.1/../../../arm-none-eabi/lib/thumb/v8-m.main+fp/hard/libnosys.a(isatty.o)
                                                  /usr/lib/gcc/arm-none-eabi/10.3.1/../../../arm-none-eabi/lib/thumb/v8-m.main+fp/hard/libnosys.a(fstat.o)
                                                  /usr/lib/gcc/arm-none-eabi/10.3.1/../../../arm-none-eabi/lib/thumb/v8-m.main+fp/hard/libnosys.a(close.o)
                                                  /usr/lib/gcc/arm-none-eabi/10.3.1/../../../arm-none-eabi/lib/thumb/v8-m.main+fp/hard/libc_nano.a(lib_a-isattyr.o)
                                                  /usr/lib/gcc/arm-none-eabi/10.3.1/../../../arm-none-eabi/lib/thumb/v8-m.main+fp/hard/libc_nano.a(lib_a-fstatr.o)
                                                  /usr/lib/gcc/arm-none-eabi/10.3.1/../../../arm-none-eabi/lib/thumb/v8-m.main+fp/hard/libc_nano.a(lib_a-readr.o)
                                                  /usr/lib/gcc/arm-none-eabi/10.3.1/../../../arm-none-eabi/lib/thumb/v8-m.main+fp/hard/libc_nano.a(lib_a-lseekr.o)
                                                  /usr/lib/gcc/arm-none-eabi/10.3.1/../../../arm-none-eabi/lib/thumb/v8-m.main+fp/hard/libc_nano.a(lib_a-closer.o)
                                                  /usr/lib/gcc/arm-none-eabi/10.3.1/../../../arm-none-eabi/lib/thumb/v8-m.main+fp/hard/libc_nano.a(lib_a-writer.o)
                                                  /usr/lib/gcc/arm-none-eabi/10.3.1/../../../arm-none-eabi/lib/thumb/v8-m.main+fp/hard/libc_nano.a(lib_a-sbrkr.o)
exit                                              /usr/lib/gcc/arm-none-eabi/10.3.1/../../../arm-none-eabi/lib/thumb/v8-m.main+fp/hard/libc_nano.a(lib_a-exit.o)
                                                  /usr/lib/gcc/arm-none-eabi/10.3.1/../../../arm-none-eabi/lib/thumb/v8-m.main+fp/hard/crt0.o
fflush                                            /usr/lib/gcc/arm-none-eabi/10.3.1/../../../arm-none-eabi/lib/thumb/v8-m.main+fp/hard/libc_nano.a(lib_a-fflush.o)
                                                  build/main.o
g_pfnVectors                                      build/startup_stm32u535xx.o
gpio_init                                         build/gpio.o
                                                  build/main.o
gpio_ll_map                                       build/gpio.o
gpio_pin_code                                     build/gpio.o
gpio_pin_init                                     build/gpio.o
                                                  build/spi.o
                                                  build/main.o
hardware_init_hook                                /usr/lib/gcc/arm-none-eabi/10.3.1/../../../arm-none-eabi/lib/thumb/v8-m.main+fp/hard/crt0.o
hex_to_bin                                        build/util.o
                                                  build/cmd.o
                                                  build/main.o
hpcd_usb_drd_fs                                   build/usb_device.o
hspi1                                             build/spi.o
                                                  build/dma.o
iprintf                                           /usr/lib/gcc/arm-none-eabi/10.3.1/../../../arm-none-eabi/lib/thumb/v8-m.main+fp/hard/libc_nano.a(lib_a-printf.o)
irq_enable                                        build/irq.o
                                                  build/usb_device.o
                                                  build/spi.o
                                                  build/uart.o
                                                  build/dma.o
is_char                                           build/util.o
                                                  build/cmd.o
is_hex                                            build/util.o
is_number                                         build/util.o
led_cyclic_sequence                               build/led.o
                                                  build/main.o
led_init                                          build/led.o
                                                  build/main.o
led_instant_sequence                              build/led.o
led_tick                                          build/led.o
                                                  build/main.o
main                                              build/main.o
                                                  build/startup_stm32u535xx.o
                                                  /usr/lib/gcc/arm-none-eabi/10.3.1/../../../arm-none-eabi/lib/thumb/v8-m.main+fp/hard/crt0.o
main_spi_auto                                     build/main.o
                                                  build/cmd.o
main_spi_get_resp                                 build/main.o
                                                  build/cmd.o
main_spi_no_resp                                  build/main.o
                                                  build/cmd.o
malloc                                            /usr/lib/gcc/arm-none-eabi/10.3.1/../../../arm-none-eabi/lib/thumb/v8-m.main+fp/hard/libc_nano.a(lib_a-__atexit.o)
memchr                                            /usr/lib/gcc/arm-none-eabi/10.3.1/../../../arm-none-eabi/lib/thumb/v8-m.main+fp/hard/libc_nano.a(lib_a-memchr-stub.o)
                                                  /usr/lib/gcc/arm-none-eabi/10.3.1/../../../arm-none-eabi/lib/thumb/v8-m.main+fp/hard/libc_nano.a(lib_a-fvwrite.o)
                                                  /usr/lib/gcc/arm-none-eabi/10.3.1/../../../arm-none-eabi/lib/thumb/v8-m.main+fp/hard/libc_nano.a(lib_a-nano-vfprintf_i.o)
                                                  /usr/lib/gcc/arm-none-eabi/10.3.1/../../../arm-none-eabi/lib/thumb/v8-m.main+fp/hard/libc_nano.a(lib_a-nano-vfprintf.o)
                                                  /usr/lib/gcc/arm-none-eabi/10.3.1/../../../arm-none-eabi/lib/thumb/v8-m.main+fp/hard/libc_nano.a(lib_a-nano-svfprintf.o)
memcpy                                            /usr/lib/gcc/arm-none-eabi/10.3.1/../../../arm-none-eabi/lib/thumb/v8-m.main+fp/hard/libc_nano.a(lib_a-memcpy.o)
                                                  /usr/lib/gcc/arm-none-eabi/10.3.1/../../../arm-none-eabi/lib/thumb/v8-m.main+fp/hard/libc_nano.a(lib_a-nano-reallocr.o)
                                                  /usr/lib/gcc/arm-none-eabi/10.3.1/../../../arm-none-eabi/lib/thumb/v8-m.main+fp/hard/libc_nano.a(lib_a-fvwrite.o)
                                                  /usr/lib/gcc/arm-none-eabi/10.3.1/../../../arm-none-eabi/lib/thumb/v8-m.main+fp/hard/libc_nano.a(lib_a-nano-svfprintf.o)
memmove                                           /usr/lib/gcc/arm-none-eabi/10.3.1/../../../arm-none-eabi/lib/thumb/v8-m.main+fp/hard/libc_nano.a(lib_a-memmove.o)
                                                  /usr/lib/gcc/arm-none-eabi/10.3.1/../../../arm-none-eabi/lib/thumb/v8-m.main+fp/hard/libc_nano.a(lib_a-fvwrite.o)
                                                  /usr/lib/gcc/arm-none-eabi/10.3.1/../../../arm-none-eabi/lib/thumb/v8-m.main+fp/hard/libc_nano.a(lib_a-nano-svfprintf.o)
                                                  build/stm32u5xx_hal_dma_ex.o
memset                                            /usr/lib/gcc/arm-none-eabi/10.3.1/../../../arm-none-eabi/lib/thumb/v8-m.main+fp/hard/libc_nano.a(lib_a-memset.o)
                                                  /usr/lib/gcc/arm-none-eabi/10.3.1/../../../arm-none-eabi/lib/thumb/v8-m.main+fp/hard/libc_nano.a(lib_a-findfp.o)
                                                  build/uart.o
                                                  build/gpio.o
                                                  build/led.o
                                                  build/ux_utility_memory_set.o
                                                  build/stm32u5xx_hal_dma_ex.o
                                                  /usr/lib/gcc/arm-none-eabi/10.3.1/../../../arm-none-eabi/lib/thumb/v8-m.main+fp/hard/crt0.o
parse_number                                      build/cmd.o
printf                                            /usr/lib/gcc/arm-none-eabi/10.3.1/../../../arm-none-eabi/lib/thumb/v8-m.main+fp/hard/libc_nano.a(lib_a-printf.o)
                                                  build/usb_device.o
                                                  build/ux_device_cdc_acm.o
                                                  build/cmd.o
                                                  build/main.o
puts                                              /usr/lib/gcc/arm-none-eabi/10.3.1/../../../arm-none-eabi/lib/thumb/v8-m.main+fp/hard/libc_nano.a(lib_a-puts.o)
                                                  build/usb_device.o
                                                  build/ux_device_cdc_acm.o
                                                  build/cmd.o
                                                  build/main.o
reset_clear                                       build/reset.o
                                                  build/main.o
reset_get_type                                    build/reset.o
                                                  build/main.o
sniprintf                                         /usr/lib/gcc/arm-none-eabi/10.3.1/../../../arm-none-eabi/lib/thumb/v8-m.main+fp/hard/libc_nano.a(lib_a-snprintf.o)
snprintf                                          /usr/lib/gcc/arm-none-eabi/10.3.1/../../../arm-none-eabi/lib/thumb/v8-m.main+fp/hard/libc_nano.a(lib_a-snprintf.o)
                                                  build/ux_device_descriptors.o
software_init_hook                                /usr/lib/gcc/arm-none-eabi/10.3.1/../../../arm-none-eabi/lib/thumb/v8-m.main+fp/hard/crt0.o
spi1_cs                                           build/spi.o
                                                  build/cmd.o
                                                  build/main.o
spi1_cs_state                                     build/spi.o
                                                  build/cmd.o
spi1_data_transfer                                build/spi.o
                                                  build/main.o
spi1_flush                                        build/spi.o
                                                  build/main.o
spi1_get_prescaler                                build/spi.o
                                                  build/cmd.o
spi1_init                                         build/spi.o
                                                  build/main.o
spi1_set_prescaler                                build/spi.o
                                                  build/cmd.o
spi1_transfer                                     build/spi.o
                                                  build/main.o
strlen                                            /usr/lib/gcc/arm-none-eabi/10.3.1/../../../arm-none-eabi/lib/thumb/v8-m.main+fp/hard/libc_nano.a(lib_a-strlen-stub.o)
                                                  build/ux_device_descriptors.o
                                                  build/tty.o
                                                  build/cmd.o
strnicmp                                          build/util.o
                                                  build/cmd.o
sys_clock_config                                  build/sys.o
                                                  build/main.o
sys_flash_size                                    build/sys.o
sys_get_hclk                                      build/sys.o
sys_init                                          build/sys.o
                                                  build/main.o
sys_usb_clock_config                              build/sys.o
time_delay_ms                                     build/time.o
                                                  build/sys.o
                                                  build/tty.o
                                                  build/cmd.o
                                                  build/main.o
time_delay_us                                     build/time.o
timer3_init                                       build/time.o
timer_get_time                                    build/time.o
                                                  build/sys.o
                                                  build/main.o
timer_get_time_irq                                build/time.o
timer_init                                        build/time.o
                                                  build/main.o
tty_init                                          build/tty.o
                                                  build/main.o
tty_put_binary                                    build/tty.o
tty_put_text                                      build/tty.o
                                                  build/main.o
tty_rx_task                                       build/tty.o
                                                  build/main.o
uart1_getchar                                     build/uart.o
uart1_init                                        build/uart.o
uart1_putchar                                     build/uart.o
uart1_set_state                                   build/uart.o
usb_cdc_rx_init                                   build/usb_device.o
                                                  build/tty.o
usb_cdc_tx                                        build/usb_device.o
                                                  build/tty.o
usb_cdc_tx_busy                                   build/usb_device.o
                                                  build/tty.o
usb_device_connected                              build/usb_device.o
                                                  build/tty.o
                                                  build/main.o
usb_device_init                                   build/usb_device.o
                                                  build/main.o
usb_device_task                                   build/usb_device.o
                                                  build/main.o
ux_device_cdc_acm_activate                        build/ux_device_cdc_acm.o
                                                  build/usb_device.o
ux_device_cdc_acm_connected                       build/ux_device_cdc_acm.o
                                                  build/usb_device.o
ux_device_cdc_acm_deactivate                      build/ux_device_cdc_acm.o
                                                  build/usb_device.o
ux_device_cdc_acm_parameterchange                 build/ux_device_cdc_acm.o
                                                  build/usb_device.o
ux_device_cdc_acm_rx_init                         build/ux_device_cdc_acm.o
                                                  build/usb_device.o
ux_device_cdc_acm_task                            build/ux_device_cdc_acm.o
                                                  build/usb_device.o
ux_device_cdc_acm_tx                              build/ux_device_cdc_acm.o
                                                  build/usb_device.o
ux_device_sn_text                                 build/ux_device_descriptors.o
                                                  build/cmd.o
vfiprintf                                         /usr/lib/gcc/arm-none-eabi/10.3.1/../../../arm-none-eabi/lib/thumb/v8-m.main+fp/hard/libc_nano.a(lib_a-nano-vfprintf.o)
vfprintf                                          /usr/lib/gcc/arm-none-eabi/10.3.1/../../../arm-none-eabi/lib/thumb/v8-m.main+fp/hard/libc_nano.a(lib_a-nano-vfprintf.o)
wd_disable                                        build/wd.o
wd_feed                                           build/wd.o
                                                  build/main.o
wd_init                                           build/wd.o
                                                  build/main.o
wd_reset                                          build/wd.o
                                                  build/cmd.o
wd_run                                            build/wd.o
                                                  build/main.o
