ARM GAS  /tmp/ccgn0Ad1.s 			page 1


   1              		.cpu cortex-m33
   2              		.eabi_attribute 27, 1
   3              		.eabi_attribute 28, 1
   4              		.eabi_attribute 20, 1
   5              		.eabi_attribute 21, 1
   6              		.eabi_attribute 23, 3
   7              		.eabi_attribute 24, 1
   8              		.eabi_attribute 25, 1
   9              		.eabi_attribute 26, 1
  10              		.eabi_attribute 30, 4
  11              		.eabi_attribute 34, 1
  12              		.eabi_attribute 18, 4
  13              		.file	"main.c"
  14              		.text
  15              		.section	.text._led1_on,"ax",%progbits
  16              		.align	1
  17              		.arch armv8-m.main
  18              		.arch_extension dsp
  19              		.syntax unified
  20              		.thumb
  21              		.thumb_func
  22              		.fpu fpv4-sp-d16
  24              	_led1_on:
  25              		@ args = 0, pretend = 0, frame = 0
  26              		@ frame_needed = 0, uses_anonymous_args = 0
  27              		@ link register save eliminated.
  28 0000 4FF40072 		mov	r2, #512
  29 0004 014B     		ldr	r3, .L2
  30 0006 9A61     		str	r2, [r3, #24]
  31 0008 7047     		bx	lr
  32              	.L3:
  33 000a 00BF     		.align	2
  34              	.L2:
  35 000c 00000242 		.word	1107427328
  37              		.section	.text._led1_off,"ax",%progbits
  38              		.align	1
  39              		.syntax unified
  40              		.thumb
  41              		.thumb_func
  42              		.fpu fpv4-sp-d16
  44              	_led1_off:
  45              		@ args = 0, pretend = 0, frame = 0
  46              		@ frame_needed = 0, uses_anonymous_args = 0
  47              		@ link register save eliminated.
  48 0000 4FF40072 		mov	r2, #512
  49 0004 014B     		ldr	r3, .L5
  50 0006 9A62     		str	r2, [r3, #40]
  51 0008 7047     		bx	lr
  52              	.L6:
  53 000a 00BF     		.align	2
  54              	.L5:
  55 000c 00000242 		.word	1107427328
  57              		.section	.rodata._parse_hex.str1.1,"aMS",%progbits,1
  58              	.LC0:
  59 0000 25303258 		.ascii	"%02X\000"
  59      00
  60              	.LC1:
ARM GAS  /tmp/ccgn0Ad1.s 			page 2


  61 0005 0D00     		.ascii	"\015\000"
  62              		.section	.text._parse_hex,"ax",%progbits
  63              		.align	1
  64              		.syntax unified
  65              		.thumb
  66              		.thumb_func
  67              		.fpu fpv4-sp-d16
  69              	_parse_hex:
  70              		@ args = 0, pretend = 0, frame = 1032
  71              		@ frame_needed = 0, uses_anonymous_args = 0
  72 0000 F0B5     		push	{r4, r5, r6, r7, lr}
  73 0002 0378     		ldrb	r3, [r0]	@ zero_extendqisi2
  74 0004 0446     		mov	r4, r0
  75 0006 782B     		cmp	r3, #120
  76 0008 ADF20C4D 		subw	sp, sp, #1036
  77 000c 01D0     		beq	.L8
  78 000e 5C2B     		cmp	r3, #92
  79 0010 4ED1     		bne	.L17
  80              	.L8:
  81 0012 0127     		movs	r7, #1
  82 0014 0134     		adds	r4, r4, #1
  83              	.L9:
  84 0016 0122     		movs	r2, #1
  85 0018 2146     		mov	r1, r4
  86 001a 0DF10700 		add	r0, sp, #7
  87 001e FFF7FEFF 		bl	hex_to_bin
  88 0022 0128     		cmp	r0, #1
  89 0024 46D1     		bne	.L18
  90 0026 0025     		movs	r5, #0
  91 0028 02AE     		add	r6, sp, #8
  92              	.L13:
  93 002a A31C     		adds	r3, r4, #2
  94              	.L11:
  95 002c 1C46     		mov	r4, r3
  96 002e 13F8012B 		ldrb	r2, [r3], #1	@ zero_extendqisi2
  97 0032 202A     		cmp	r2, #32
  98 0034 FAD0     		beq	.L11
  99 0036 9DF80730 		ldrb	r3, [sp, #7]	@ zero_extendqisi2
 100 003a B5F5FF7F 		cmp	r5, #510
 101 003e 7355     		strb	r3, [r6, r5]
 102 0040 4FF00102 		mov	r2, #1
 103 0044 2146     		mov	r1, r4
 104 0046 0DF10700 		add	r0, sp, #7
 105 004a D8BF     		it	le
 106 004c 0135     		addle	r5, r5, #1
 107 004e FFF7FEFF 		bl	hex_to_bin
 108 0052 0128     		cmp	r0, #1
 109 0054 E9D0     		beq	.L13
 110 0056 4FF40072 		mov	r2, #512
 111 005a 174B     		ldr	r3, .L33
 112 005c 9A62     		str	r2, [r3, #40]
 113 005e 2FB9     		cbnz	r7, .L14
 114 0060 0120     		movs	r0, #1
 115 0062 FFF7FEFF 		bl	spi1_cs
 116 0066 0122     		movs	r2, #1
 117 0068 144B     		ldr	r3, .L33+4
 118 006a 1A70     		strb	r2, [r3]
ARM GAS  /tmp/ccgn0Ad1.s 			page 3


 119              	.L14:
 120 006c 2A46     		mov	r2, r5
 121 006e 3146     		mov	r1, r6
 122 0070 82A8     		add	r0, sp, #520
 123 0072 FFF7FEFF 		bl	spi1_data_transfer
 124 0076 2378     		ldrb	r3, [r4]	@ zero_extendqisi2
 125 0078 782B     		cmp	r3, #120
 126 007a 07D0     		beq	.L15
 127 007c 5C2B     		cmp	r3, #92
 128 007e 05D0     		beq	.L15
 129 0080 0020     		movs	r0, #0
 130 0082 FFF7FEFF 		bl	spi1_cs
 131 0086 0022     		movs	r2, #0
 132 0088 0C4B     		ldr	r3, .L33+4
 133 008a 1A70     		strb	r2, [r3]
 134              	.L15:
 135 008c 0026     		movs	r6, #0
 136 008e 0C4F     		ldr	r7, .L33+8
 137 0090 82AC     		add	r4, sp, #520
 138              	.L16:
 139 0092 3846     		mov	r0, r7
 140 0094 14F8011B 		ldrb	r1, [r4], #1	@ zero_extendqisi2
 141 0098 0136     		adds	r6, r6, #1
 142 009a FFF7FEFF 		bl	printf
 143 009e B542     		cmp	r5, r6
 144 00a0 F7D1     		bne	.L16
 145 00a2 0848     		ldr	r0, .L33+12
 146 00a4 FFF7FEFF 		bl	puts
 147 00a8 0120     		movs	r0, #1
 148              	.L10:
 149 00aa 0DF20C4D 		addw	sp, sp, #1036
 150              		@ sp needed
 151 00ae F0BD     		pop	{r4, r5, r6, r7, pc}
 152              	.L17:
 153 00b0 0027     		movs	r7, #0
 154 00b2 B0E7     		b	.L9
 155              	.L18:
 156 00b4 0020     		movs	r0, #0
 157 00b6 F8E7     		b	.L10
 158              	.L34:
 159              		.align	2
 160              	.L33:
 161 00b8 00000242 		.word	1107427328
 162 00bc 00000000 		.word	.LANCHOR0
 163 00c0 00000000 		.word	.LC0
 164 00c4 05000000 		.word	.LC1
 166              		.section	.text._tty_rx_parser,"ax",%progbits
 167              		.align	1
 168              		.syntax unified
 169              		.thumb
 170              		.thumb_func
 171              		.fpu fpv4-sp-d16
 173              	_tty_rx_parser:
 174              		@ args = 0, pretend = 0, frame = 0
 175              		@ frame_needed = 0, uses_anonymous_args = 0
 176 0000 10B5     		push	{r4, lr}
 177              	.L36:
ARM GAS  /tmp/ccgn0Ad1.s 			page 4


 178 0002 0446     		mov	r4, r0
 179 0004 2378     		ldrb	r3, [r4]	@ zero_extendqisi2
 180 0006 0130     		adds	r0, r0, #1
 181 0008 202B     		cmp	r3, #32
 182 000a FAD0     		beq	.L36
 183 000c 2046     		mov	r0, r4
 184 000e FFF7FEFF 		bl	_parse_hex
 185 0012 10B9     		cbnz	r0, .L37
 186 0014 2046     		mov	r0, r4
 187 0016 FFF7FEFF 		bl	cmd_parse
 188              	.L37:
 189 001a BDE81040 		pop	{r4, lr}
 190 001e 024B     		ldr	r3, .L40
 191 0020 1B68     		ldr	r3, [r3]
 192 0022 9868     		ldr	r0, [r3, #8]
 193 0024 FFF7FEBF 		b	fflush
 194              	.L41:
 195              		.align	2
 196              	.L40:
 197 0028 00000000 		.word	_impure_ptr
 199              		.section	.text._spi_auto_task,"ax",%progbits
 200              		.align	1
 201              		.syntax unified
 202              		.thumb
 203              		.thumb_func
 204              		.fpu fpv4-sp-d16
 206              	_spi_auto_task:
 207              		@ args = 0, pretend = 0, frame = 512
 208              		@ frame_needed = 0, uses_anonymous_args = 0
 209 0000 F0B5     		push	{r4, r5, r6, r7, lr}
 210 0002 ADF5017D 		sub	sp, sp, #516
 211 0006 FFF7FEFF 		bl	spi1_flush
 212 000a 0120     		movs	r0, #1
 213 000c FFF7FEFF 		bl	spi1_cs
 214 0010 0123     		movs	r3, #1
 215 0012 1E4F     		ldr	r7, .L50
 216 0014 3B70     		strb	r3, [r7]
 217 0016 1E4B     		ldr	r3, .L50+4
 218 0018 1878     		ldrb	r0, [r3]	@ zero_extendqisi2
 219 001a FFF7FEFF 		bl	spi1_transfer
 220 001e 0020     		movs	r0, #0
 221 0020 FFF7FEFF 		bl	spi1_transfer
 222 0024 1B4B     		ldr	r3, .L50+8
 223 0026 8DF80000 		strb	r0, [sp]
 224 002a 1B78     		ldrb	r3, [r3]	@ zero_extendqisi2
 225 002c 8342     		cmp	r3, r0
 226 002e 4FF00000 		mov	r0, #0
 227 0032 06D1     		bne	.L43
 228 0034 FFF7FEFF 		bl	spi1_cs
 229 0038 0023     		movs	r3, #0
 230 003a 3B70     		strb	r3, [r7]
 231 003c 0DF5017D 		add	sp, sp, #516
 232              		@ sp needed
 233 0040 F0BD     		pop	{r4, r5, r6, r7, pc}
 234              	.L43:
 235 0042 FFF7FEFF 		bl	spi1_transfer
 236 0046 0225     		movs	r5, #2
ARM GAS  /tmp/ccgn0Ad1.s 			page 5


 237 0048 8DF80100 		strb	r0, [sp, #1]
 238 004c C41C     		adds	r4, r0, #3
 239              	.L45:
 240 004e AC42     		cmp	r4, r5
 241 0050 4FF00000 		mov	r0, #0
 242 0054 14DA     		bge	.L46
 243 0056 0026     		movs	r6, #0
 244 0058 6D46     		mov	r5, sp
 245 005a FFF7FEFF 		bl	spi1_cs
 246 005e 3E70     		strb	r6, [r7]
 247 0060 0D4F     		ldr	r7, .L50+12
 248              	.L47:
 249 0062 3846     		mov	r0, r7
 250 0064 15F8011B 		ldrb	r1, [r5], #1	@ zero_extendqisi2
 251 0068 0136     		adds	r6, r6, #1
 252 006a FFF7FEFF 		bl	printf
 253 006e B442     		cmp	r4, r6
 254 0070 F7DA     		bge	.L47
 255 0072 0A48     		ldr	r0, .L50+16
 256 0074 0DF5017D 		add	sp, sp, #516
 257              		@ sp needed
 258 0078 BDE8F040 		pop	{r4, r5, r6, r7, lr}
 259 007c FFF7FEBF 		b	puts
 260              	.L46:
 261 0080 FFF7FEFF 		bl	spi1_transfer
 262 0084 0DF80500 		strb	r0, [sp, r5]
 263 0088 0135     		adds	r5, r5, #1
 264 008a E0E7     		b	.L45
 265              	.L51:
 266              		.align	2
 267              	.L50:
 268 008c 00000000 		.word	.LANCHOR0
 269 0090 00000000 		.word	.LANCHOR1
 270 0094 00000000 		.word	.LANCHOR2
 271 0098 00000000 		.word	.LC0
 272 009c 05000000 		.word	.LC1
 274              		.section	.text.Error_Handler,"ax",%progbits
 275              		.align	1
 276              		.global	Error_Handler
 277              		.syntax unified
 278              		.thumb
 279              		.thumb_func
 280              		.fpu fpv4-sp-d16
 282              	Error_Handler:
 283              		@ Volatile: function does not return.
 284              		@ args = 0, pretend = 0, frame = 0
 285              		@ frame_needed = 0, uses_anonymous_args = 0
 286 0000 08B5     		push	{r3, lr}
 287              		.syntax unified
 288              	@ 962 "../sdk/stm32/CMSIS/inc/cmsis_gcc.h" 1
 289 0002 72B6     		cpsid i
 290              	@ 0 "" 2
 291              		.thumb
 292              		.syntax unified
 293 0004 4FF40075 		mov	r5, #512
 294 0008 044C     		ldr	r4, .L54
 295              	.L53:
ARM GAS  /tmp/ccgn0Ad1.s 			page 6


 296 000a 6420     		movs	r0, #100
 297 000c A561     		str	r5, [r4, #24]
 298 000e FFF7FEFF 		bl	time_delay_ms
 299 0012 6420     		movs	r0, #100
 300 0014 A562     		str	r5, [r4, #40]
 301 0016 FFF7FEFF 		bl	time_delay_ms
 302 001a F6E7     		b	.L53
 303              	.L55:
 304              		.align	2
 305              	.L54:
 306 001c 00000242 		.word	1107427328
 308              		.section	.rodata.main.str1.1,"aMS",%progbits,1
 309              	.LC2:
 310 0000 0D0A00   		.ascii	"\015\012\000"
 311              	.LC3:
 312 0003 41505020 		.ascii	"APP START\015\012\000"
 312      53544152 
 312      540D0A00 
 313              	.LC4:
 314 000f 23204255 		.ascii	"# BUILD DATE: Jan 15 2026\015\012\000"
 314      494C4420 
 314      44415445 
 314      3A204A61 
 314      6E203135 
 315              	.LC5:
 316 002b 23205245 		.ascii	"# RESET TYPE: \000"
 316      53455420 
 316      54595045 
 316      3A2000
 317              	.LC6:
 318 003a 504F5745 		.ascii	"POWER_ON\000"
 318      525F4F4E 
 318      00
 319              	.LC7:
 320 0043 55534552 		.ascii	"USER_RQ\000"
 320      5F525100 
 321              	.LC8:
 322 004b 57445400 		.ascii	"WDT\000"
 323              	.LC9:
 324 004f 424F4400 		.ascii	"BOD\000"
 325              	.LC10:
 326 0053 554E4B4E 		.ascii	"UNKNOWN\000"
 326      4F574E00 
 327              		.section	.text.startup.main,"ax",%progbits
 328              		.align	1
 329              		.global	main
 330              		.syntax unified
 331              		.thumb
 332              		.thumb_func
 333              		.fpu fpv4-sp-d16
 335              	main:
 336              		@ Volatile: function does not return.
 337              		@ args = 0, pretend = 0, frame = 0
 338              		@ frame_needed = 0, uses_anonymous_args = 0
 339 0000 594C     		ldr	r4, .L74
 340 0002 80B5     		push	{r7, lr}
 341 0004 FFF7FEFF 		bl	sys_init
ARM GAS  /tmp/ccgn0Ad1.s 			page 7


 342 0008 FFF7FEFF 		bl	sys_clock_config
 343 000c FFF7FEFF 		bl	gpio_init
 344 0010 0122     		movs	r2, #1
 345 0012 0921     		movs	r1, #9
 346 0014 2046     		mov	r0, r4
 347 0016 FFF7FEFF 		bl	gpio_pin_init
 348 001a 4FF40076 		mov	r6, #512
 349 001e 0022     		movs	r2, #0
 350 0020 0125     		movs	r5, #1
 351 0022 1146     		mov	r1, r2
 352 0024 5148     		ldr	r0, .L74+4
 353 0026 A661     		str	r6, [r4, #24]
 354 0028 FFF7FEFF 		bl	gpio_pin_init
 355 002c 0022     		movs	r2, #0
 356 002e 0321     		movs	r1, #3
 357 0030 4F48     		ldr	r0, .L74+8
 358 0032 FFF7FEFF 		bl	gpio_pin_init
 359 0036 2A46     		mov	r2, r5
 360 0038 0021     		movs	r1, #0
 361 003a 2046     		mov	r0, r4
 362 003c A562     		str	r5, [r4, #40]
 363 003e FFF7FEFF 		bl	gpio_pin_init
 364 0042 4FF48053 		mov	r3, #4096
 365 0046 2A46     		mov	r2, r5
 366 0048 A362     		str	r3, [r4, #40]
 367 004a 0C21     		movs	r1, #12
 368 004c 2046     		mov	r0, r4
 369 004e FFF7FEFF 		bl	gpio_pin_init
 370 0052 2A46     		mov	r2, r5
 371 0054 0021     		movs	r1, #0
 372 0056 2046     		mov	r0, r4
 373 0058 FFF7FEFF 		bl	gpio_pin_init
 374 005c A561     		str	r5, [r4, #24]
 375 005e FFF7FEFF 		bl	wd_init
 376 0062 FFF7FEFF 		bl	wd_run
 377 0066 FFF7FEFF 		bl	reset_get_type
 378 006a 424D     		ldr	r5, .L74+12
 379 006c 2870     		strb	r0, [r5]
 380 006e FFF7FEFF 		bl	timer_init
 381 0072 0A20     		movs	r0, #10
 382 0074 FFF7FEFF 		bl	time_delay_ms
 383 0078 3F48     		ldr	r0, .L74+16
 384 007a FFF7FEFF 		bl	tty_init
 385 007e 0A20     		movs	r0, #10
 386 0080 FFF7FEFF 		bl	time_delay_ms
 387 0084 3D48     		ldr	r0, .L74+20
 388 0086 FFF7FEFF 		bl	tty_put_text
 389 008a 3D48     		ldr	r0, .L74+24
 390 008c FFF7FEFF 		bl	tty_put_text
 391 0090 3C48     		ldr	r0, .L74+28
 392 0092 A662     		str	r6, [r4, #40]
 393 0094 FFF7FEFF 		bl	tty_put_text
 394 0098 3B48     		ldr	r0, .L74+32
 395 009a FFF7FEFF 		bl	tty_put_text
 396 009e 2B78     		ldrb	r3, [r5]	@ zero_extendqisi2
 397 00a0 032B     		cmp	r3, #3
 398 00a2 5AD8     		bhi	.L57
ARM GAS  /tmp/ccgn0Ad1.s 			page 8


 399 00a4 DFE803F0 		tbb	[pc, r3]
 400              	.L59:
 401 00a8 02       		.byte	(.L62-.L59)/2
 402 00a9 53       		.byte	(.L61-.L59)/2
 403 00aa 55       		.byte	(.L60-.L59)/2
 404 00ab 57       		.byte	(.L58-.L59)/2
 405              		.p2align 1
 406              	.L62:
 407 00ac 3748     		ldr	r0, .L74+36
 408              	.L72:
 409 00ae FFF7FEFF 		bl	tty_put_text
 410 00b2 374C     		ldr	r4, .L74+40
 411 00b4 3148     		ldr	r0, .L74+20
 412 00b6 FFF7FEFF 		bl	tty_put_text
 413 00ba 3048     		ldr	r0, .L74+20
 414 00bc FFF7FEFF 		bl	tty_put_text
 415 00c0 FFF7FEFF 		bl	reset_clear
 416 00c4 2046     		mov	r0, r4
 417 00c6 FFF7FEFF 		bl	led_init
 418 00ca 324B     		ldr	r3, .L74+44
 419 00cc 2046     		mov	r0, r4
 420 00ce A360     		str	r3, [r4, #8]
 421 00d0 314B     		ldr	r3, .L74+48
 422 00d2 0422     		movs	r2, #4
 423 00d4 0121     		movs	r1, #1
 424 00d6 E360     		str	r3, [r4, #12]
 425 00d8 0023     		movs	r3, #0
 426 00da FFF7FEFF 		bl	led_cyclic_sequence
 427 00de FFF7FEFF 		bl	usb_device_init
 428 00e2 FFF7FEFF 		bl	spi1_init
 429 00e6 FFF7FEFF 		bl	timer_get_time
 430 00ea 0446     		mov	r4, r0
 431 00ec 0E46     		mov	r6, r1
 432 00ee 2B4F     		ldr	r7, .L74+52
 433 00f0 DFF8C480 		ldr	r8, .L74+80
 434              	.L68:
 435 00f4 FFF7FEFF 		bl	timer_get_time
 436 00f8 8146     		mov	r9, r0
 437 00fa 0D46     		mov	r5, r1
 438 00fc FFF7FEFF 		bl	tty_rx_task
 439 0100 FFF7FEFF 		bl	usb_device_task
 440 0104 4C45     		cmp	r4, r9
 441 0106 76EB0503 		sbcs	r3, r6, r5
 442 010a 1ED2     		bcs	.L64
 443 010c FFF7FEFF 		bl	usb_device_connected
 444 0110 3B78     		ldrb	r3, [r7]	@ zero_extendqisi2
 445 0112 0546     		mov	r5, r0
 446 0114 8342     		cmp	r3, r0
 447 0116 07D0     		beq	.L65
 448 0118 08B3     		cbz	r0, .L66
 449 011a 0023     		movs	r3, #0
 450 011c 0422     		movs	r2, #4
 451 011e 0F21     		movs	r1, #15
 452              	.L73:
 453 0120 1B48     		ldr	r0, .L74+40
 454 0122 FFF7FEFF 		bl	led_cyclic_sequence
 455 0126 3D70     		strb	r5, [r7]
ARM GAS  /tmp/ccgn0Ad1.s 			page 9


 456              	.L65:
 457 0128 14EB0804 		adds	r4, r4, r8
 458 012c 1848     		ldr	r0, .L74+40
 459 012e 46F10006 		adc	r6, r6, #0
 460 0132 FFF7FEFF 		bl	led_tick
 461 0136 FFF7FEFF 		bl	wd_feed
 462 013a 194B     		ldr	r3, .L74+56
 463 013c 1B78     		ldrb	r3, [r3]	@ zero_extendqisi2
 464 013e 23B1     		cbz	r3, .L64
 465 0140 184B     		ldr	r3, .L74+60
 466 0142 1B78     		ldrb	r3, [r3]	@ zero_extendqisi2
 467 0144 0BB9     		cbnz	r3, .L64
 468 0146 FFF7FEFF 		bl	_spi_auto_task
 469              	.L64:
 470              		.syntax unified
 471              	@ 270 "main.c" 1
 472 014a 30BF     		wfi
 473              	@ 0 "" 2
 474              		.thumb
 475              		.syntax unified
 476 014c D2E7     		b	.L68
 477              	.L61:
 478 014e 1648     		ldr	r0, .L74+64
 479 0150 ADE7     		b	.L72
 480              	.L60:
 481 0152 1648     		ldr	r0, .L74+68
 482 0154 ABE7     		b	.L72
 483              	.L58:
 484 0156 1648     		ldr	r0, .L74+72
 485 0158 A9E7     		b	.L72
 486              	.L57:
 487 015a 1648     		ldr	r0, .L74+76
 488 015c A7E7     		b	.L72
 489              	.L66:
 490 015e 0346     		mov	r3, r0
 491 0160 0422     		movs	r2, #4
 492 0162 0121     		movs	r1, #1
 493 0164 DCE7     		b	.L73
 494              	.L75:
 495 0166 00BF     		.align	2
 496              	.L74:
 497 0168 00000242 		.word	1107427328
 498 016c 00040242 		.word	1107428352
 499 0170 001C0242 		.word	1107434496
 500 0174 00000000 		.word	.LANCHOR3
 501 0178 00000000 		.word	_tty_rx_parser
 502 017c 00000000 		.word	.LC2
 503 0180 03000000 		.word	.LC3
 504 0184 0F000000 		.word	.LC4
 505 0188 2B000000 		.word	.LC5
 506 018c 3A000000 		.word	.LC6
 507 0190 00000000 		.word	.LANCHOR4
 508 0194 00000000 		.word	_led1_on
 509 0198 00000000 		.word	_led1_off
 510 019c 00000000 		.word	.LANCHOR5
 511 01a0 00000000 		.word	.LANCHOR6
 512 01a4 00000000 		.word	.LANCHOR0
ARM GAS  /tmp/ccgn0Ad1.s 			page 10


 513 01a8 43000000 		.word	.LC7
 514 01ac 4B000000 		.word	.LC8
 515 01b0 4F000000 		.word	.LC9
 516 01b4 53000000 		.word	.LC10
 517 01b8 A0860100 		.word	100000
 519              		.global	main_spi_no_resp
 520              		.global	main_spi_get_resp
 521              		.global	main_spi_auto
 522              		.section	.bss._spi_cs_active,"aw",%nobits
 523              		.set	.LANCHOR0,. + 0
 526              	_spi_cs_active:
 527 0000 00       		.space	1
 528              		.section	.bss.led1,"aw",%nobits
 529              		.align	2
 530              		.set	.LANCHOR4,. + 0
 533              	led1:
 534 0000 00000000 		.space	20
 534      00000000 
 534      00000000 
 534      00000000 
 534      00000000 
 535              		.section	.bss.main_spi_auto,"aw",%nobits
 536              		.set	.LANCHOR6,. + 0
 539              	main_spi_auto:
 540 0000 00       		.space	1
 541              		.section	.bss.main_spi_get_resp,"aw",%nobits
 542              		.set	.LANCHOR1,. + 0
 545              	main_spi_get_resp:
 546 0000 00       		.space	1
 547              		.section	.bss.main_spi_no_resp,"aw",%nobits
 548              		.set	.LANCHOR2,. + 0
 551              	main_spi_no_resp:
 552 0000 00       		.space	1
 553              		.section	.bss.prev_state.0,"aw",%nobits
 554              		.set	.LANCHOR5,. + 0
 557              	prev_state.0:
 558 0000 00       		.space	1
 559              		.section	.bss.reset_type,"aw",%nobits
 560              		.set	.LANCHOR3,. + 0
 563              	reset_type:
 564 0000 00       		.space	1
 565              		.ident	"GCC: (15:10.3-2021.07-4) 10.3.1 20210621 (release)"
ARM GAS  /tmp/ccgn0Ad1.s 			page 11

