ARM GAS  /tmp/cc4bbrrw.s 			page 1


   1              		.cpu cortex-m3
   2              		.eabi_attribute 20, 1
   3              		.eabi_attribute 21, 1
   4              		.eabi_attribute 23, 3
   5              		.eabi_attribute 24, 1
   6              		.eabi_attribute 25, 1
   7              		.eabi_attribute 26, 1
   8              		.eabi_attribute 30, 4
   9              		.eabi_attribute 34, 1
  10              		.eabi_attribute 18, 4
  11              		.file	"buf.c"
  12              		.text
  13              		.section	.rodata.buf_range_check.str1.1,"aMS",%progbits,1
  14              	.LC0:
  15 0000 41535345 		.ascii	"ASSERT: ../sdk/common/buf.c:419 BUF_RANGE_FAILURE b"
  15      52543A20 
  15      2E2E2F73 
  15      646B2F63 
  15      6F6D6D6F 
  16 0033 75665F72 		.ascii	"uf_range_check()\015\000"
  16      616E6765 
  16      5F636865 
  16      636B2829 
  16      0D00
  17              		.section	.text.buf_range_check,"ax",%progbits
  18              		.align	1
  19              		.arch armv7-m
  20              		.syntax unified
  21              		.thumb
  22              		.thumb_func
  23              		.fpu softvfp
  25              	buf_range_check:
  26              		@ args = 0, pretend = 0, frame = 0
  27              		@ frame_needed = 0, uses_anonymous_args = 0
  28 0000 0029     		cmp	r1, #0
  29 0002 08B5     		push	{r3, lr}
  30 0004 05DB     		blt	.L2
  31 0006 002A     		cmp	r2, #0
  32 0008 03DB     		blt	.L2
  33 000a 4368     		ldr	r3, [r0, #4]
  34 000c 1144     		add	r1, r1, r2
  35 000e 9942     		cmp	r1, r3
  36 0010 03DD     		ble	.L1
  37              	.L2:
  38 0012 0248     		ldr	r0, .L5
  39 0014 FFF7FEFF 		bl	puts
  40              	.L4:
  41 0018 FEE7     		b	.L4
  42              	.L1:
  43 001a 08BD     		pop	{r3, pc}
  44              	.L6:
  45              		.align	2
  46              	.L5:
  47 001c 00000000 		.word	.LC0
  49              		.section	.text.buf_range_normalize,"ax",%progbits
  50              		.align	1
  51              		.syntax unified
ARM GAS  /tmp/cc4bbrrw.s 			page 2


  52              		.thumb
  53              		.thumb_func
  54              		.fpu softvfp
  56              	buf_range_normalize:
  57              		@ args = 0, pretend = 0, frame = 0
  58              		@ frame_needed = 0, uses_anonymous_args = 0
  59 0000 6FF00043 		mvn	r3, #-2147483648
  60 0004 10B5     		push	{r4, lr}
  61 0006 0C68     		ldr	r4, [r1]
  62 0008 9C42     		cmp	r4, r3
  63 000a 0BD1     		bne	.L8
  64 000c 4368     		ldr	r3, [r0, #4]
  65              	.L11:
  66 000e 0B60     		str	r3, [r1]
  67              	.L9:
  68 0010 6FF00043 		mvn	r3, #-2147483648
  69 0014 1468     		ldr	r4, [r2]
  70 0016 9C42     		cmp	r4, r3
  71 0018 01BF     		itttt	eq
  72 001a 4368     		ldreq	r3, [r0, #4]
  73 001c 0968     		ldreq	r1, [r1]
  74 001e 5B1A     		subeq	r3, r3, r1
  75 0020 1360     		streq	r3, [r2]
  76 0022 10BD     		pop	{r4, pc}
  77              	.L8:
  78 0024 002C     		cmp	r4, #0
  79 0026 F3DA     		bge	.L9
  80 0028 4368     		ldr	r3, [r0, #4]
  81 002a 2344     		add	r3, r3, r4
  82 002c EFE7     		b	.L11
  84              		.section	.text.buf_init_full,"ax",%progbits
  85              		.align	1
  86              		.global	buf_init_full
  87              		.syntax unified
  88              		.thumb
  89              		.thumb_func
  90              		.fpu softvfp
  92              	buf_init_full:
  93              		@ args = 0, pretend = 0, frame = 0
  94              		@ frame_needed = 0, uses_anonymous_args = 0
  95              		@ link register save eliminated.
  96 0000 11B9     		cbnz	r1, .L13
  97 0002 8160     		str	r1, [r0, #8]
  98 0004 0846     		mov	r0, r1
  99 0006 7047     		bx	lr
 100              	.L13:
 101 0008 531C     		adds	r3, r2, #1
 102 000a C0E90123 		strd	r2, r3, [r0, #4]
 103 000e 0160     		str	r1, [r0]
 104 0010 0120     		movs	r0, #1
 105 0012 7047     		bx	lr
 107              		.section	.text.buf_free,"ax",%progbits
 108              		.align	1
 109              		.global	buf_free
 110              		.syntax unified
 111              		.thumb
 112              		.thumb_func
ARM GAS  /tmp/cc4bbrrw.s 			page 3


 113              		.fpu softvfp
 115              	buf_free:
 116              		@ args = 0, pretend = 0, frame = 0
 117              		@ frame_needed = 0, uses_anonymous_args = 0
 118 0000 10B5     		push	{r4, lr}
 119 0002 0446     		mov	r4, r0
 120 0004 0068     		ldr	r0, [r0]
 121 0006 08B1     		cbz	r0, .L16
 122 0008 FFF7FEFF 		bl	free
 123              	.L16:
 124 000c 0023     		movs	r3, #0
 125 000e A360     		str	r3, [r4, #8]
 126 0010 10BD     		pop	{r4, pc}
 128              		.section	.rodata.buf_adjust.str1.1,"aMS",%progbits,1
 129              	.LC1:
 130 0000 41535345 		.ascii	"ASSERT: ../sdk/common/buf.c:65 BUF_RANGE_FAILURE bu"
 130      52543A20 
 130      2E2E2F73 
 130      646B2F63 
 130      6F6D6D6F 
 131 0033 665F6164 		.ascii	"f_adjust()\015\000"
 131      6A757374 
 131      28290D00 
 132              		.section	.text.buf_adjust,"ax",%progbits
 133              		.align	1
 134              		.global	buf_adjust
 135              		.syntax unified
 136              		.thumb
 137              		.thumb_func
 138              		.fpu softvfp
 140              	buf_adjust:
 141              		@ args = 0, pretend = 0, frame = 0
 142              		@ frame_needed = 0, uses_anonymous_args = 0
 143 0000 0029     		cmp	r1, #0
 144 0002 08B5     		push	{r3, lr}
 145 0004 02DB     		blt	.L21
 146 0006 8368     		ldr	r3, [r0, #8]
 147 0008 8B42     		cmp	r3, r1
 148 000a 03DC     		bgt	.L22
 149              	.L21:
 150 000c 0448     		ldr	r0, .L24
 151 000e FFF7FEFF 		bl	puts
 152              	.L23:
 153 0012 FEE7     		b	.L23
 154              	.L22:
 155 0014 0022     		movs	r2, #0
 156 0016 0368     		ldr	r3, [r0]
 157 0018 4160     		str	r1, [r0, #4]
 158 001a 5A54     		strb	r2, [r3, r1]
 159 001c 08BD     		pop	{r3, pc}
 160              	.L25:
 161 001e 00BF     		.align	2
 162              	.L24:
 163 0020 00000000 		.word	.LC1
 165              		.section	.rodata.buf_init.str1.1,"aMS",%progbits,1
 166              	.LC2:
 167 0000 41535345 		.ascii	"ASSERT: ../sdk/common/buf.c:24 BUF_RANGE_FAILURE bu"
ARM GAS  /tmp/cc4bbrrw.s 			page 4


 167      52543A20 
 167      2E2E2F73 
 167      646B2F63 
 167      6F6D6D6F 
 168 0033 665F696E 		.ascii	"f_init()\015\000"
 168      69742829 
 168      0D00
 169              		.section	.text.buf_init,"ax",%progbits
 170              		.align	1
 171              		.global	buf_init
 172              		.syntax unified
 173              		.thumb
 174              		.thumb_func
 175              		.fpu softvfp
 177              	buf_init:
 178              		@ args = 0, pretend = 0, frame = 0
 179              		@ frame_needed = 0, uses_anonymous_args = 0
 180 0000 38B5     		push	{r3, r4, r5, lr}
 181 0002 151E     		subs	r5, r2, #0
 182 0004 0446     		mov	r4, r0
 183 0006 03DC     		bgt	.L27
 184 0008 0948     		ldr	r0, .L32
 185 000a FFF7FEFF 		bl	puts
 186              	.L28:
 187 000e FEE7     		b	.L28
 188              	.L27:
 189 0010 31B9     		cbnz	r1, .L29
 190 0012 2846     		mov	r0, r5
 191 0014 FFF7FEFF 		bl	malloc
 192 0018 2060     		str	r0, [r4]
 193 001a 10B9     		cbnz	r0, .L30
 194 001c A060     		str	r0, [r4, #8]
 195              	.L31:
 196 001e 38BD     		pop	{r3, r4, r5, pc}
 197              	.L29:
 198 0020 0160     		str	r1, [r0]
 199              	.L30:
 200 0022 2046     		mov	r0, r4
 201 0024 0021     		movs	r1, #0
 202 0026 A560     		str	r5, [r4, #8]
 203 0028 FFF7FEFF 		bl	buf_adjust
 204 002c 0120     		movs	r0, #1
 205 002e F6E7     		b	.L31
 206              	.L33:
 207              		.align	2
 208              	.L32:
 209 0030 00000000 		.word	.LC2
 211              		.section	.text.buf_fill,"ax",%progbits
 212              		.align	1
 213              		.global	buf_fill
 214              		.syntax unified
 215              		.thumb
 216              		.thumb_func
 217              		.fpu softvfp
 219              	buf_fill:
 220              		@ args = 0, pretend = 0, frame = 0
 221              		@ frame_needed = 0, uses_anonymous_args = 0
ARM GAS  /tmp/cc4bbrrw.s 			page 5


 222              		@ link register save eliminated.
 223 0000 10B4     		push	{r4}
 224 0002 0022     		movs	r2, #0
 225 0004 0C46     		mov	r4, r1
 226              	.L35:
 227 0006 8368     		ldr	r3, [r0, #8]
 228 0008 591E     		subs	r1, r3, #1
 229 000a 9142     		cmp	r1, r2
 230 000c 02DC     		bgt	.L36
 231 000e 10BC     		pop	{r4}
 232 0010 FFF7FEBF 		b	buf_adjust
 233              	.L36:
 234 0014 0368     		ldr	r3, [r0]
 235 0016 9C54     		strb	r4, [r3, r2]
 236 0018 0132     		adds	r2, r2, #1
 237 001a F4E7     		b	.L35
 239              		.section	.text.buf_equals_buf,"ax",%progbits
 240              		.align	1
 241              		.global	buf_equals_buf
 242              		.syntax unified
 243              		.thumb
 244              		.thumb_func
 245              		.fpu softvfp
 247              	buf_equals_buf:
 248              		@ args = 0, pretend = 0, frame = 0
 249              		@ frame_needed = 0, uses_anonymous_args = 0
 250 0000 08B5     		push	{r3, lr}
 251 0002 4268     		ldr	r2, [r0, #4]
 252 0004 4B68     		ldr	r3, [r1, #4]
 253 0006 9A42     		cmp	r2, r3
 254 0008 07D1     		bne	.L39
 255 000a 0968     		ldr	r1, [r1]
 256 000c 0068     		ldr	r0, [r0]
 257 000e FFF7FEFF 		bl	memcmp
 258 0012 B0FA80F0 		clz	r0, r0
 259 0016 4009     		lsrs	r0, r0, #5
 260              	.L38:
 261 0018 08BD     		pop	{r3, pc}
 262              	.L39:
 263 001a 0020     		movs	r0, #0
 264 001c FCE7     		b	.L38
 266              		.section	.text.buf_equals_str,"ax",%progbits
 267              		.align	1
 268              		.global	buf_equals_str
 269              		.syntax unified
 270              		.thumb
 271              		.thumb_func
 272              		.fpu softvfp
 274              	buf_equals_str:
 275              		@ args = 0, pretend = 0, frame = 0
 276              		@ frame_needed = 0, uses_anonymous_args = 0
 277 0000 38B5     		push	{r3, r4, r5, lr}
 278 0002 0446     		mov	r4, r0
 279 0004 0846     		mov	r0, r1
 280 0006 0D46     		mov	r5, r1
 281 0008 FFF7FEFF 		bl	strlen
 282 000c A388     		ldrh	r3, [r4, #4]
ARM GAS  /tmp/cc4bbrrw.s 			page 6


 283 000e 8342     		cmp	r3, r0
 284 0010 07D1     		bne	.L42
 285 0012 2946     		mov	r1, r5
 286 0014 2068     		ldr	r0, [r4]
 287 0016 FFF7FEFF 		bl	strcmp
 288 001a B0FA80F0 		clz	r0, r0
 289 001e 4009     		lsrs	r0, r0, #5
 290              	.L41:
 291 0020 38BD     		pop	{r3, r4, r5, pc}
 292              	.L42:
 293 0022 0020     		movs	r0, #0
 294 0024 FCE7     		b	.L41
 296              		.section	.text.buf_mem,"ax",%progbits
 297              		.align	1
 298              		.global	buf_mem
 299              		.syntax unified
 300              		.thumb
 301              		.thumb_func
 302              		.fpu softvfp
 304              	buf_mem:
 305              		@ args = 0, pretend = 0, frame = 8
 306              		@ frame_needed = 0, uses_anonymous_args = 0
 307 0000 13B5     		push	{r0, r1, r4, lr}
 308 0002 0446     		mov	r4, r0
 309 0004 CDE90021 		strd	r2, r1, [sp]
 310 0008 6A46     		mov	r2, sp
 311 000a 01A9     		add	r1, sp, #4
 312 000c FFF7FEFF 		bl	buf_range_normalize
 313 0010 DDE90021 		ldrd	r2, r1, [sp]
 314 0014 FFF7FEFF 		bl	buf_range_check
 315 0018 2068     		ldr	r0, [r4]
 316 001a 019B     		ldr	r3, [sp, #4]
 317 001c 1844     		add	r0, r0, r3
 318 001e 02B0     		add	sp, sp, #8
 319              		@ sp needed
 320 0020 10BD     		pop	{r4, pc}
 322              		.section	.rodata.buf_replace_vfmt.str1.1,"aMS",%progbits,1
 323              	.LC3:
 324 0000 41535345 		.ascii	"ASSERT: ../sdk/common/buf.c:168 BUF_RANGE_FAILURE b"
 324      52543A20 
 324      2E2E2F73 
 324      646B2F63 
 324      6F6D6D6F 
 325 0033 75665F72 		.ascii	"uf_replace_vfmt()\015\000"
 325      65706C61 
 325      63655F76 
 325      666D7428 
 325      290D00
 326              		.section	.text.buf_replace_vfmt,"ax",%progbits
 327              		.align	1
 328              		.global	buf_replace_vfmt
 329              		.syntax unified
 330              		.thumb
 331              		.thumb_func
 332              		.fpu softvfp
 334              	buf_replace_vfmt:
 335              		@ args = 4, pretend = 0, frame = 8
ARM GAS  /tmp/cc4bbrrw.s 			page 7


 336              		@ frame_needed = 0, uses_anonymous_args = 0
 337 0000 73B5     		push	{r0, r1, r4, r5, r6, lr}
 338 0002 0446     		mov	r4, r0
 339 0004 1D46     		mov	r5, r3
 340 0006 CDE90021 		strd	r2, r1, [sp]
 341 000a 6A46     		mov	r2, sp
 342 000c 01A9     		add	r1, sp, #4
 343 000e FFF7FEFF 		bl	buf_range_normalize
 344 0012 DDE90021 		ldrd	r2, r1, [sp]
 345 0016 FFF7FEFF 		bl	buf_range_check
 346 001a DDE90013 		ldrd	r1, r3, [sp]
 347 001e 2068     		ldr	r0, [r4]
 348 0020 2A46     		mov	r2, r5
 349 0022 1844     		add	r0, r0, r3
 350 0024 465C     		ldrb	r6, [r0, r1]	@ zero_extendqisi2
 351 0026 069B     		ldr	r3, [sp, #24]
 352 0028 0131     		adds	r1, r1, #1
 353 002a FFF7FEFF 		bl	vsnprintf
 354 002e 009A     		ldr	r2, [sp]
 355 0030 8242     		cmp	r2, r0
 356 0032 03D0     		beq	.L45
 357 0034 0448     		ldr	r0, .L47
 358 0036 FFF7FEFF 		bl	puts
 359              	.L46:
 360 003a FEE7     		b	.L46
 361              	.L45:
 362 003c 2368     		ldr	r3, [r4]
 363 003e 1344     		add	r3, r3, r2
 364 0040 019A     		ldr	r2, [sp, #4]
 365 0042 9E54     		strb	r6, [r3, r2]
 366 0044 02B0     		add	sp, sp, #8
 367              		@ sp needed
 368 0046 70BD     		pop	{r4, r5, r6, pc}
 369              	.L48:
 370              		.align	2
 371              	.L47:
 372 0048 00000000 		.word	.LC3
 374              		.section	.text.buf_replace_fmt,"ax",%progbits
 375              		.align	1
 376              		.global	buf_replace_fmt
 377              		.syntax unified
 378              		.thumb
 379              		.thumb_func
 380              		.fpu softvfp
 382              	buf_replace_fmt:
 383              		@ args = 4, pretend = 4, frame = 8
 384              		@ frame_needed = 0, uses_anonymous_args = 1
 385 0000 08B4     		push	{r3}
 386 0002 10B5     		push	{r4, lr}
 387 0004 85B0     		sub	sp, sp, #20
 388 0006 07AC     		add	r4, sp, #28
 389 0008 54F8043B 		ldr	r3, [r4], #4
 390 000c 0094     		str	r4, [sp]
 391 000e 0394     		str	r4, [sp, #12]
 392 0010 FFF7FEFF 		bl	buf_replace_vfmt
 393 0014 05B0     		add	sp, sp, #20
 394              		@ sp needed
ARM GAS  /tmp/cc4bbrrw.s 			page 8


 395 0016 BDE81040 		pop	{r4, lr}
 396 001a 01B0     		add	sp, sp, #4
 397 001c 7047     		bx	lr
 399              		.section	.text.buf_mem_copy,"ax",%progbits
 400              		.align	1
 401              		.global	buf_mem_copy
 402              		.syntax unified
 403              		.thumb
 404              		.thumb_func
 405              		.fpu softvfp
 407              	buf_mem_copy:
 408              		@ args = 0, pretend = 0, frame = 0
 409              		@ frame_needed = 0, uses_anonymous_args = 0
 410 0000 0023     		movs	r3, #0
 411 0002 10B5     		push	{r4, lr}
 412              	.L51:
 413 0004 9342     		cmp	r3, r2
 414 0006 00DB     		blt	.L52
 415 0008 10BD     		pop	{r4, pc}
 416              	.L52:
 417 000a CC5C     		ldrb	r4, [r1, r3]	@ zero_extendqisi2
 418 000c C454     		strb	r4, [r0, r3]
 419 000e 0133     		adds	r3, r3, #1
 420 0010 F8E7     		b	.L51
 422              		.section	.text.buf_replace_mem,"ax",%progbits
 423              		.align	1
 424              		.global	buf_replace_mem
 425              		.syntax unified
 426              		.thumb
 427              		.thumb_func
 428              		.fpu softvfp
 430              	buf_replace_mem:
 431              		@ args = 0, pretend = 0, frame = 8
 432              		@ frame_needed = 0, uses_anonymous_args = 0
 433 0000 37B5     		push	{r0, r1, r2, r4, r5, lr}
 434 0002 0546     		mov	r5, r0
 435 0004 1C46     		mov	r4, r3
 436 0006 CDE90021 		strd	r2, r1, [sp]
 437 000a 6A46     		mov	r2, sp
 438 000c 01A9     		add	r1, sp, #4
 439 000e FFF7FEFF 		bl	buf_range_normalize
 440 0012 DDE90021 		ldrd	r2, r1, [sp]
 441 0016 FFF7FEFF 		bl	buf_range_check
 442 001a 2868     		ldr	r0, [r5]
 443 001c 019B     		ldr	r3, [sp, #4]
 444 001e 2146     		mov	r1, r4
 445 0020 1844     		add	r0, r0, r3
 446 0022 009A     		ldr	r2, [sp]
 447 0024 FFF7FEFF 		bl	buf_mem_copy
 448 0028 0098     		ldr	r0, [sp]
 449 002a 03B0     		add	sp, sp, #12
 450              		@ sp needed
 451 002c 30BD     		pop	{r4, r5, pc}
 453              		.section	.text.buf_replace_str,"ax",%progbits
 454              		.align	1
 455              		.global	buf_replace_str
 456              		.syntax unified
ARM GAS  /tmp/cc4bbrrw.s 			page 9


 457              		.thumb
 458              		.thumb_func
 459              		.fpu softvfp
 461              	buf_replace_str:
 462              		@ args = 0, pretend = 0, frame = 0
 463              		@ frame_needed = 0, uses_anonymous_args = 0
 464 0000 F8B5     		push	{r3, r4, r5, r6, r7, lr}
 465 0002 0646     		mov	r6, r0
 466 0004 1046     		mov	r0, r2
 467 0006 1546     		mov	r5, r2
 468 0008 0F46     		mov	r7, r1
 469 000a FFF7FEFF 		bl	strlen
 470 000e 0446     		mov	r4, r0
 471 0010 0246     		mov	r2, r0
 472 0012 2B46     		mov	r3, r5
 473 0014 3946     		mov	r1, r7
 474 0016 3046     		mov	r0, r6
 475 0018 FFF7FEFF 		bl	buf_replace_mem
 476 001c 2046     		mov	r0, r4
 477 001e F8BD     		pop	{r3, r4, r5, r6, r7, pc}
 479              		.section	.text.buf_replace_buf,"ax",%progbits
 480              		.align	1
 481              		.global	buf_replace_buf
 482              		.syntax unified
 483              		.thumb
 484              		.thumb_func
 485              		.fpu softvfp
 487              	buf_replace_buf:
 488              		@ args = 0, pretend = 0, frame = 0
 489              		@ frame_needed = 0, uses_anonymous_args = 0
 490 0000 10B5     		push	{r4, lr}
 491 0002 1446     		mov	r4, r2
 492 0004 D2E90032 		ldrd	r3, r2, [r2]
 493 0008 FFF7FEFF 		bl	buf_replace_mem
 494 000c 6068     		ldr	r0, [r4, #4]
 495 000e 10BD     		pop	{r4, pc}
 497              		.section	.text.buf_replace_s16,"ax",%progbits
 498              		.align	1
 499              		.global	buf_replace_s16
 500              		.syntax unified
 501              		.thumb
 502              		.thumb_func
 503              		.fpu softvfp
 505              	buf_replace_s16:
 506              		@ args = 0, pretend = 0, frame = 8
 507              		@ frame_needed = 0, uses_anonymous_args = 0
 508 0000 07B5     		push	{r0, r1, r2, lr}
 509 0002 ADF80620 		strh	r2, [sp, #6]	@ movhi
 510 0006 0DF10603 		add	r3, sp, #6
 511 000a 0222     		movs	r2, #2
 512 000c FFF7FEFF 		bl	buf_replace_mem
 513 0010 03B0     		add	sp, sp, #12
 514              		@ sp needed
 515 0012 5DF804FB 		ldr	pc, [sp], #4
 517              		.section	.text.buf_mem_shift,"ax",%progbits
 518              		.align	1
 519              		.global	buf_mem_shift
ARM GAS  /tmp/cc4bbrrw.s 			page 10


 520              		.syntax unified
 521              		.thumb
 522              		.thumb_func
 523              		.fpu softvfp
 525              	buf_mem_shift:
 526              		@ args = 0, pretend = 0, frame = 0
 527              		@ frame_needed = 0, uses_anonymous_args = 0
 528 0000 002A     		cmp	r2, #0
 529 0002 10B5     		push	{r4, lr}
 530 0004 0ADA     		bge	.L58
 531 0006 431E     		subs	r3, r0, #1
 532 0008 C0F10100 		rsb	r0, r0, #1
 533              	.L59:
 534 000c C418     		adds	r4, r0, r3
 535 000e A142     		cmp	r1, r4
 536 0010 00DC     		bgt	.L60
 537              	.L57:
 538 0012 10BD     		pop	{r4, pc}
 539              	.L60:
 540 0014 13F8014F 		ldrb	r4, [r3, #1]!	@ zero_extendqisi2
 541 0018 9C54     		strb	r4, [r3, r2]
 542 001a F7E7     		b	.L59
 543              	.L58:
 544 001c 0144     		add	r1, r1, r0
 545 001e C043     		mvns	r0, r0
 546              	.L61:
 547 0020 C842     		cmn	r0, r1
 548 0022 F6D4     		bmi	.L57
 549 0024 11F8013D 		ldrb	r3, [r1, #-1]!	@ zero_extendqisi2
 550 0028 8B54     		strb	r3, [r1, r2]
 551 002a F9E7     		b	.L61
 553              		.section	.text.buf_delete,"ax",%progbits
 554              		.align	1
 555              		.global	buf_delete
 556              		.syntax unified
 557              		.thumb
 558              		.thumb_func
 559              		.fpu softvfp
 561              	buf_delete:
 562              		@ args = 0, pretend = 0, frame = 8
 563              		@ frame_needed = 0, uses_anonymous_args = 0
 564 0000 37B5     		push	{r0, r1, r2, r4, r5, lr}
 565 0002 0446     		mov	r4, r0
 566 0004 CDE90021 		strd	r2, r1, [sp]
 567 0008 6A46     		mov	r2, sp
 568 000a 01A9     		add	r1, sp, #4
 569 000c FFF7FEFF 		bl	buf_range_normalize
 570 0010 DDE90021 		ldrd	r2, r1, [sp]
 571 0014 FFF7FEFF 		bl	buf_range_check
 572 0018 DDE90030 		ldrd	r3, r0, [sp]
 573 001c 6168     		ldr	r1, [r4, #4]
 574 001e 2568     		ldr	r5, [r4]
 575 0020 091A     		subs	r1, r1, r0
 576 0022 1844     		add	r0, r0, r3
 577 0024 5A42     		rsbs	r2, r3, #0
 578 0026 C91A     		subs	r1, r1, r3
 579 0028 2844     		add	r0, r0, r5
ARM GAS  /tmp/cc4bbrrw.s 			page 11


 580 002a FFF7FEFF 		bl	buf_mem_shift
 581 002e 6168     		ldr	r1, [r4, #4]
 582 0030 009B     		ldr	r3, [sp]
 583 0032 2046     		mov	r0, r4
 584 0034 C91A     		subs	r1, r1, r3
 585 0036 FFF7FEFF 		bl	buf_adjust
 586 003a 03B0     		add	sp, sp, #12
 587              		@ sp needed
 588 003c 30BD     		pop	{r4, r5, pc}
 590              		.section	.text.buf_trim,"ax",%progbits
 591              		.align	1
 592              		.global	buf_trim
 593              		.syntax unified
 594              		.thumb
 595              		.thumb_func
 596              		.fpu softvfp
 598              	buf_trim:
 599              		@ args = 0, pretend = 0, frame = 8
 600              		@ frame_needed = 0, uses_anonymous_args = 0
 601 0000 13B5     		push	{r0, r1, r4, lr}
 602 0002 0446     		mov	r4, r0
 603 0004 CDE90021 		strd	r2, r1, [sp]
 604 0008 6A46     		mov	r2, sp
 605 000a 01A9     		add	r1, sp, #4
 606 000c FFF7FEFF 		bl	buf_range_normalize
 607 0010 DDE90031 		ldrd	r3, r1, [sp]
 608 0014 6FF00042 		mvn	r2, #-2147483648
 609 0018 1944     		add	r1, r1, r3
 610 001a FFF7FEFF 		bl	buf_delete
 611 001e 0021     		movs	r1, #0
 612 0020 2046     		mov	r0, r4
 613 0022 019A     		ldr	r2, [sp, #4]
 614 0024 FFF7FEFF 		bl	buf_delete
 615 0028 02B0     		add	sp, sp, #8
 616              		@ sp needed
 617 002a 10BD     		pop	{r4, pc}
 619              		.section	.rodata.buf_insert_mem.str1.1,"aMS",%progbits,1
 620              	.LC4:
 621 0000 41535345 		.ascii	"ASSERT: ../sdk/common/buf.c:424 BUF_RANGE_FAILURE b"
 621      52543A20 
 621      2E2E2F73 
 621      646B2F63 
 621      6F6D6D6F 
 622 0033 75665F72 		.ascii	"uf_resize()\015\000"
 622      6573697A 
 622      6528290D 
 622      00
 623              		.section	.text.buf_insert_mem,"ax",%progbits
 624              		.align	1
 625              		.global	buf_insert_mem
 626              		.syntax unified
 627              		.thumb
 628              		.thumb_func
 629              		.fpu softvfp
 631              	buf_insert_mem:
 632              		@ args = 0, pretend = 0, frame = 8
 633              		@ frame_needed = 0, uses_anonymous_args = 0
ARM GAS  /tmp/cc4bbrrw.s 			page 12


 634 0000 37B5     		push	{r0, r1, r2, r4, r5, lr}
 635 0002 CDE90021 		strd	r2, r1, [sp]
 636 0006 6A46     		mov	r2, sp
 637 0008 01A9     		add	r1, sp, #4
 638 000a 0446     		mov	r4, r0
 639 000c 1D46     		mov	r5, r3
 640 000e FFF7FEFF 		bl	buf_range_normalize
 641 0012 0198     		ldr	r0, [sp, #4]
 642 0014 0028     		cmp	r0, #0
 643 0016 05DB     		blt	.L67
 644 0018 009B     		ldr	r3, [sp]
 645 001a 002B     		cmp	r3, #0
 646 001c 02DB     		blt	.L67
 647 001e 6168     		ldr	r1, [r4, #4]
 648 0020 8842     		cmp	r0, r1
 649 0022 03DD     		ble	.L68
 650              	.L67:
 651 0024 1048     		ldr	r0, .L71
 652 0026 FFF7FEFF 		bl	puts
 653              	.L69:
 654 002a FEE7     		b	.L69
 655              	.L68:
 656 002c A268     		ldr	r2, [r4, #8]
 657 002e 521A     		subs	r2, r2, r1
 658 0030 9342     		cmp	r3, r2
 659 0032 A8BF     		it	ge
 660 0034 02F1FF32 		addge	r2, r2, #-1
 661 0038 2368     		ldr	r3, [r4]
 662 003a A8BF     		it	ge
 663 003c 0092     		strge	r2, [sp]
 664 003e 009A     		ldr	r2, [sp]
 665 0040 091A     		subs	r1, r1, r0
 666 0042 1844     		add	r0, r0, r3
 667 0044 FFF7FEFF 		bl	buf_mem_shift
 668 0048 009B     		ldr	r3, [sp]
 669 004a 6168     		ldr	r1, [r4, #4]
 670 004c 2046     		mov	r0, r4
 671 004e 1944     		add	r1, r1, r3
 672 0050 FFF7FEFF 		bl	buf_adjust
 673 0054 2068     		ldr	r0, [r4]
 674 0056 019B     		ldr	r3, [sp, #4]
 675 0058 2946     		mov	r1, r5
 676 005a 1844     		add	r0, r0, r3
 677 005c 009A     		ldr	r2, [sp]
 678 005e FFF7FEFF 		bl	buf_mem_copy
 679 0062 0098     		ldr	r0, [sp]
 680 0064 03B0     		add	sp, sp, #12
 681              		@ sp needed
 682 0066 30BD     		pop	{r4, r5, pc}
 683              	.L72:
 684              		.align	2
 685              	.L71:
 686 0068 00000000 		.word	.LC4
 688              		.section	.text.buf_insert_char,"ax",%progbits
 689              		.align	1
 690              		.global	buf_insert_char
 691              		.syntax unified
ARM GAS  /tmp/cc4bbrrw.s 			page 13


 692              		.thumb
 693              		.thumb_func
 694              		.fpu softvfp
 696              	buf_insert_char:
 697              		@ args = 0, pretend = 0, frame = 8
 698              		@ frame_needed = 0, uses_anonymous_args = 0
 699 0000 07B5     		push	{r0, r1, r2, lr}
 700 0002 8DF80720 		strb	r2, [sp, #7]
 701 0006 0DF10703 		add	r3, sp, #7
 702 000a 0122     		movs	r2, #1
 703 000c FFF7FEFF 		bl	buf_insert_mem
 704 0010 03B0     		add	sp, sp, #12
 705              		@ sp needed
 706 0012 5DF804FB 		ldr	pc, [sp], #4
 708              		.section	.text.buf_insert_hex,"ax",%progbits
 709              		.align	1
 710              		.global	buf_insert_hex
 711              		.syntax unified
 712              		.thumb
 713              		.thumb_func
 714              		.fpu softvfp
 716              	buf_insert_hex:
 717              		@ args = 0, pretend = 0, frame = 0
 718              		@ frame_needed = 0, uses_anonymous_args = 0
 719 0000 2DE9F047 		push	{r4, r5, r6, r7, r8, r9, r10, lr}
 720 0004 0646     		mov	r6, r0
 721 0006 0C46     		mov	r4, r1
 722 0008 1546     		mov	r5, r2
 723 000a 4FF00009 		mov	r9, #0
 724 000e 6FF00048 		mvn	r8, #-2147483648
 725 0012 D718     		adds	r7, r2, r3
 726              	.L75:
 727 0014 BD42     		cmp	r5, r7
 728 0016 02D1     		bne	.L84
 729              	.L74:
 730 0018 4846     		mov	r0, r9
 731 001a BDE8F087 		pop	{r4, r5, r6, r7, r8, r9, r10, pc}
 732              	.L84:
 733 001e 2B78     		ldrb	r3, [r5]	@ zero_extendqisi2
 734 0020 2146     		mov	r1, r4
 735 0022 9F2B     		cmp	r3, #159
 736 0024 4FEA1312 		lsr	r2, r3, #4
 737 0028 8CBF     		ite	hi
 738 002a 3732     		addhi	r2, r2, #55
 739 002c 3032     		addls	r2, r2, #48
 740 002e 3046     		mov	r0, r6
 741 0030 AA46     		mov	r10, r5
 742 0032 FFF7FEFF 		bl	buf_insert_char
 743 0036 0028     		cmp	r0, #0
 744 0038 EED0     		beq	.L74
 745 003a 9AF80020 		ldrb	r2, [r10]	@ zero_extendqisi2
 746 003e 4445     		cmp	r4, r8
 747 0040 02F00F02 		and	r2, r2, #15
 748 0044 18BF     		it	ne
 749 0046 0134     		addne	r4, r4, #1
 750 0048 092A     		cmp	r2, #9
 751 004a 8CBF     		ite	hi
ARM GAS  /tmp/cc4bbrrw.s 			page 14


 752 004c 3732     		addhi	r2, r2, #55
 753 004e 3032     		addls	r2, r2, #48
 754 0050 2146     		mov	r1, r4
 755 0052 3046     		mov	r0, r6
 756 0054 0135     		adds	r5, r5, #1
 757 0056 FFF7FEFF 		bl	buf_insert_char
 758 005a 0028     		cmp	r0, #0
 759 005c DCD0     		beq	.L74
 760 005e 4445     		cmp	r4, r8
 761 0060 18BF     		it	ne
 762 0062 0134     		addne	r4, r4, #1
 763 0064 09F10209 		add	r9, r9, #2
 764 0068 D4E7     		b	.L75
 766              		.section	.text.buf_assign_char,"ax",%progbits
 767              		.align	1
 768              		.global	buf_assign_char
 769              		.syntax unified
 770              		.thumb
 771              		.thumb_func
 772              		.fpu softvfp
 774              	buf_assign_char:
 775              		@ args = 0, pretend = 0, frame = 0
 776              		@ frame_needed = 0, uses_anonymous_args = 0
 777 0000 38B5     		push	{r3, r4, r5, lr}
 778 0002 0446     		mov	r4, r0
 779 0004 0D46     		mov	r5, r1
 780 0006 0021     		movs	r1, #0
 781 0008 FFF7FEFF 		bl	buf_adjust
 782 000c 2A46     		mov	r2, r5
 783 000e 2046     		mov	r0, r4
 784 0010 BDE83840 		pop	{r3, r4, r5, lr}
 785 0014 6FF00041 		mvn	r1, #-2147483648
 786 0018 FFF7FEBF 		b	buf_insert_char
 788              		.section	.text.buf_insert_str,"ax",%progbits
 789              		.align	1
 790              		.global	buf_insert_str
 791              		.syntax unified
 792              		.thumb
 793              		.thumb_func
 794              		.fpu softvfp
 796              	buf_insert_str:
 797              		@ args = 0, pretend = 0, frame = 0
 798              		@ frame_needed = 0, uses_anonymous_args = 0
 799 0000 70B5     		push	{r4, r5, r6, lr}
 800 0002 0546     		mov	r5, r0
 801 0004 1046     		mov	r0, r2
 802 0006 1446     		mov	r4, r2
 803 0008 0E46     		mov	r6, r1
 804 000a FFF7FEFF 		bl	strlen
 805 000e 2346     		mov	r3, r4
 806 0010 0246     		mov	r2, r0
 807 0012 3146     		mov	r1, r6
 808 0014 2846     		mov	r0, r5
 809 0016 BDE87040 		pop	{r4, r5, r6, lr}
 810 001a FFF7FEBF 		b	buf_insert_mem
 812              		.section	.text.buf_assign_str,"ax",%progbits
 813              		.align	1
ARM GAS  /tmp/cc4bbrrw.s 			page 15


 814              		.global	buf_assign_str
 815              		.syntax unified
 816              		.thumb
 817              		.thumb_func
 818              		.fpu softvfp
 820              	buf_assign_str:
 821              		@ args = 0, pretend = 0, frame = 0
 822              		@ frame_needed = 0, uses_anonymous_args = 0
 823 0000 38B5     		push	{r3, r4, r5, lr}
 824 0002 0446     		mov	r4, r0
 825 0004 0D46     		mov	r5, r1
 826 0006 0021     		movs	r1, #0
 827 0008 FFF7FEFF 		bl	buf_adjust
 828 000c 2A46     		mov	r2, r5
 829 000e 2046     		mov	r0, r4
 830 0010 BDE83840 		pop	{r3, r4, r5, lr}
 831 0014 6FF00041 		mvn	r1, #-2147483648
 832 0018 FFF7FEBF 		b	buf_insert_str
 834              		.section	.text.buf_insert_buf,"ax",%progbits
 835              		.align	1
 836              		.global	buf_insert_buf
 837              		.syntax unified
 838              		.thumb
 839              		.thumb_func
 840              		.fpu softvfp
 842              	buf_insert_buf:
 843              		@ args = 0, pretend = 0, frame = 0
 844              		@ frame_needed = 0, uses_anonymous_args = 0
 845              		@ link register save eliminated.
 846 0000 D2E90032 		ldrd	r3, r2, [r2]
 847 0004 FFF7FEBF 		b	buf_insert_mem
 849              		.section	.text.buf_assign_buf,"ax",%progbits
 850              		.align	1
 851              		.global	buf_assign_buf
 852              		.syntax unified
 853              		.thumb
 854              		.thumb_func
 855              		.fpu softvfp
 857              	buf_assign_buf:
 858              		@ args = 0, pretend = 0, frame = 0
 859              		@ frame_needed = 0, uses_anonymous_args = 0
 860 0000 38B5     		push	{r3, r4, r5, lr}
 861 0002 0446     		mov	r4, r0
 862 0004 0D46     		mov	r5, r1
 863 0006 0021     		movs	r1, #0
 864 0008 FFF7FEFF 		bl	buf_adjust
 865 000c 2A46     		mov	r2, r5
 866 000e 2046     		mov	r0, r4
 867 0010 BDE83840 		pop	{r3, r4, r5, lr}
 868 0014 6FF00041 		mvn	r1, #-2147483648
 869 0018 FFF7FEBF 		b	buf_insert_buf
 871              		.section	.text.buf_insert_s8,"ax",%progbits
 872              		.align	1
 873              		.global	buf_insert_s8
 874              		.syntax unified
 875              		.thumb
 876              		.thumb_func
ARM GAS  /tmp/cc4bbrrw.s 			page 16


 877              		.fpu softvfp
 879              	buf_insert_s8:
 880              		@ args = 0, pretend = 0, frame = 8
 881              		@ frame_needed = 0, uses_anonymous_args = 0
 882 0000 07B5     		push	{r0, r1, r2, lr}
 883 0002 8DF80720 		strb	r2, [sp, #7]
 884 0006 0DF10703 		add	r3, sp, #7
 885 000a 0122     		movs	r2, #1
 886 000c FFF7FEFF 		bl	buf_insert_mem
 887 0010 03B0     		add	sp, sp, #12
 888              		@ sp needed
 889 0012 5DF804FB 		ldr	pc, [sp], #4
 891              		.section	.text.buf_assign_s8,"ax",%progbits
 892              		.align	1
 893              		.global	buf_assign_s8
 894              		.syntax unified
 895              		.thumb
 896              		.thumb_func
 897              		.fpu softvfp
 899              	buf_assign_s8:
 900              		@ args = 0, pretend = 0, frame = 0
 901              		@ frame_needed = 0, uses_anonymous_args = 0
 902 0000 38B5     		push	{r3, r4, r5, lr}
 903 0002 0446     		mov	r4, r0
 904 0004 0D46     		mov	r5, r1
 905 0006 0021     		movs	r1, #0
 906 0008 FFF7FEFF 		bl	buf_adjust
 907 000c 2A46     		mov	r2, r5
 908 000e 2046     		mov	r0, r4
 909 0010 BDE83840 		pop	{r3, r4, r5, lr}
 910 0014 6FF00041 		mvn	r1, #-2147483648
 911 0018 FFF7FEBF 		b	buf_insert_s8
 913              		.section	.text.buf_insert_s16,"ax",%progbits
 914              		.align	1
 915              		.global	buf_insert_s16
 916              		.syntax unified
 917              		.thumb
 918              		.thumb_func
 919              		.fpu softvfp
 921              	buf_insert_s16:
 922              		@ args = 0, pretend = 0, frame = 8
 923              		@ frame_needed = 0, uses_anonymous_args = 0
 924 0000 07B5     		push	{r0, r1, r2, lr}
 925 0002 ADF80620 		strh	r2, [sp, #6]	@ movhi
 926 0006 0DF10603 		add	r3, sp, #6
 927 000a 0222     		movs	r2, #2
 928 000c FFF7FEFF 		bl	buf_insert_mem
 929 0010 03B0     		add	sp, sp, #12
 930              		@ sp needed
 931 0012 5DF804FB 		ldr	pc, [sp], #4
 933              		.section	.text.buf_assign_s16,"ax",%progbits
 934              		.align	1
 935              		.global	buf_assign_s16
 936              		.syntax unified
 937              		.thumb
 938              		.thumb_func
 939              		.fpu softvfp
ARM GAS  /tmp/cc4bbrrw.s 			page 17


 941              	buf_assign_s16:
 942              		@ args = 0, pretend = 0, frame = 0
 943              		@ frame_needed = 0, uses_anonymous_args = 0
 944 0000 38B5     		push	{r3, r4, r5, lr}
 945 0002 0446     		mov	r4, r0
 946 0004 0D46     		mov	r5, r1
 947 0006 0021     		movs	r1, #0
 948 0008 FFF7FEFF 		bl	buf_adjust
 949 000c 2A46     		mov	r2, r5
 950 000e 2046     		mov	r0, r4
 951 0010 BDE83840 		pop	{r3, r4, r5, lr}
 952 0014 6FF00041 		mvn	r1, #-2147483648
 953 0018 FFF7FEBF 		b	buf_insert_s16
 955              		.section	.text.buf_insert_s32,"ax",%progbits
 956              		.align	1
 957              		.global	buf_insert_s32
 958              		.syntax unified
 959              		.thumb
 960              		.thumb_func
 961              		.fpu softvfp
 963              	buf_insert_s32:
 964              		@ args = 0, pretend = 0, frame = 8
 965              		@ frame_needed = 0, uses_anonymous_args = 0
 966 0000 07B5     		push	{r0, r1, r2, lr}
 967 0002 0192     		str	r2, [sp, #4]
 968 0004 01AB     		add	r3, sp, #4
 969 0006 0422     		movs	r2, #4
 970 0008 FFF7FEFF 		bl	buf_insert_mem
 971 000c 03B0     		add	sp, sp, #12
 972              		@ sp needed
 973 000e 5DF804FB 		ldr	pc, [sp], #4
 975              		.section	.text.buf_assign_s32,"ax",%progbits
 976              		.align	1
 977              		.global	buf_assign_s32
 978              		.syntax unified
 979              		.thumb
 980              		.thumb_func
 981              		.fpu softvfp
 983              	buf_assign_s32:
 984              		@ args = 0, pretend = 0, frame = 0
 985              		@ frame_needed = 0, uses_anonymous_args = 0
 986 0000 38B5     		push	{r3, r4, r5, lr}
 987 0002 0446     		mov	r4, r0
 988 0004 0D46     		mov	r5, r1
 989 0006 0021     		movs	r1, #0
 990 0008 FFF7FEFF 		bl	buf_adjust
 991 000c 2A46     		mov	r2, r5
 992 000e 2046     		mov	r0, r4
 993 0010 BDE83840 		pop	{r3, r4, r5, lr}
 994 0014 6FF00041 		mvn	r1, #-2147483648
 995 0018 FFF7FEBF 		b	buf_insert_s32
 997              		.section	.text.buf_insert_s64,"ax",%progbits
 998              		.align	1
 999              		.global	buf_insert_s64
 1000              		.syntax unified
 1001              		.thumb
 1002              		.thumb_func
ARM GAS  /tmp/cc4bbrrw.s 			page 18


 1003              		.fpu softvfp
 1005              	buf_insert_s64:
 1006              		@ args = 0, pretend = 0, frame = 8
 1007              		@ frame_needed = 0, uses_anonymous_args = 0
 1008 0000 07B5     		push	{r0, r1, r2, lr}
 1009 0002 CDE90023 		strd	r2, [sp]
 1010 0006 6B46     		mov	r3, sp
 1011 0008 0822     		movs	r2, #8
 1012 000a FFF7FEFF 		bl	buf_insert_mem
 1013 000e 03B0     		add	sp, sp, #12
 1014              		@ sp needed
 1015 0010 5DF804FB 		ldr	pc, [sp], #4
 1017              		.section	.text.buf_assign_s64,"ax",%progbits
 1018              		.align	1
 1019              		.global	buf_assign_s64
 1020              		.syntax unified
 1021              		.thumb
 1022              		.thumb_func
 1023              		.fpu softvfp
 1025              	buf_assign_s64:
 1026              		@ args = 0, pretend = 0, frame = 8
 1027              		@ frame_needed = 0, uses_anonymous_args = 0
 1028 0000 73B5     		push	{r0, r1, r4, r5, r6, lr}
 1029 0002 0446     		mov	r4, r0
 1030 0004 1646     		mov	r6, r2
 1031 0006 1D46     		mov	r5, r3
 1032 0008 0021     		movs	r1, #0
 1033 000a FFF7FEFF 		bl	buf_adjust
 1034 000e 6B46     		mov	r3, sp
 1035 0010 0822     		movs	r2, #8
 1036 0012 6FF00041 		mvn	r1, #-2147483648
 1037 0016 2046     		mov	r0, r4
 1038 0018 CDE90065 		strd	r6, r5, [sp]
 1039 001c FFF7FEFF 		bl	buf_insert_mem
 1040 0020 02B0     		add	sp, sp, #8
 1041              		@ sp needed
 1042 0022 70BD     		pop	{r4, r5, r6, pc}
 1044              		.section	.text.buf_assign_mem,"ax",%progbits
 1045              		.align	1
 1046              		.global	buf_assign_mem
 1047              		.syntax unified
 1048              		.thumb
 1049              		.thumb_func
 1050              		.fpu softvfp
 1052              	buf_assign_mem:
 1053              		@ args = 0, pretend = 0, frame = 0
 1054              		@ frame_needed = 0, uses_anonymous_args = 0
 1055 0000 70B5     		push	{r4, r5, r6, lr}
 1056 0002 1646     		mov	r6, r2
 1057 0004 0446     		mov	r4, r0
 1058 0006 0D46     		mov	r5, r1
 1059 0008 0021     		movs	r1, #0
 1060 000a FFF7FEFF 		bl	buf_adjust
 1061 000e 3346     		mov	r3, r6
 1062 0010 2A46     		mov	r2, r5
 1063 0012 2046     		mov	r0, r4
 1064 0014 BDE87040 		pop	{r4, r5, r6, lr}
ARM GAS  /tmp/cc4bbrrw.s 			page 19


 1065 0018 6FF00041 		mvn	r1, #-2147483648
 1066 001c FFF7FEBF 		b	buf_insert_mem
 1068              		.section	.rodata.buf_insert_vfmt.str1.1,"aMS",%progbits,1
 1069              	.LC5:
 1070 0000 41535345 		.ascii	"ASSERT: ../sdk/common/buf.c:218 BUF_RANGE_FAILURE b"
 1070      52543A20 
 1070      2E2E2F73 
 1070      646B2F63 
 1070      6F6D6D6F 
 1071 0033 75665F69 		.ascii	"uf_insert_vfmt()\015\000"
 1071      6E736572 
 1071      745F7666 
 1071      6D742829 
 1071      0D00
 1072              		.section	.text.buf_insert_vfmt,"ax",%progbits
 1073              		.align	1
 1074              		.global	buf_insert_vfmt
 1075              		.syntax unified
 1076              		.thumb
 1077              		.thumb_func
 1078              		.fpu softvfp
 1080              	buf_insert_vfmt:
 1081              		@ args = 0, pretend = 0, frame = 0
 1082              		@ frame_needed = 0, uses_anonymous_args = 0
 1083 0000 2DE9F041 		push	{r4, r5, r6, r7, r8, lr}
 1084 0004 0C46     		mov	r4, r1
 1085 0006 9846     		mov	r8, r3
 1086 0008 6FF00043 		mvn	r3, #-2147483648
 1087 000c 9C42     		cmp	r4, r3
 1088 000e 0546     		mov	r5, r0
 1089 0010 1746     		mov	r7, r2
 1090 0012 4168     		ldr	r1, [r0, #4]
 1091 0014 0ED0     		beq	.L103
 1092 0016 002C     		cmp	r4, #0
 1093 0018 01DA     		bge	.L104
 1094 001a 6418     		adds	r4, r4, r1
 1095 001c 01D4     		bmi	.L105
 1096              	.L104:
 1097 001e 8C42     		cmp	r4, r1
 1098 0020 0BDD     		ble	.L106
 1099              	.L105:
 1100 0022 1948     		ldr	r0, .L112
 1101 0024 FFF7FEFF 		bl	puts
 1102              	.L107:
 1103 0028 FEE7     		b	.L107
 1104              	.L109:
 1105 002a 4FF00008 		mov	r8, #0
 1106 002e 19E0     		b	.L108
 1107              	.L110:
 1108 0030 B846     		mov	r8, r7
 1109 0032 17E0     		b	.L108
 1110              	.L103:
 1111 0034 0029     		cmp	r1, #0
 1112 0036 F4DB     		blt	.L105
 1113 0038 0C46     		mov	r4, r1
 1114              	.L106:
 1115 003a AE68     		ldr	r6, [r5, #8]
ARM GAS  /tmp/cc4bbrrw.s 			page 20


 1116 003c 2868     		ldr	r0, [r5]
 1117 003e 761A     		subs	r6, r6, r1
 1118 0040 3246     		mov	r2, r6
 1119 0042 091B     		subs	r1, r1, r4
 1120 0044 2044     		add	r0, r0, r4
 1121 0046 FFF7FEFF 		bl	buf_mem_shift
 1122 004a 2868     		ldr	r0, [r5]
 1123 004c 3A46     		mov	r2, r7
 1124 004e 4346     		mov	r3, r8
 1125 0050 3146     		mov	r1, r6
 1126 0052 2044     		add	r0, r0, r4
 1127 0054 FFF7FEFF 		bl	vsnprintf
 1128 0058 071E     		subs	r7, r0, #0
 1129 005a E6DB     		blt	.L109
 1130 005c BE42     		cmp	r6, r7
 1131 005e E7DC     		bgt	.L110
 1132 0060 06F1FF38 		add	r8, r6, #-1
 1133              	.L108:
 1134 0064 2B68     		ldr	r3, [r5]
 1135 0066 6968     		ldr	r1, [r5, #4]
 1136 0068 A019     		adds	r0, r4, r6
 1137 006a 1844     		add	r0, r0, r3
 1138 006c A8EB0602 		sub	r2, r8, r6
 1139 0070 091B     		subs	r1, r1, r4
 1140 0072 FFF7FEFF 		bl	buf_mem_shift
 1141 0076 6968     		ldr	r1, [r5, #4]
 1142 0078 2846     		mov	r0, r5
 1143 007a 4144     		add	r1, r1, r8
 1144 007c FFF7FEFF 		bl	buf_adjust
 1145 0080 3846     		mov	r0, r7
 1146 0082 BDE8F081 		pop	{r4, r5, r6, r7, r8, pc}
 1147              	.L113:
 1148 0086 00BF     		.align	2
 1149              	.L112:
 1150 0088 00000000 		.word	.LC5
 1152              		.section	.text.buf_insert_fmt,"ax",%progbits
 1153              		.align	1
 1154              		.global	buf_insert_fmt
 1155              		.syntax unified
 1156              		.thumb
 1157              		.thumb_func
 1158              		.fpu softvfp
 1160              	buf_insert_fmt:
 1161              		@ args = 4, pretend = 8, frame = 8
 1162              		@ frame_needed = 0, uses_anonymous_args = 1
 1163 0000 0CB4     		push	{r2, r3}
 1164 0002 07B5     		push	{r0, r1, r2, lr}
 1165 0004 04AB     		add	r3, sp, #16
 1166 0006 53F8042B 		ldr	r2, [r3], #4
 1167 000a 0193     		str	r3, [sp, #4]
 1168 000c FFF7FEFF 		bl	buf_insert_vfmt
 1169 0010 03B0     		add	sp, sp, #12
 1170              		@ sp needed
 1171 0012 5DF804EB 		ldr	lr, [sp], #4
 1172 0016 02B0     		add	sp, sp, #8
 1173 0018 7047     		bx	lr
 1175              		.section	.text.buf_append_fmt,"ax",%progbits
ARM GAS  /tmp/cc4bbrrw.s 			page 21


 1176              		.align	1
 1177              		.global	buf_append_fmt
 1178              		.syntax unified
 1179              		.thumb
 1180              		.thumb_func
 1181              		.fpu softvfp
 1183              	buf_append_fmt:
 1184              		@ args = 4, pretend = 12, frame = 8
 1185              		@ frame_needed = 0, uses_anonymous_args = 1
 1186 0000 0EB4     		push	{r1, r2, r3}
 1187 0002 03B5     		push	{r0, r1, lr}
 1188 0004 03AB     		add	r3, sp, #12
 1189 0006 53F8042B 		ldr	r2, [r3], #4
 1190 000a 4168     		ldr	r1, [r0, #4]
 1191 000c 0193     		str	r3, [sp, #4]
 1192 000e FFF7FEFF 		bl	buf_insert_vfmt
 1193 0012 02B0     		add	sp, sp, #8
 1194              		@ sp needed
 1195 0014 5DF804EB 		ldr	lr, [sp], #4
 1196 0018 03B0     		add	sp, sp, #12
 1197 001a 7047     		bx	lr
 1199              		.section	.text.buf_assign_vfmt,"ax",%progbits
 1200              		.align	1
 1201              		.global	buf_assign_vfmt
 1202              		.syntax unified
 1203              		.thumb
 1204              		.thumb_func
 1205              		.fpu softvfp
 1207              	buf_assign_vfmt:
 1208              		@ args = 0, pretend = 0, frame = 0
 1209              		@ frame_needed = 0, uses_anonymous_args = 0
 1210 0000 70B5     		push	{r4, r5, r6, lr}
 1211 0002 1646     		mov	r6, r2
 1212 0004 0446     		mov	r4, r0
 1213 0006 0D46     		mov	r5, r1
 1214 0008 0021     		movs	r1, #0
 1215 000a FFF7FEFF 		bl	buf_adjust
 1216 000e 3346     		mov	r3, r6
 1217 0010 2A46     		mov	r2, r5
 1218 0012 2046     		mov	r0, r4
 1219 0014 BDE87040 		pop	{r4, r5, r6, lr}
 1220 0018 0021     		movs	r1, #0
 1221 001a FFF7FEBF 		b	buf_insert_vfmt
 1223              		.section	.text.buf_assign_fmt,"ax",%progbits
 1224              		.align	1
 1225              		.global	buf_assign_fmt
 1226              		.syntax unified
 1227              		.thumb
 1228              		.thumb_func
 1229              		.fpu softvfp
 1231              	buf_assign_fmt:
 1232              		@ args = 4, pretend = 12, frame = 8
 1233              		@ frame_needed = 0, uses_anonymous_args = 1
 1234 0000 0EB4     		push	{r1, r2, r3}
 1235 0002 03B5     		push	{r0, r1, lr}
 1236 0004 03AA     		add	r2, sp, #12
 1237 0006 52F8041B 		ldr	r1, [r2], #4
ARM GAS  /tmp/cc4bbrrw.s 			page 22


 1238 000a 0192     		str	r2, [sp, #4]
 1239 000c FFF7FEFF 		bl	buf_assign_vfmt
 1240 0010 02B0     		add	sp, sp, #8
 1241              		@ sp needed
 1242 0012 5DF804EB 		ldr	lr, [sp], #4
 1243 0016 03B0     		add	sp, sp, #12
 1244 0018 7047     		bx	lr
 1246              		.ident	"GCC: (15:10.3-2021.07-4) 10.3.1 20210621 (release)"
ARM GAS  /tmp/cc4bbrrw.s 			page 23

