ARM GAS  /tmp/ccYssy1g.s 			page 1


   1              		.cpu cortex-m3
   2              		.eabi_attribute 20, 1
   3              		.eabi_attribute 21, 1
   4              		.eabi_attribute 23, 3
   5              		.eabi_attribute 24, 1
   6              		.eabi_attribute 25, 1
   7              		.eabi_attribute 26, 1
   8              		.eabi_attribute 30, 4
   9              		.eabi_attribute 34, 1
  10              		.eabi_attribute 18, 4
  11              		.file	"cmd.c"
  12              		.text
  13              		.section	.text._skip_spaces,"ax",%progbits
  14              		.align	1
  15              		.arch armv7-m
  16              		.syntax unified
  17              		.thumb
  18              		.thumb_func
  19              		.fpu softvfp
  21              	_skip_spaces:
  22              		@ args = 0, pretend = 0, frame = 0
  23              		@ frame_needed = 0, uses_anonymous_args = 0
  24              		@ link register save eliminated.
  25              	.L2:
  26 0000 0368     		ldr	r3, [r0]
  27 0002 1A78     		ldrb	r2, [r3]	@ zero_extendqisi2
  28 0004 202A     		cmp	r2, #32
  29 0006 00D0     		beq	.L3
  30 0008 7047     		bx	lr
  31              	.L3:
  32 000a 0133     		adds	r3, r3, #1
  33 000c 0360     		str	r3, [r0]
  34 000e F7E7     		b	.L2
  36              		.section	.rodata._cmd_ver.str1.1,"aMS",%progbits,1
  37              	.LC0:
  38 0000 25733A20 		.ascii	"%s: \000"
  38      00
  39              	.LC1:
  40 0005 54533133 		.ascii	"TS1301\000"
  40      303100
  41              	.LC2:
  42 000c 312E332E 		.ascii	"1.3.2\000"
  42      3200
  43              	.LC3:
  44 0012 46572025 		.ascii	"FW %s, HW %s, https://github.com/tropicsquare\015\012"
  44      732C2048 
  44      57202573 
  44      2C206874 
  44      7470733A 
  45 0041 00       		.ascii	"\000"
  46              		.section	.text._cmd_ver,"ax",%progbits
  47              		.align	1
  48              		.syntax unified
  49              		.thumb
  50              		.thumb_func
  51              		.fpu softvfp
  53              	_cmd_ver:
ARM GAS  /tmp/ccYssy1g.s 			page 2


  54              		@ args = 0, pretend = 0, frame = 0
  55              		@ frame_needed = 0, uses_anonymous_args = 0
  56 0000 08B5     		push	{r3, lr}
  57 0002 0168     		ldr	r1, [r0]
  58 0004 0448     		ldr	r0, .L5
  59 0006 FFF7FEFF 		bl	printf
  60 000a 044A     		ldr	r2, .L5+4
  61 000c 0449     		ldr	r1, .L5+8
  62 000e 0548     		ldr	r0, .L5+12
  63 0010 FFF7FEFF 		bl	printf
  64 0014 0120     		movs	r0, #1
  65 0016 08BD     		pop	{r3, pc}
  66              	.L6:
  67              		.align	2
  68              	.L5:
  69 0018 00000000 		.word	.LC0
  70 001c 05000000 		.word	.LC1
  71 0020 0C000000 		.word	.LC2
  72 0024 12000000 		.word	.LC3
  74              		.section	.rodata._cmd_pwr.str1.1,"aMS",%progbits,1
  75              	.LC4:
  76 0000 25640D0A 		.ascii	"%d\015\012\000"
  76      00
  77              		.section	.text._cmd_pwr,"ax",%progbits
  78              		.align	1
  79              		.syntax unified
  80              		.thumb
  81              		.thumb_func
  82              		.fpu softvfp
  84              	_cmd_pwr:
  85              		@ args = 0, pretend = 0, frame = 0
  86              		@ frame_needed = 0, uses_anonymous_args = 0
  87 0000 08B5     		push	{r3, lr}
  88 0002 0168     		ldr	r1, [r0]
  89 0004 0448     		ldr	r0, .L8
  90 0006 FFF7FEFF 		bl	printf
  91 000a 044B     		ldr	r3, .L8+4
  92 000c 0448     		ldr	r0, .L8+8
  93 000e 1978     		ldrb	r1, [r3]	@ zero_extendqisi2
  94 0010 FFF7FEFF 		bl	printf
  95 0014 0120     		movs	r0, #1
  96 0016 08BD     		pop	{r3, pc}
  97              	.L9:
  98              		.align	2
  99              	.L8:
 100 0018 00000000 		.word	.LC0
 101 001c 00000000 		.word	.LANCHOR0
 102 0020 00000000 		.word	.LC4
 104              		.section	.rodata._cmd_id.str1.1,"aMS",%progbits,1
 105              	.LC5:
 106 0000 5553422F 		.ascii	"USB/SPI converter (master)\015\000"
 106      53504920 
 106      636F6E76 
 106      65727465 
 106      7220286D 
 107              		.section	.text._cmd_id,"ax",%progbits
 108              		.align	1
ARM GAS  /tmp/ccYssy1g.s 			page 3


 109              		.syntax unified
 110              		.thumb
 111              		.thumb_func
 112              		.fpu softvfp
 114              	_cmd_id:
 115              		@ args = 0, pretend = 0, frame = 0
 116              		@ frame_needed = 0, uses_anonymous_args = 0
 117 0000 08B5     		push	{r3, lr}
 118 0002 0168     		ldr	r1, [r0]
 119 0004 0348     		ldr	r0, .L11
 120 0006 FFF7FEFF 		bl	printf
 121 000a 0348     		ldr	r0, .L11+4
 122 000c FFF7FEFF 		bl	puts
 123 0010 0120     		movs	r0, #1
 124 0012 08BD     		pop	{r3, pc}
 125              	.L12:
 126              		.align	2
 127              	.L11:
 128 0014 00000000 		.word	.LC0
 129 0018 00000000 		.word	.LC5
 131              		.section	.rodata._cmd_help.str1.1,"aMS",%progbits,1
 132              	.LC6:
 133 0000 54726F70 		.ascii	"Tropicsquare USB/SPI interface\015\000"
 133      69637371 
 133      75617265 
 133      20555342 
 133      2F535049 
 134              	.LC7:
 135 0020 54797065 		.ascii	"Type HEX characters to make SPI transfer (i.e. \"11"
 135      20484558 
 135      20636861 
 135      72616374 
 135      65727320 
 136 0052 32326161 		.ascii	"22aabb\")\015\000"
 136      62622229 
 136      0D00
 137              	.LC8:
 138 005c 53757070 		.ascii	"Supported commands:\015\000"
 138      6F727465 
 138      6420636F 
 138      6D6D616E 
 138      64733A0D 
 139              	.LC9:
 140 0071 2573203A 		.ascii	"%s : %s\015\012\000"
 140      2025730D 
 140      0A00
 141              		.section	.text._cmd_help,"ax",%progbits
 142              		.align	1
 143              		.syntax unified
 144              		.thumb
 145              		.thumb_func
 146              		.fpu softvfp
 148              	_cmd_help:
 149              		@ args = 0, pretend = 0, frame = 0
 150              		@ frame_needed = 0, uses_anonymous_args = 0
 151 0000 38B5     		push	{r3, r4, r5, lr}
 152 0002 0D48     		ldr	r0, .L29
ARM GAS  /tmp/ccYssy1g.s 			page 4


 153 0004 FFF7FEFF 		bl	puts
 154 0008 0C48     		ldr	r0, .L29+4
 155 000a FFF7FEFF 		bl	puts
 156 000e 0C48     		ldr	r0, .L29+8
 157 0010 FFF7FEFF 		bl	puts
 158 0014 0B4C     		ldr	r4, .L29+12
 159 0016 0C4D     		ldr	r5, .L29+16
 160              	.L16:
 161 0018 2168     		ldr	r1, [r4]
 162 001a 51B1     		cbz	r1, .L14
 163 001c E268     		ldr	r2, [r4, #12]
 164 001e 32B1     		cbz	r2, .L15
 165 0020 1378     		ldrb	r3, [r2]	@ zero_extendqisi2
 166 0022 23B1     		cbz	r3, .L15
 167 0024 0B78     		ldrb	r3, [r1]	@ zero_extendqisi2
 168 0026 23B1     		cbz	r3, .L14
 169 0028 2846     		mov	r0, r5
 170 002a FFF7FEFF 		bl	printf
 171              	.L15:
 172 002e 1034     		adds	r4, r4, #16
 173 0030 F2E7     		b	.L16
 174              	.L14:
 175 0032 0120     		movs	r0, #1
 176 0034 38BD     		pop	{r3, r4, r5, pc}
 177              	.L30:
 178 0036 00BF     		.align	2
 179              	.L29:
 180 0038 00000000 		.word	.LC6
 181 003c 20000000 		.word	.LC7
 182 0040 5C000000 		.word	.LC8
 183 0044 00000000 		.word	.LANCHOR1
 184 0048 71000000 		.word	.LC9
 186              		.section	.text._cmd_gpo,"ax",%progbits
 187              		.align	1
 188              		.syntax unified
 189              		.thumb
 190              		.thumb_func
 191              		.fpu softvfp
 193              	_cmd_gpo:
 194              		@ args = 0, pretend = 0, frame = 0
 195              		@ frame_needed = 0, uses_anonymous_args = 0
 196 0000 08B5     		push	{r3, lr}
 197 0002 0168     		ldr	r1, [r0]
 198 0004 0548     		ldr	r0, .L32
 199 0006 FFF7FEFF 		bl	printf
 200 000a 054B     		ldr	r3, .L32+4
 201 000c 0548     		ldr	r0, .L32+8
 202 000e 9968     		ldr	r1, [r3, #8]
 203 0010 01F00101 		and	r1, r1, #1
 204 0014 FFF7FEFF 		bl	printf
 205 0018 0120     		movs	r0, #1
 206 001a 08BD     		pop	{r3, pc}
 207              	.L33:
 208              		.align	2
 209              	.L32:
 210 001c 00000000 		.word	.LC0
 211 0020 000C0140 		.word	1073810432
ARM GAS  /tmp/ccYssy1g.s 			page 5


 212 0024 00000000 		.word	.LC4
 214              		.section	.rodata._cmd_error.str1.1,"aMS",%progbits,1
 215              	.LC10:
 216 0000 4552524F 		.ascii	"ERROR: %s\015\012\000"
 216      523A2025 
 216      730D0A00 
 217              		.section	.text._cmd_error,"ax",%progbits
 218              		.align	1
 219              		.syntax unified
 220              		.thumb
 221              		.thumb_func
 222              		.fpu softvfp
 224              	_cmd_error:
 225              		@ args = 0, pretend = 0, frame = 0
 226              		@ frame_needed = 0, uses_anonymous_args = 0
 227              		@ link register save eliminated.
 228 0000 0146     		mov	r1, r0
 229 0002 0148     		ldr	r0, .L35
 230 0004 FFF7FEBF 		b	printf
 231              	.L36:
 232              		.align	2
 233              	.L35:
 234 0008 00000000 		.word	.LC10
 236              		.section	.rodata._cmd_sn.str1.1,"aMS",%progbits,1
 237              	.LC11:
 238 0000 0D00     		.ascii	"\015\000"
 239              		.section	.text._cmd_sn,"ax",%progbits
 240              		.align	1
 241              		.syntax unified
 242              		.thumb
 243              		.thumb_func
 244              		.fpu softvfp
 246              	_cmd_sn:
 247              		@ args = 0, pretend = 0, frame = 0
 248              		@ frame_needed = 0, uses_anonymous_args = 0
 249 0000 38B5     		push	{r3, r4, r5, lr}
 250 0002 0168     		ldr	r1, [r0]
 251 0004 0948     		ldr	r0, .L41
 252 0006 FFF7FEFF 		bl	printf
 253 000a 0224     		movs	r4, #2
 254 000c 084D     		ldr	r5, .L41+4
 255              	.L39:
 256 000e 605D     		ldrb	r0, [r4, r5]	@ zero_extendqisi2
 257 0010 A0F13003 		sub	r3, r0, #48
 258 0014 4A2B     		cmp	r3, #74
 259 0016 04D8     		bhi	.L38
 260 0018 0234     		adds	r4, r4, #2
 261 001a FFF7FEFF 		bl	putchar
 262 001e 1A2C     		cmp	r4, #26
 263 0020 F5D1     		bne	.L39
 264              	.L38:
 265 0022 0448     		ldr	r0, .L41+8
 266 0024 FFF7FEFF 		bl	puts
 267 0028 0120     		movs	r0, #1
 268 002a 38BD     		pop	{r3, r4, r5, pc}
 269              	.L42:
 270              		.align	2
ARM GAS  /tmp/ccYssy1g.s 			page 6


 271              	.L41:
 272 002c 00000000 		.word	.LC0
 273 0030 00000000 		.word	USBD_StringSerial
 274 0034 00000000 		.word	.LC11
 276              		.section	.rodata._cmd_reset.str1.1,"aMS",%progbits,1
 277              	.LC12:
 278 0000 52455345 		.ascii	"RESET\015\000"
 278      540D00
 279              		.section	.text._cmd_reset,"ax",%progbits
 280              		.align	1
 281              		.syntax unified
 282              		.thumb
 283              		.thumb_func
 284              		.fpu softvfp
 286              	_cmd_reset:
 287              		@ args = 0, pretend = 0, frame = 0
 288              		@ frame_needed = 0, uses_anonymous_args = 0
 289 0000 08B5     		push	{r3, lr}
 290 0002 0648     		ldr	r0, .L44
 291 0004 FFF7FEFF 		bl	puts
 292 0008 0A20     		movs	r0, #10
 293 000a FFF7FEFF 		bl	time_delay_ms
 294 000e 4FF48070 		mov	r0, #256
 295 0012 FFF7FEFF 		bl	wd_reset
 296 0016 0120     		movs	r0, #1
 297 0018 08BD     		pop	{r3, pc}
 298              	.L45:
 299 001a 00BF     		.align	2
 300              	.L44:
 301 001c 00000000 		.word	.LC12
 303              		.section	.rodata._cmd_cs.str1.1,"aMS",%progbits,1
 304              	.LC13:
 305 0000 25750D0A 		.ascii	"%u\015\012\000"
 305      00
 306              		.section	.text._cmd_cs,"ax",%progbits
 307              		.align	1
 308              		.syntax unified
 309              		.thumb
 310              		.thumb_func
 311              		.fpu softvfp
 313              	_cmd_cs:
 314              		@ args = 0, pretend = 0, frame = 0
 315              		@ frame_needed = 0, uses_anonymous_args = 0
 316 0000 08B5     		push	{r3, lr}
 317 0002 0168     		ldr	r1, [r0]
 318 0004 0548     		ldr	r0, .L47
 319 0006 FFF7FEFF 		bl	printf
 320 000a FFF7FEFF 		bl	spi1_cs_state
 321 000e 0146     		mov	r1, r0
 322 0010 0348     		ldr	r0, .L47+4
 323 0012 FFF7FEFF 		bl	printf
 324 0016 0120     		movs	r0, #1
 325 0018 08BD     		pop	{r3, pc}
 326              	.L48:
 327 001a 00BF     		.align	2
 328              	.L47:
 329 001c 00000000 		.word	.LC0
ARM GAS  /tmp/ccYssy1g.s 			page 7


 330 0020 00000000 		.word	.LC13
 332              		.section	.rodata._cmd_clkdiv.str1.1,"aMS",%progbits,1
 333              	.LC14:
 334 0000 256C750D 		.ascii	"%lu\015\012\000"
 334      0A00
 335              		.section	.text._cmd_clkdiv,"ax",%progbits
 336              		.align	1
 337              		.syntax unified
 338              		.thumb
 339              		.thumb_func
 340              		.fpu softvfp
 342              	_cmd_clkdiv:
 343              		@ args = 0, pretend = 0, frame = 0
 344              		@ frame_needed = 0, uses_anonymous_args = 0
 345 0000 08B5     		push	{r3, lr}
 346 0002 0168     		ldr	r1, [r0]
 347 0004 0548     		ldr	r0, .L50
 348 0006 FFF7FEFF 		bl	printf
 349 000a FFF7FEFF 		bl	spi1_get_prescaler
 350 000e 0146     		mov	r1, r0
 351 0010 0348     		ldr	r0, .L50+4
 352 0012 FFF7FEFF 		bl	printf
 353 0016 0120     		movs	r0, #1
 354 0018 08BD     		pop	{r3, pc}
 355              	.L51:
 356 001a 00BF     		.align	2
 357              	.L50:
 358 001c 00000000 		.word	.LC0
 359 0020 00000000 		.word	.LC14
 361              		.section	.rodata._cmd_auto.str1.1,"aMS",%progbits,1
 362              	.LC15:
 363 0000 312C2025 		.ascii	"1, %02X, %02X\015\012\000"
 363      3032582C 
 363      20253032 
 363      580D0A00 
 364              	.LC16:
 365 0010 300D00   		.ascii	"0\015\000"
 366              		.section	.text._cmd_auto,"ax",%progbits
 367              		.align	1
 368              		.syntax unified
 369              		.thumb
 370              		.thumb_func
 371              		.fpu softvfp
 373              	_cmd_auto:
 374              		@ args = 0, pretend = 0, frame = 0
 375              		@ frame_needed = 0, uses_anonymous_args = 0
 376 0000 08B5     		push	{r3, lr}
 377 0002 0168     		ldr	r1, [r0]
 378 0004 0948     		ldr	r0, .L55
 379 0006 FFF7FEFF 		bl	printf
 380 000a 094B     		ldr	r3, .L55+4
 381 000c 1B78     		ldrb	r3, [r3]	@ zero_extendqisi2
 382 000e 43B1     		cbz	r3, .L53
 383 0010 084B     		ldr	r3, .L55+8
 384 0012 0948     		ldr	r0, .L55+12
 385 0014 1A78     		ldrb	r2, [r3]	@ zero_extendqisi2
 386 0016 094B     		ldr	r3, .L55+16
ARM GAS  /tmp/ccYssy1g.s 			page 8


 387 0018 1978     		ldrb	r1, [r3]	@ zero_extendqisi2
 388 001a FFF7FEFF 		bl	printf
 389              	.L54:
 390 001e 0120     		movs	r0, #1
 391 0020 08BD     		pop	{r3, pc}
 392              	.L53:
 393 0022 0748     		ldr	r0, .L55+20
 394 0024 FFF7FEFF 		bl	puts
 395 0028 F9E7     		b	.L54
 396              	.L56:
 397 002a 00BF     		.align	2
 398              	.L55:
 399 002c 00000000 		.word	.LC0
 400 0030 00000000 		.word	main_spi_auto
 401 0034 00000000 		.word	main_spi_no_resp
 402 0038 00000000 		.word	.LC15
 403 003c 00000000 		.word	main_spi_get_resp
 404 0040 10000000 		.word	.LC16
 406              		.section	.text.LL_GPIO_SetPinMode.constprop.0,"ax",%progbits
 407              		.align	1
 408              		.syntax unified
 409              		.thumb
 410              		.thumb_func
 411              		.fpu softvfp
 413              	LL_GPIO_SetPinMode.constprop.0:
 414              		@ args = 0, pretend = 0, frame = 0
 415              		@ frame_needed = 0, uses_anonymous_args = 0
 416              		.syntax unified
 417              	@ 380 "../sdk/stm32/CMSIS/inc/cmsis_gcc.h" 1
 418 0000 90FAA0F2 		rbit r2, r0
 419              	@ 0 "" 2
 420              		.thumb
 421              		.syntax unified
 422 0004 B2FA82F2 		clz	r2, r2
 423 0008 30B5     		push	{r4, r5, lr}
 424 000a 030E     		lsrs	r3, r0, #24
 425 000c 0F25     		movs	r5, #15
 426              		.syntax unified
 427              	@ 380 "../sdk/stm32/CMSIS/inc/cmsis_gcc.h" 1
 428 000e 90FAA0F0 		rbit r0, r0
 429              	@ 0 "" 2
 430              		.thumb
 431              		.syntax unified
 432 0012 B0FA80F0 		clz	r0, r0
 433 0016 03F18043 		add	r3, r3, #1073741824
 434 001a 03F58433 		add	r3, r3, #67584
 435 001e 1C68     		ldr	r4, [r3]
 436 0020 9200     		lsls	r2, r2, #2
 437 0022 05FA02F2 		lsl	r2, r5, r2
 438 0026 8000     		lsls	r0, r0, #2
 439 0028 24EA0204 		bic	r4, r4, r2
 440 002c 01FA00F0 		lsl	r0, r1, r0
 441 0030 2043     		orrs	r0, r0, r4
 442 0032 1860     		str	r0, [r3]
 443 0034 30BD     		pop	{r4, r5, pc}
 445              		.section	.rodata._cmd_pwr_set.str1.1,"aMS",%progbits,1
 446              	.LC17:
ARM GAS  /tmp/ccYssy1g.s 			page 9


 447 0000 696E7661 		.ascii	"invalid parameter\000"
 447      6C696420 
 447      70617261 
 447      6D657465 
 447      7200
 448              		.section	.text._cmd_pwr_set,"ax",%progbits
 449              		.align	1
 450              		.syntax unified
 451              		.thumb
 452              		.thumb_func
 453              		.fpu softvfp
 455              	_cmd_pwr_set:
 456              		@ args = 0, pretend = 0, frame = 0
 457              		@ frame_needed = 0, uses_anonymous_args = 0
 458 0000 38B5     		push	{r3, r4, r5, lr}
 459 0002 0B68     		ldr	r3, [r1]
 460 0004 1A78     		ldrb	r2, [r3]	@ zero_extendqisi2
 461 0006 302A     		cmp	r2, #48
 462 0008 06D0     		beq	.L67
 463 000a 312A     		cmp	r2, #49
 464 000c 16D0     		beq	.L68
 465 000e 1048     		ldr	r0, .L69
 466 0010 FFF7FEFF 		bl	_cmd_error
 467 0014 0020     		movs	r0, #0
 468              	.L64:
 469 0016 38BD     		pop	{r3, r4, r5, pc}
 470              	.L67:
 471 0018 0024     		movs	r4, #0
 472              	.L63:
 473 001a 0133     		adds	r3, r3, #1
 474 001c 0B60     		str	r3, [r1]
 475 001e 0D4B     		ldr	r3, .L69+4
 476 0020 0D4D     		ldr	r5, .L69+8
 477 0022 1868     		ldr	r0, [r3]
 478 0024 64B1     		cbz	r4, .L65
 479 0026 0121     		movs	r1, #1
 480 0028 2961     		str	r1, [r5, #16]
 481 002a FFF7FEFF 		bl	LL_GPIO_SetPinMode.constprop.0
 482 002e 4FF48073 		mov	r3, #256
 483 0032 2B61     		str	r3, [r5, #16]
 484              	.L66:
 485 0034 094B     		ldr	r3, .L69+12
 486 0036 0120     		movs	r0, #1
 487 0038 1C70     		strb	r4, [r3]
 488 003a ECE7     		b	.L64
 489              	.L68:
 490 003c 0124     		movs	r4, #1
 491 003e ECE7     		b	.L63
 492              	.L65:
 493 0040 0421     		movs	r1, #4
 494 0042 FFF7FEFF 		bl	LL_GPIO_SetPinMode.constprop.0
 495 0046 4FF48073 		mov	r3, #256
 496 004a 6B61     		str	r3, [r5, #20]
 497 004c F2E7     		b	.L66
 498              	.L70:
 499 004e 00BF     		.align	2
 500              	.L69:
ARM GAS  /tmp/ccYssy1g.s 			page 10


 501 0050 00000000 		.word	.LC17
 502 0054 00000000 		.word	gpio_ll_map
 503 0058 00080140 		.word	1073809408
 504 005c 00000000 		.word	.LANCHOR0
 506              		.section	.text._cmd_auto_set,"ax",%progbits
 507              		.align	1
 508              		.syntax unified
 509              		.thumb
 510              		.thumb_func
 511              		.fpu softvfp
 513              	_cmd_auto_set:
 514              		@ args = 0, pretend = 0, frame = 8
 515              		@ frame_needed = 0, uses_anonymous_args = 0
 516 0000 AA23     		movs	r3, #170
 517 0002 37B5     		push	{r0, r1, r2, r4, r5, lr}
 518 0004 8DF80630 		strb	r3, [sp, #6]
 519 0008 FF23     		movs	r3, #255
 520 000a 8DF80730 		strb	r3, [sp, #7]
 521 000e 0B68     		ldr	r3, [r1]
 522 0010 0C46     		mov	r4, r1
 523 0012 1A78     		ldrb	r2, [r3]	@ zero_extendqisi2
 524 0014 302A     		cmp	r2, #48
 525 0016 37D0     		beq	.L77
 526 0018 312A     		cmp	r2, #49
 527 001a 37D1     		bne	.L73
 528 001c 0125     		movs	r5, #1
 529              	.L72:
 530 001e 0133     		adds	r3, r3, #1
 531 0020 2360     		str	r3, [r4]
 532 0022 2046     		mov	r0, r4
 533 0024 FFF7FEFF 		bl	_skip_spaces
 534 0028 2168     		ldr	r1, [r4]
 535 002a 0B78     		ldrb	r3, [r1]	@ zero_extendqisi2
 536 002c 2C2B     		cmp	r3, #44
 537 002e 0BD1     		bne	.L74
 538 0030 0131     		adds	r1, r1, #1
 539 0032 0122     		movs	r2, #1
 540 0034 2160     		str	r1, [r4]
 541 0036 0DF10600 		add	r0, sp, #6
 542 003a FFF7FEFF 		bl	hex_to_bin
 543 003e 0128     		cmp	r0, #1
 544 0040 24D1     		bne	.L73
 545 0042 2368     		ldr	r3, [r4]
 546 0044 0233     		adds	r3, r3, #2
 547 0046 2360     		str	r3, [r4]
 548              	.L74:
 549 0048 2046     		mov	r0, r4
 550 004a FFF7FEFF 		bl	_skip_spaces
 551 004e 2168     		ldr	r1, [r4]
 552 0050 0B78     		ldrb	r3, [r1]	@ zero_extendqisi2
 553 0052 2C2B     		cmp	r3, #44
 554 0054 0BD1     		bne	.L75
 555 0056 0131     		adds	r1, r1, #1
 556 0058 0122     		movs	r2, #1
 557 005a 2160     		str	r1, [r4]
 558 005c 0DF10700 		add	r0, sp, #7
 559 0060 FFF7FEFF 		bl	hex_to_bin
ARM GAS  /tmp/ccYssy1g.s 			page 11


 560 0064 0128     		cmp	r0, #1
 561 0066 11D1     		bne	.L73
 562 0068 2368     		ldr	r3, [r4]
 563 006a 0233     		adds	r3, r3, #2
 564 006c 2360     		str	r3, [r4]
 565              	.L75:
 566 006e 0120     		movs	r0, #1
 567 0070 094B     		ldr	r3, .L78
 568 0072 9DF80620 		ldrb	r2, [sp, #6]	@ zero_extendqisi2
 569 0076 1D70     		strb	r5, [r3]
 570 0078 084B     		ldr	r3, .L78+4
 571 007a 1A70     		strb	r2, [r3]
 572 007c 9DF80720 		ldrb	r2, [sp, #7]	@ zero_extendqisi2
 573 0080 074B     		ldr	r3, .L78+8
 574 0082 1A70     		strb	r2, [r3]
 575              	.L76:
 576 0084 03B0     		add	sp, sp, #12
 577              		@ sp needed
 578 0086 30BD     		pop	{r4, r5, pc}
 579              	.L77:
 580 0088 0025     		movs	r5, #0
 581 008a C8E7     		b	.L72
 582              	.L73:
 583 008c 0548     		ldr	r0, .L78+12
 584 008e FFF7FEFF 		bl	_cmd_error
 585 0092 0020     		movs	r0, #0
 586 0094 F6E7     		b	.L76
 587              	.L79:
 588 0096 00BF     		.align	2
 589              	.L78:
 590 0098 00000000 		.word	main_spi_auto
 591 009c 00000000 		.word	main_spi_get_resp
 592 00a0 00000000 		.word	main_spi_no_resp
 593 00a4 00000000 		.word	.LC17
 595              		.section	.text._cmd_cs_set,"ax",%progbits
 596              		.align	1
 597              		.syntax unified
 598              		.thumb
 599              		.thumb_func
 600              		.fpu softvfp
 602              	_cmd_cs_set:
 603              		@ args = 0, pretend = 0, frame = 0
 604              		@ frame_needed = 0, uses_anonymous_args = 0
 605 0000 08B5     		push	{r3, lr}
 606 0002 0B68     		ldr	r3, [r1]
 607 0004 1A78     		ldrb	r2, [r3]	@ zero_extendqisi2
 608 0006 302A     		cmp	r2, #48
 609 0008 06D0     		beq	.L83
 610 000a 312A     		cmp	r2, #49
 611 000c 0BD0     		beq	.L84
 612 000e 0748     		ldr	r0, .L85
 613 0010 FFF7FEFF 		bl	_cmd_error
 614 0014 0020     		movs	r0, #0
 615              	.L82:
 616 0016 08BD     		pop	{r3, pc}
 617              	.L83:
 618 0018 0020     		movs	r0, #0
ARM GAS  /tmp/ccYssy1g.s 			page 12


 619              	.L81:
 620 001a 0133     		adds	r3, r3, #1
 621 001c 0B60     		str	r3, [r1]
 622 001e FFF7FEFF 		bl	spi1_cs
 623 0022 0120     		movs	r0, #1
 624 0024 F7E7     		b	.L82
 625              	.L84:
 626 0026 0120     		movs	r0, #1
 627 0028 F7E7     		b	.L81
 628              	.L86:
 629 002a 00BF     		.align	2
 630              	.L85:
 631 002c 00000000 		.word	.LC17
 633              		.section	.text.parse_number,"ax",%progbits
 634              		.align	1
 635              		.global	parse_number
 636              		.syntax unified
 637              		.thumb
 638              		.thumb_func
 639              		.fpu softvfp
 641              	parse_number:
 642              		@ args = 0, pretend = 0, frame = 0
 643              		@ frame_needed = 0, uses_anonymous_args = 0
 644 0000 F0B5     		push	{r4, r5, r6, r7, lr}
 645 0002 0D78     		ldrb	r5, [r1]	@ zero_extendqisi2
 646 0004 0246     		mov	r2, r0
 647 0006 2D2D     		cmp	r5, #45
 648 0008 08BF     		it	eq
 649 000a 0131     		addeq	r1, r1, #1
 650 000c 0B78     		ldrb	r3, [r1]	@ zero_extendqisi2
 651 000e 303B     		subs	r3, r3, #48
 652 0010 092B     		cmp	r3, #9
 653 0012 11D8     		bhi	.L93
 654 0014 0023     		movs	r3, #0
 655 0016 0A27     		movs	r7, #10
 656              	.L90:
 657 0018 0C78     		ldrb	r4, [r1]	@ zero_extendqisi2
 658 001a 0846     		mov	r0, r1
 659 001c 303C     		subs	r4, r4, #48
 660 001e E6B2     		uxtb	r6, r4
 661 0020 092E     		cmp	r6, #9
 662 0022 01F10101 		add	r1, r1, #1
 663 0026 04D9     		bls	.L91
 664 0028 2D2D     		cmp	r5, #45
 665 002a 08BF     		it	eq
 666 002c 5B42     		rsbeq	r3, r3, #0
 667 002e 1360     		str	r3, [r2]
 668              	.L87:
 669 0030 F0BD     		pop	{r4, r5, r6, r7, pc}
 670              	.L91:
 671 0032 07FB0343 		mla	r3, r7, r3, r4
 672 0036 EFE7     		b	.L90
 673              	.L93:
 674 0038 0020     		movs	r0, #0
 675 003a F9E7     		b	.L87
 677              		.section	.text._cmd_clkdiv_set,"ax",%progbits
 678              		.align	1
ARM GAS  /tmp/ccYssy1g.s 			page 13


 679              		.syntax unified
 680              		.thumb
 681              		.thumb_func
 682              		.fpu softvfp
 684              	_cmd_clkdiv_set:
 685              		@ args = 0, pretend = 0, frame = 8
 686              		@ frame_needed = 0, uses_anonymous_args = 0
 687 0000 13B5     		push	{r0, r1, r4, lr}
 688 0002 0C46     		mov	r4, r1
 689 0004 01A8     		add	r0, sp, #4
 690 0006 0968     		ldr	r1, [r1]
 691 0008 FFF7FEFF 		bl	parse_number
 692 000c 20B1     		cbz	r0, .L96
 693 000e 2060     		str	r0, [r4]
 694 0010 0198     		ldr	r0, [sp, #4]
 695 0012 FFF7FEFF 		bl	spi1_set_prescaler
 696 0016 18B9     		cbnz	r0, .L97
 697              	.L96:
 698 0018 0248     		ldr	r0, .L98
 699 001a FFF7FEFF 		bl	_cmd_error
 700 001e 0020     		movs	r0, #0
 701              	.L97:
 702 0020 02B0     		add	sp, sp, #8
 703              		@ sp needed
 704 0022 10BD     		pop	{r4, pc}
 705              	.L99:
 706              		.align	2
 707              	.L98:
 708 0024 00000000 		.word	.LC17
 710              		.section	.rodata.cmd_parse.str1.1,"aMS",%progbits,1
 711              	.LC18:
 712 0000 696C6C65 		.ascii	"illegal parameter\000"
 712      67616C20 
 712      70617261 
 712      6D657465 
 712      7200
 713              	.LC19:
 714 0012 6D697373 		.ascii	"missing parameter\000"
 714      696E6720 
 714      70617261 
 714      6D657465 
 714      7200
 715              	.LC20:
 716 0024 4F4B0D00 		.ascii	"OK\015\000"
 717              	.LC21:
 718 0028 756E6B6E 		.ascii	"unknown command\000"
 718      6F776E20 
 718      636F6D6D 
 718      616E6400 
 719              		.section	.text.cmd_parse,"ax",%progbits
 720              		.align	1
 721              		.global	cmd_parse
 722              		.syntax unified
 723              		.thumb
 724              		.thumb_func
 725              		.fpu softvfp
 727              	cmd_parse:
ARM GAS  /tmp/ccYssy1g.s 			page 14


 728              		@ args = 0, pretend = 0, frame = 8
 729              		@ frame_needed = 0, uses_anonymous_args = 0
 730 0000 2DE9F341 		push	{r0, r1, r4, r5, r6, r7, r8, lr}
 731 0004 0190     		str	r0, [sp, #4]
 732 0006 0378     		ldrb	r3, [r0]	@ zero_extendqisi2
 733 0008 232B     		cmp	r3, #35
 734 000a 3BD0     		beq	.L100
 735 000c 0026     		movs	r6, #0
 736 000e DFF89880 		ldr	r8, .L130
 737              	.L101:
 738 0012 B4B2     		uxth	r4, r6
 739 0014 2301     		lsls	r3, r4, #4
 740 0016 58F80370 		ldr	r7, [r8, r3]
 741 001a 08EB0414 		add	r4, r8, r4, lsl #4
 742 001e 002F     		cmp	r7, #0
 743 0020 3FD0     		beq	.L103
 744 0022 3846     		mov	r0, r7
 745 0024 FFF7FEFF 		bl	strlen
 746 0028 83B2     		uxth	r3, r0
 747 002a 0546     		mov	r5, r0
 748 002c 002B     		cmp	r3, #0
 749 002e 38D0     		beq	.L103
 750 0030 C2B2     		uxtb	r2, r0
 751 0032 3946     		mov	r1, r7
 752 0034 0198     		ldr	r0, [sp, #4]
 753 0036 FFF7FEFF 		bl	strnicmp
 754 003a A8B9     		cbnz	r0, .L104
 755 003c 019B     		ldr	r3, [sp, #4]
 756 003e ADB2     		uxth	r5, r5
 757 0040 585D     		ldrb	r0, [r3, r5]	@ zero_extendqisi2
 758 0042 FFF7FEFF 		bl	is_char
 759 0046 78B9     		cbnz	r0, .L104
 760 0048 0198     		ldr	r0, [sp, #4]
 761 004a 0544     		add	r5, r5, r0
 762 004c 01A8     		add	r0, sp, #4
 763 004e 0195     		str	r5, [sp, #4]
 764 0050 FFF7FEFF 		bl	_skip_spaces
 765 0054 019B     		ldr	r3, [sp, #4]
 766 0056 1A78     		ldrb	r2, [r3]	@ zero_extendqisi2
 767 0058 3D2A     		cmp	r2, #61
 768 005a 16D1     		bne	.L128
 769 005c A268     		ldr	r2, [r4, #8]
 770 005e 2AB9     		cbnz	r2, .L107
 771 0060 1248     		ldr	r0, .L130+4
 772              	.L129:
 773 0062 FFF7FEFF 		bl	_cmd_error
 774 0066 0DE0     		b	.L100
 775              	.L104:
 776 0068 0136     		adds	r6, r6, #1
 777 006a D2E7     		b	.L101
 778              	.L107:
 779 006c 0133     		adds	r3, r3, #1
 780 006e 0193     		str	r3, [sp, #4]
 781 0070 01A9     		add	r1, sp, #4
 782 0072 FFF7FEFF 		bl	_skip_spaces
 783 0076 2046     		mov	r0, r4
 784 0078 A368     		ldr	r3, [r4, #8]
ARM GAS  /tmp/ccYssy1g.s 			page 15


 785 007a 9847     		blx	r3
 786              	.L108:
 787 007c 10B1     		cbz	r0, .L100
 788 007e 0C48     		ldr	r0, .L130+8
 789 0080 FFF7FEFF 		bl	puts
 790              	.L100:
 791 0084 02B0     		add	sp, sp, #8
 792              		@ sp needed
 793 0086 BDE8F081 		pop	{r4, r5, r6, r7, r8, pc}
 794              	.L128:
 795 008a 3F2A     		cmp	r2, #63
 796 008c 02D0     		beq	.L109
 797 008e 0AB1     		cbz	r2, .L109
 798 0090 0848     		ldr	r0, .L130+12
 799 0092 E6E7     		b	.L129
 800              	.L109:
 801 0094 6368     		ldr	r3, [r4, #4]
 802 0096 0BB9     		cbnz	r3, .L110
 803 0098 0748     		ldr	r0, .L130+16
 804 009a E2E7     		b	.L129
 805              	.L110:
 806 009c 2046     		mov	r0, r4
 807 009e 9847     		blx	r3
 808 00a0 ECE7     		b	.L108
 809              	.L103:
 810 00a2 0648     		ldr	r0, .L130+20
 811 00a4 DDE7     		b	.L129
 812              	.L131:
 813 00a6 00BF     		.align	2
 814              	.L130:
 815 00a8 00000000 		.word	.LANCHOR1
 816 00ac 00000000 		.word	.LC17
 817 00b0 24000000 		.word	.LC20
 818 00b4 00000000 		.word	.LC18
 819 00b8 12000000 		.word	.LC19
 820 00bc 28000000 		.word	.LC21
 822              		.section	.rodata.str1.1,"aMS",%progbits,1
 823              	.LC22:
 824 0000 4155544F 		.ascii	"AUTO\000"
 824      00
 825              	.LC23:
 826 0005 4175746F 		.ascii	"Automatic response reading\000"
 826      6D617469 
 826      63207265 
 826      73706F6E 
 826      73652072 
 827              	.LC24:
 828 0020 434C4B44 		.ascii	"CLKDIV\000"
 828      495600
 829              	.LC25:
 830 0027 436C6F63 		.ascii	"Clock divisor get/set\000"
 830      6B206469 
 830      7669736F 
 830      72206765 
 830      742F7365 
 831              	.LC26:
 832 003d 435300   		.ascii	"CS\000"
ARM GAS  /tmp/ccYssy1g.s 			page 16


 833              	.LC27:
 834 0040 53504920 		.ascii	"SPI chip select direct control\000"
 834      63686970 
 834      2073656C 
 834      65637420 
 834      64697265 
 835              	.LC28:
 836 005f 47504F00 		.ascii	"GPO\000"
 837              	.LC29:
 838 0063 53686F77 		.ascii	"Show GPO state\000"
 838      2047504F 
 838      20737461 
 838      746500
 839              	.LC30:
 840 0072 48454C50 		.ascii	"HELP\000"
 840      00
 841              	.LC31:
 842 0077 54686973 		.ascii	"This help text\000"
 842      2068656C 
 842      70207465 
 842      787400
 843              	.LC32:
 844 0086 494400   		.ascii	"ID\000"
 845              	.LC33:
 846 0089 52657175 		.ascii	"Request product id\000"
 846      65737420 
 846      70726F64 
 846      75637420 
 846      696400
 847              	.LC34:
 848 009c 50575200 		.ascii	"PWR\000"
 849              	.LC35:
 850 00a0 4765742F 		.ascii	"Get/set target power\000"
 850      73657420 
 850      74617267 
 850      65742070 
 850      6F776572 
 851              	.LC36:
 852 00b5 52455345 		.ascii	"RESET\000"
 852      5400
 853              	.LC37:
 854 00bb 496E7374 		.ascii	"Instant reset\000"
 854      616E7420 
 854      72657365 
 854      7400
 855              	.LC38:
 856 00c9 534E00   		.ascii	"SN\000"
 857              	.LC39:
 858 00cc 52657175 		.ascii	"Request product serial number\000"
 858      65737420 
 858      70726F64 
 858      75637420 
 858      73657269 
 859              	.LC40:
 860 00ea 56455200 		.ascii	"VER\000"
 861              	.LC41:
 862 00ee 52657175 		.ascii	"Request version information\000"
ARM GAS  /tmp/ccYssy1g.s 			page 17


 862      65737420 
 862      76657273 
 862      696F6E20 
 862      696E666F 
 863              		.section	.data._pwr_state,"aw"
 864              		.set	.LANCHOR0,. + 0
 867              	_pwr_state:
 868 0000 01       		.byte	1
 869              		.section	.rodata._CMD_TABLE,"a"
 870              		.align	2
 871              		.set	.LANCHOR1,. + 0
 874              	_CMD_TABLE:
 875 0000 00000000 		.word	.LC22
 876 0004 00000000 		.word	_cmd_auto
 877 0008 00000000 		.word	_cmd_auto_set
 878 000c 05000000 		.word	.LC23
 879 0010 20000000 		.word	.LC24
 880 0014 00000000 		.word	_cmd_clkdiv
 881 0018 00000000 		.word	_cmd_clkdiv_set
 882 001c 27000000 		.word	.LC25
 883 0020 3D000000 		.word	.LC26
 884 0024 00000000 		.word	_cmd_cs
 885 0028 00000000 		.word	_cmd_cs_set
 886 002c 40000000 		.word	.LC27
 887 0030 5F000000 		.word	.LC28
 888 0034 00000000 		.word	_cmd_gpo
 889 0038 00000000 		.word	0
 890 003c 63000000 		.word	.LC29
 891 0040 72000000 		.word	.LC30
 892 0044 00000000 		.word	_cmd_help
 893 0048 00000000 		.word	0
 894 004c 77000000 		.word	.LC31
 895 0050 86000000 		.word	.LC32
 896 0054 00000000 		.word	_cmd_id
 897 0058 00000000 		.word	0
 898 005c 89000000 		.word	.LC33
 899 0060 9C000000 		.word	.LC34
 900 0064 00000000 		.word	_cmd_pwr
 901 0068 00000000 		.word	_cmd_pwr_set
 902 006c A0000000 		.word	.LC35
 903 0070 B5000000 		.word	.LC36
 904 0074 00000000 		.word	_cmd_reset
 905 0078 00000000 		.word	0
 906 007c BB000000 		.word	.LC37
 907 0080 C9000000 		.word	.LC38
 908 0084 00000000 		.word	_cmd_sn
 909 0088 00000000 		.word	0
 910 008c CC000000 		.word	.LC39
 911 0090 EA000000 		.word	.LC40
 912 0094 00000000 		.word	_cmd_ver
 913 0098 00000000 		.word	0
 914 009c EE000000 		.word	.LC41
 915 00a0 00000000 		.word	0
 916 00a4 00000000 		.word	0
 917 00a8 00000000 		.word	0
 918 00ac 00000000 		.word	0
 919              		.ident	"GCC: (15:10.3-2021.07-4) 10.3.1 20210621 (release)"
ARM GAS  /tmp/ccYssy1g.s 			page 18


ARM GAS  /tmp/ccYssy1g.s 			page 19

