ARM GAS  /tmp/ccDaGuGU.s 			page 1


   1              		.cpu cortex-m3
   2              		.eabi_attribute 20, 1
   3              		.eabi_attribute 21, 1
   4              		.eabi_attribute 23, 3
   5              		.eabi_attribute 24, 1
   6              		.eabi_attribute 25, 1
   7              		.eabi_attribute 26, 1
   8              		.eabi_attribute 30, 4
   9              		.eabi_attribute 34, 1
  10              		.eabi_attribute 18, 4
  11              		.file	"main.c"
  12              		.text
  13              		.section	.text._led1_on,"ax",%progbits
  14              		.align	1
  15              		.arch armv7-m
  16              		.syntax unified
  17              		.thumb
  18              		.thumb_func
  19              		.fpu softvfp
  21              	_led1_on:
  22              		@ args = 0, pretend = 0, frame = 0
  23              		@ frame_needed = 0, uses_anonymous_args = 0
  24              		@ link register save eliminated.
  25 0000 4FF40072 		mov	r2, #512
  26 0004 014B     		ldr	r3, .L2
  27 0006 1A61     		str	r2, [r3, #16]
  28 0008 7047     		bx	lr
  29              	.L3:
  30 000a 00BF     		.align	2
  31              	.L2:
  32 000c 00080140 		.word	1073809408
  34              		.section	.text._led1_off,"ax",%progbits
  35              		.align	1
  36              		.syntax unified
  37              		.thumb
  38              		.thumb_func
  39              		.fpu softvfp
  41              	_led1_off:
  42              		@ args = 0, pretend = 0, frame = 0
  43              		@ frame_needed = 0, uses_anonymous_args = 0
  44              		@ link register save eliminated.
  45 0000 4FF40072 		mov	r2, #512
  46 0004 014B     		ldr	r3, .L5
  47 0006 5A61     		str	r2, [r3, #20]
  48 0008 7047     		bx	lr
  49              	.L6:
  50 000a 00BF     		.align	2
  51              	.L5:
  52 000c 00080140 		.word	1073809408
  54              		.section	.rodata._parse_hex.str1.1,"aMS",%progbits,1
  55              	.LC0:
  56 0000 25303258 		.ascii	"%02X\000"
  56      00
  57              	.LC1:
  58 0005 0D00     		.ascii	"\015\000"
  59              		.section	.text._parse_hex,"ax",%progbits
  60              		.align	1
ARM GAS  /tmp/ccDaGuGU.s 			page 2


  61              		.syntax unified
  62              		.thumb
  63              		.thumb_func
  64              		.fpu softvfp
  66              	_parse_hex:
  67              		@ args = 0, pretend = 0, frame = 1032
  68              		@ frame_needed = 0, uses_anonymous_args = 0
  69 0000 F0B5     		push	{r4, r5, r6, r7, lr}
  70 0002 0378     		ldrb	r3, [r0]	@ zero_extendqisi2
  71 0004 0446     		mov	r4, r0
  72 0006 782B     		cmp	r3, #120
  73 0008 ADF20C4D 		subw	sp, sp, #1036
  74 000c 01D0     		beq	.L8
  75 000e 5C2B     		cmp	r3, #92
  76 0010 4ED1     		bne	.L17
  77              	.L8:
  78 0012 0127     		movs	r7, #1
  79 0014 0134     		adds	r4, r4, #1
  80              	.L9:
  81 0016 0122     		movs	r2, #1
  82 0018 2146     		mov	r1, r4
  83 001a 0DF10700 		add	r0, sp, #7
  84 001e FFF7FEFF 		bl	hex_to_bin
  85 0022 0128     		cmp	r0, #1
  86 0024 46D1     		bne	.L18
  87 0026 0025     		movs	r5, #0
  88 0028 02AE     		add	r6, sp, #8
  89              	.L13:
  90 002a A31C     		adds	r3, r4, #2
  91              	.L11:
  92 002c 1C46     		mov	r4, r3
  93 002e 13F8012B 		ldrb	r2, [r3], #1	@ zero_extendqisi2
  94 0032 202A     		cmp	r2, #32
  95 0034 FAD0     		beq	.L11
  96 0036 9DF80730 		ldrb	r3, [sp, #7]	@ zero_extendqisi2
  97 003a B5F5FF7F 		cmp	r5, #510
  98 003e 7355     		strb	r3, [r6, r5]
  99 0040 4FF00102 		mov	r2, #1
 100 0044 2146     		mov	r1, r4
 101 0046 0DF10700 		add	r0, sp, #7
 102 004a D8BF     		it	le
 103 004c 0135     		addle	r5, r5, #1
 104 004e FFF7FEFF 		bl	hex_to_bin
 105 0052 0128     		cmp	r0, #1
 106 0054 E9D0     		beq	.L13
 107 0056 4FF40072 		mov	r2, #512
 108 005a 174B     		ldr	r3, .L33
 109 005c 5A61     		str	r2, [r3, #20]
 110 005e 2FB9     		cbnz	r7, .L14
 111 0060 0120     		movs	r0, #1
 112 0062 FFF7FEFF 		bl	spi1_cs
 113 0066 0122     		movs	r2, #1
 114 0068 144B     		ldr	r3, .L33+4
 115 006a 1A70     		strb	r2, [r3]
 116              	.L14:
 117 006c 2A46     		mov	r2, r5
 118 006e 3146     		mov	r1, r6
ARM GAS  /tmp/ccDaGuGU.s 			page 3


 119 0070 82A8     		add	r0, sp, #520
 120 0072 FFF7FEFF 		bl	spi1_data_transfer
 121 0076 2378     		ldrb	r3, [r4]	@ zero_extendqisi2
 122 0078 782B     		cmp	r3, #120
 123 007a 07D0     		beq	.L15
 124 007c 5C2B     		cmp	r3, #92
 125 007e 05D0     		beq	.L15
 126 0080 0020     		movs	r0, #0
 127 0082 FFF7FEFF 		bl	spi1_cs
 128 0086 0022     		movs	r2, #0
 129 0088 0C4B     		ldr	r3, .L33+4
 130 008a 1A70     		strb	r2, [r3]
 131              	.L15:
 132 008c 0026     		movs	r6, #0
 133 008e 0C4F     		ldr	r7, .L33+8
 134 0090 82AC     		add	r4, sp, #520
 135              	.L16:
 136 0092 3846     		mov	r0, r7
 137 0094 14F8011B 		ldrb	r1, [r4], #1	@ zero_extendqisi2
 138 0098 0136     		adds	r6, r6, #1
 139 009a FFF7FEFF 		bl	printf
 140 009e B542     		cmp	r5, r6
 141 00a0 F7D1     		bne	.L16
 142 00a2 0848     		ldr	r0, .L33+12
 143 00a4 FFF7FEFF 		bl	puts
 144 00a8 0120     		movs	r0, #1
 145              	.L10:
 146 00aa 0DF20C4D 		addw	sp, sp, #1036
 147              		@ sp needed
 148 00ae F0BD     		pop	{r4, r5, r6, r7, pc}
 149              	.L17:
 150 00b0 0027     		movs	r7, #0
 151 00b2 B0E7     		b	.L9
 152              	.L18:
 153 00b4 0020     		movs	r0, #0
 154 00b6 F8E7     		b	.L10
 155              	.L34:
 156              		.align	2
 157              	.L33:
 158 00b8 00080140 		.word	1073809408
 159 00bc 00000000 		.word	.LANCHOR0
 160 00c0 00000000 		.word	.LC0
 161 00c4 05000000 		.word	.LC1
 163              		.section	.text._tty_rx_parser,"ax",%progbits
 164              		.align	1
 165              		.syntax unified
 166              		.thumb
 167              		.thumb_func
 168              		.fpu softvfp
 170              	_tty_rx_parser:
 171              		@ args = 0, pretend = 0, frame = 0
 172              		@ frame_needed = 0, uses_anonymous_args = 0
 173 0000 10B5     		push	{r4, lr}
 174              	.L36:
 175 0002 0446     		mov	r4, r0
 176 0004 2378     		ldrb	r3, [r4]	@ zero_extendqisi2
 177 0006 0130     		adds	r0, r0, #1
ARM GAS  /tmp/ccDaGuGU.s 			page 4


 178 0008 202B     		cmp	r3, #32
 179 000a FAD0     		beq	.L36
 180 000c 2046     		mov	r0, r4
 181 000e FFF7FEFF 		bl	_parse_hex
 182 0012 10B9     		cbnz	r0, .L37
 183 0014 2046     		mov	r0, r4
 184 0016 FFF7FEFF 		bl	cmd_parse
 185              	.L37:
 186 001a BDE81040 		pop	{r4, lr}
 187 001e 024B     		ldr	r3, .L40
 188 0020 1B68     		ldr	r3, [r3]
 189 0022 9868     		ldr	r0, [r3, #8]
 190 0024 FFF7FEBF 		b	fflush
 191              	.L41:
 192              		.align	2
 193              	.L40:
 194 0028 00000000 		.word	_impure_ptr
 196              		.section	.text._spi_auto_task,"ax",%progbits
 197              		.align	1
 198              		.syntax unified
 199              		.thumb
 200              		.thumb_func
 201              		.fpu softvfp
 203              	_spi_auto_task:
 204              		@ args = 0, pretend = 0, frame = 512
 205              		@ frame_needed = 0, uses_anonymous_args = 0
 206 0000 F0B5     		push	{r4, r5, r6, r7, lr}
 207 0002 ADF5017D 		sub	sp, sp, #516
 208 0006 FFF7FEFF 		bl	spi1_flush
 209 000a 0120     		movs	r0, #1
 210 000c FFF7FEFF 		bl	spi1_cs
 211 0010 0123     		movs	r3, #1
 212 0012 1E4F     		ldr	r7, .L50
 213 0014 3B70     		strb	r3, [r7]
 214 0016 1E4B     		ldr	r3, .L50+4
 215 0018 1878     		ldrb	r0, [r3]	@ zero_extendqisi2
 216 001a FFF7FEFF 		bl	spi1_transfer
 217 001e 0020     		movs	r0, #0
 218 0020 FFF7FEFF 		bl	spi1_transfer
 219 0024 1B4B     		ldr	r3, .L50+8
 220 0026 8DF80000 		strb	r0, [sp]
 221 002a 1B78     		ldrb	r3, [r3]	@ zero_extendqisi2
 222 002c 8342     		cmp	r3, r0
 223 002e 4FF00000 		mov	r0, #0
 224 0032 06D1     		bne	.L43
 225 0034 FFF7FEFF 		bl	spi1_cs
 226 0038 0023     		movs	r3, #0
 227 003a 3B70     		strb	r3, [r7]
 228 003c 0DF5017D 		add	sp, sp, #516
 229              		@ sp needed
 230 0040 F0BD     		pop	{r4, r5, r6, r7, pc}
 231              	.L43:
 232 0042 FFF7FEFF 		bl	spi1_transfer
 233 0046 0225     		movs	r5, #2
 234 0048 8DF80100 		strb	r0, [sp, #1]
 235 004c C41C     		adds	r4, r0, #3
 236              	.L45:
ARM GAS  /tmp/ccDaGuGU.s 			page 5


 237 004e AC42     		cmp	r4, r5
 238 0050 4FF00000 		mov	r0, #0
 239 0054 14DA     		bge	.L46
 240 0056 0026     		movs	r6, #0
 241 0058 6D46     		mov	r5, sp
 242 005a FFF7FEFF 		bl	spi1_cs
 243 005e 3E70     		strb	r6, [r7]
 244 0060 0D4F     		ldr	r7, .L50+12
 245              	.L47:
 246 0062 3846     		mov	r0, r7
 247 0064 15F8011B 		ldrb	r1, [r5], #1	@ zero_extendqisi2
 248 0068 0136     		adds	r6, r6, #1
 249 006a FFF7FEFF 		bl	printf
 250 006e B442     		cmp	r4, r6
 251 0070 F7DA     		bge	.L47
 252 0072 0A48     		ldr	r0, .L50+16
 253 0074 0DF5017D 		add	sp, sp, #516
 254              		@ sp needed
 255 0078 BDE8F040 		pop	{r4, r5, r6, r7, lr}
 256 007c FFF7FEBF 		b	puts
 257              	.L46:
 258 0080 FFF7FEFF 		bl	spi1_transfer
 259 0084 0DF80500 		strb	r0, [sp, r5]
 260 0088 0135     		adds	r5, r5, #1
 261 008a E0E7     		b	.L45
 262              	.L51:
 263              		.align	2
 264              	.L50:
 265 008c 00000000 		.word	.LANCHOR0
 266 0090 00000000 		.word	.LANCHOR1
 267 0094 00000000 		.word	.LANCHOR2
 268 0098 00000000 		.word	.LC0
 269 009c 05000000 		.word	.LC1
 271              		.section	.text.Error_Handler,"ax",%progbits
 272              		.align	1
 273              		.global	Error_Handler
 274              		.syntax unified
 275              		.thumb
 276              		.thumb_func
 277              		.fpu softvfp
 279              	Error_Handler:
 280              		@ Volatile: function does not return.
 281              		@ args = 0, pretend = 0, frame = 0
 282              		@ frame_needed = 0, uses_anonymous_args = 0
 283 0000 08B5     		push	{r3, lr}
 284              		.syntax unified
 285              	@ 962 "../sdk/stm32/CMSIS/inc/cmsis_gcc.h" 1
 286 0002 72B6     		cpsid i
 287              	@ 0 "" 2
 288              		.thumb
 289              		.syntax unified
 290 0004 4FF40075 		mov	r5, #512
 291 0008 044C     		ldr	r4, .L54
 292              	.L53:
 293 000a 6420     		movs	r0, #100
 294 000c 2561     		str	r5, [r4, #16]
 295 000e FFF7FEFF 		bl	time_delay_ms
ARM GAS  /tmp/ccDaGuGU.s 			page 6


 296 0012 6420     		movs	r0, #100
 297 0014 6561     		str	r5, [r4, #20]
 298 0016 FFF7FEFF 		bl	time_delay_ms
 299 001a F6E7     		b	.L53
 300              	.L55:
 301              		.align	2
 302              	.L54:
 303 001c 00080140 		.word	1073809408
 305              		.section	.rodata.main.str1.1,"aMS",%progbits,1
 306              	.LC2:
 307 0000 0D0A00   		.ascii	"\015\012\000"
 308              	.LC3:
 309 0003 41505020 		.ascii	"APP START\015\012\000"
 309      53544152 
 309      540D0A00 
 310              	.LC4:
 311 000f 23204255 		.ascii	"# BUILD DATE: Jan 16 2026\015\012\000"
 311      494C4420 
 311      44415445 
 311      3A204A61 
 311      6E203136 
 312              	.LC5:
 313 002b 23205245 		.ascii	"# RESET TYPE: \000"
 313      53455420 
 313      54595045 
 313      3A2000
 314              	.LC6:
 315 003a 504F5745 		.ascii	"POWER_ON\000"
 315      525F4F4E 
 315      00
 316              	.LC7:
 317 0043 55534552 		.ascii	"USER_RQ\000"
 317      5F525100 
 318              	.LC8:
 319 004b 57445400 		.ascii	"WDT\000"
 320              	.LC9:
 321 004f 424F4400 		.ascii	"BOD\000"
 322              	.LC10:
 323 0053 554E4B4E 		.ascii	"UNKNOWN\000"
 323      4F574E00 
 324              		.section	.text.startup.main,"ax",%progbits
 325              		.align	1
 326              		.global	main
 327              		.syntax unified
 328              		.thumb
 329              		.thumb_func
 330              		.fpu softvfp
 332              	main:
 333              		@ Volatile: function does not return.
 334              		@ args = 0, pretend = 0, frame = 0
 335              		@ frame_needed = 0, uses_anonymous_args = 0
 336 0000 824D     		ldr	r5, .L78
 337 0002 2DE98848 		push	{r3, r7, fp, lr}
 338 0006 FFF7FEFF 		bl	sys_init
 339 000a FFF7FEFF 		bl	sys_clock_config
 340 000e FFF7FEFF 		bl	gpio_init
 341 0012 0122     		movs	r2, #1
ARM GAS  /tmp/ccDaGuGU.s 			page 7


 342 0014 0921     		movs	r1, #9
 343 0016 2846     		mov	r0, r5
 344 0018 FFF7FEFF 		bl	gpio_pin_init
 345 001c 4FF40073 		mov	r3, #512
 346 0020 2B61     		str	r3, [r5, #16]
 347 0022 4FF48073 		mov	r3, #256
 348 0026 7A4C     		ldr	r4, .L78+4
 349 0028 6B61     		str	r3, [r5, #20]
 350 002a 0122     		movs	r2, #1
 351 002c 0821     		movs	r1, #8
 352 002e 2846     		mov	r0, r5
 353 0030 FFF7FEFF 		bl	gpio_pin_init
 354 0034 2046     		mov	r0, r4
 355 0036 0822     		movs	r2, #8
 356 0038 0021     		movs	r1, #0
 357 003a FFF7FEFF 		bl	gpio_pin_init
 358 003e 2046     		mov	r0, r4
 359 0040 0822     		movs	r2, #8
 360 0042 0121     		movs	r1, #1
 361 0044 FFF7FEFF 		bl	gpio_pin_init
 362 0048 2046     		mov	r0, r4
 363 004a 0822     		movs	r2, #8
 364 004c 0221     		movs	r1, #2
 365 004e FFF7FEFF 		bl	gpio_pin_init
 366 0052 2046     		mov	r0, r4
 367 0054 0822     		movs	r2, #8
 368 0056 0321     		movs	r1, #3
 369 0058 FFF7FEFF 		bl	gpio_pin_init
 370 005c 2046     		mov	r0, r4
 371 005e 0822     		movs	r2, #8
 372 0060 0421     		movs	r1, #4
 373 0062 FFF7FEFF 		bl	gpio_pin_init
 374 0066 0822     		movs	r2, #8
 375 0068 6A4E     		ldr	r6, .L78+8
 376 006a 1146     		mov	r1, r2
 377 006c 2046     		mov	r0, r4
 378 006e FFF7FEFF 		bl	gpio_pin_init
 379 0072 E368     		ldr	r3, [r4, #12]
 380 0074 326A     		ldr	r2, [r6, #32]
 381 0076 2046     		mov	r0, r4
 382 0078 23EA1223 		bic	r3, r3, r2, lsr #8
 383 007c E360     		str	r3, [r4, #12]
 384 007e 0822     		movs	r2, #8
 385 0080 0921     		movs	r1, #9
 386 0082 FFF7FEFF 		bl	gpio_pin_init
 387 0086 2046     		mov	r0, r4
 388 0088 0822     		movs	r2, #8
 389 008a 0A21     		movs	r1, #10
 390 008c FFF7FEFF 		bl	gpio_pin_init
 391 0090 2046     		mov	r0, r4
 392 0092 0822     		movs	r2, #8
 393 0094 0B21     		movs	r1, #11
 394 0096 FFF7FEFF 		bl	gpio_pin_init
 395 009a 0122     		movs	r2, #1
 396 009c 0021     		movs	r1, #0
 397 009e 2846     		mov	r0, r5
 398 00a0 FFF7FEFF 		bl	gpio_pin_init
ARM GAS  /tmp/ccDaGuGU.s 			page 8


 399 00a4 0123     		movs	r3, #1
 400 00a6 2B61     		str	r3, [r5, #16]
 401 00a8 3368     		ldr	r3, [r6]
 402              		.syntax unified
 403              	@ 380 "../sdk/stm32/CMSIS/inc/cmsis_gcc.h" 1
 404 00aa 93FAA3F1 		rbit r1, r3
 405              	@ 0 "" 2
 406              		.thumb
 407              		.syntax unified
 408 00ae B1FA81F1 		clz	r1, r1
 409 00b2 0F24     		movs	r4, #15
 410 00b4 1A0E     		lsrs	r2, r3, #24
 411 00b6 02F18042 		add	r2, r2, #1073741824
 412 00ba 02F58432 		add	r2, r2, #67584
 413 00be 1068     		ldr	r0, [r2]
 414 00c0 8900     		lsls	r1, r1, #2
 415 00c2 04FA01F1 		lsl	r1, r4, r1
 416              		.syntax unified
 417              	@ 380 "../sdk/stm32/CMSIS/inc/cmsis_gcc.h" 1
 418 00c6 93FAA3F3 		rbit r3, r3
 419              	@ 0 "" 2
 420              		.thumb
 421              		.syntax unified
 422 00ca B3FA83F3 		clz	r3, r3
 423 00ce 20EA0100 		bic	r0, r0, r1
 424 00d2 0121     		movs	r1, #1
 425 00d4 9B00     		lsls	r3, r3, #2
 426 00d6 01FA03F3 		lsl	r3, r1, r3
 427 00da 0343     		orrs	r3, r3, r0
 428 00dc 1360     		str	r3, [r2]
 429 00de FFF7FEFF 		bl	wd_init
 430 00e2 FFF7FEFF 		bl	wd_run
 431 00e6 FFF7FEFF 		bl	reset_get_type
 432 00ea 4B4C     		ldr	r4, .L78+12
 433 00ec 2070     		strb	r0, [r4]
 434 00ee FFF7FEFF 		bl	timer_init
 435 00f2 0A20     		movs	r0, #10
 436 00f4 FFF7FEFF 		bl	time_delay_ms
 437 00f8 4848     		ldr	r0, .L78+16
 438 00fa FFF7FEFF 		bl	tty_init
 439 00fe 0A20     		movs	r0, #10
 440 0100 FFF7FEFF 		bl	time_delay_ms
 441 0104 4648     		ldr	r0, .L78+20
 442 0106 FFF7FEFF 		bl	tty_put_text
 443 010a 4648     		ldr	r0, .L78+24
 444 010c FFF7FEFF 		bl	tty_put_text
 445 0110 4FF40073 		mov	r3, #512
 446 0114 4448     		ldr	r0, .L78+28
 447 0116 6B61     		str	r3, [r5, #20]
 448 0118 FFF7FEFF 		bl	tty_put_text
 449 011c 4348     		ldr	r0, .L78+32
 450 011e FFF7FEFF 		bl	tty_put_text
 451 0122 2378     		ldrb	r3, [r4]	@ zero_extendqisi2
 452 0124 032B     		cmp	r3, #3
 453 0126 65D8     		bhi	.L59
 454 0128 DFE803F0 		tbb	[pc, r3]
 455              	.L61:
ARM GAS  /tmp/ccDaGuGU.s 			page 9


 456 012c 02       		.byte	(.L64-.L61)/2
 457 012d 5E       		.byte	(.L63-.L61)/2
 458 012e 60       		.byte	(.L62-.L61)/2
 459 012f 62       		.byte	(.L60-.L61)/2
 460              		.p2align 1
 461              	.L64:
 462 0130 3F48     		ldr	r0, .L78+36
 463              	.L77:
 464 0132 FFF7FEFF 		bl	tty_put_text
 465 0136 3F4C     		ldr	r4, .L78+40
 466 0138 3948     		ldr	r0, .L78+20
 467 013a FFF7FEFF 		bl	tty_put_text
 468 013e 3848     		ldr	r0, .L78+20
 469 0140 FFF7FEFF 		bl	tty_put_text
 470 0144 FFF7FEFF 		bl	reset_clear
 471 0148 2046     		mov	r0, r4
 472 014a FFF7FEFF 		bl	led_init
 473 014e 3A4B     		ldr	r3, .L78+44
 474 0150 2046     		mov	r0, r4
 475 0152 A360     		str	r3, [r4, #8]
 476 0154 394B     		ldr	r3, .L78+48
 477 0156 0422     		movs	r2, #4
 478 0158 0121     		movs	r1, #1
 479 015a E360     		str	r3, [r4, #12]
 480 015c 0023     		movs	r3, #0
 481 015e FFF7FEFF 		bl	led_cyclic_sequence
 482 0162 FFF7FEFF 		bl	usb_device_init
 483 0166 FFF7FEFF 		bl	spi1_init
 484 016a FFF7FEFF 		bl	timer_get_time
 485 016e 0446     		mov	r4, r0
 486 0170 0E46     		mov	r6, r1
 487 0172 8046     		mov	r8, r0
 488 0174 8B46     		mov	fp, r1
 489              	.L71:
 490 0176 FFF7FEFF 		bl	timer_get_time
 491 017a 8246     		mov	r10, r0
 492 017c 8946     		mov	r9, r1
 493 017e FFF7FEFF 		bl	tty_rx_task
 494 0182 5445     		cmp	r4, r10
 495 0184 76EB0903 		sbcs	r3, r6, r9
 496 0188 23D2     		bcs	.L66
 497 018a FFF7FEFF 		bl	usb_device_connected
 498 018e 2C4B     		ldr	r3, .L78+52
 499 0190 0746     		mov	r7, r0
 500 0192 1B78     		ldrb	r3, [r3]	@ zero_extendqisi2
 501 0194 8342     		cmp	r3, r0
 502 0196 0BD0     		beq	.L67
 503 0198 70B3     		cbz	r0, .L68
 504 019a 0023     		movs	r3, #0
 505 019c 0422     		movs	r2, #4
 506 019e 0F21     		movs	r1, #15
 507 01a0 2448     		ldr	r0, .L78+40
 508 01a2 FFF7FEFF 		bl	led_cyclic_sequence
 509 01a6 4FF48073 		mov	r3, #256
 510 01aa 2B61     		str	r3, [r5, #16]
 511              	.L69:
 512 01ac 244B     		ldr	r3, .L78+52
ARM GAS  /tmp/ccDaGuGU.s 			page 10


 513 01ae 1F70     		strb	r7, [r3]
 514              	.L67:
 515 01b0 244B     		ldr	r3, .L78+56
 516 01b2 2048     		ldr	r0, .L78+40
 517 01b4 E418     		adds	r4, r4, r3
 518 01b6 46F10006 		adc	r6, r6, #0
 519 01ba FFF7FEFF 		bl	led_tick
 520 01be FFF7FEFF 		bl	wd_feed
 521 01c2 214B     		ldr	r3, .L78+60
 522 01c4 1B78     		ldrb	r3, [r3]	@ zero_extendqisi2
 523 01c6 23B1     		cbz	r3, .L66
 524 01c8 204B     		ldr	r3, .L78+64
 525 01ca 1B78     		ldrb	r3, [r3]	@ zero_extendqisi2
 526 01cc 0BB9     		cbnz	r3, .L66
 527 01ce FFF7FEFF 		bl	_spi_auto_task
 528              	.L66:
 529 01d2 D045     		cmp	r8, r10
 530 01d4 7BEB0903 		sbcs	r3, fp, r9
 531 01d8 04D2     		bcs	.L70
 532 01da 1D4B     		ldr	r3, .L78+68
 533 01dc 18EB0308 		adds	r8, r8, r3
 534 01e0 4BF1000B 		adc	fp, fp, #0
 535              	.L70:
 536              		.syntax unified
 537              	@ 277 "main.c" 1
 538 01e4 30BF     		wfi
 539              	@ 0 "" 2
 540              		.thumb
 541              		.syntax unified
 542 01e6 C6E7     		b	.L71
 543              	.L63:
 544 01e8 1A48     		ldr	r0, .L78+72
 545 01ea A2E7     		b	.L77
 546              	.L62:
 547 01ec 1A48     		ldr	r0, .L78+76
 548 01ee A0E7     		b	.L77
 549              	.L60:
 550 01f0 1A48     		ldr	r0, .L78+80
 551 01f2 9EE7     		b	.L77
 552              	.L59:
 553 01f4 1A48     		ldr	r0, .L78+84
 554 01f6 9CE7     		b	.L77
 555              	.L68:
 556 01f8 0346     		mov	r3, r0
 557 01fa 0422     		movs	r2, #4
 558 01fc 0121     		movs	r1, #1
 559 01fe 0D48     		ldr	r0, .L78+40
 560 0200 FFF7FEFF 		bl	led_cyclic_sequence
 561 0204 4FF48073 		mov	r3, #256
 562 0208 6B61     		str	r3, [r5, #20]
 563 020a CFE7     		b	.L69
 564              	.L79:
 565              		.align	2
 566              	.L78:
 567 020c 00080140 		.word	1073809408
 568 0210 000C0140 		.word	1073810432
 569 0214 00000000 		.word	gpio_ll_map
ARM GAS  /tmp/ccDaGuGU.s 			page 11


 570 0218 00000000 		.word	.LANCHOR3
 571 021c 00000000 		.word	_tty_rx_parser
 572 0220 00000000 		.word	.LC2
 573 0224 03000000 		.word	.LC3
 574 0228 0F000000 		.word	.LC4
 575 022c 2B000000 		.word	.LC5
 576 0230 3A000000 		.word	.LC6
 577 0234 00000000 		.word	.LANCHOR4
 578 0238 00000000 		.word	_led1_on
 579 023c 00000000 		.word	_led1_off
 580 0240 00000000 		.word	.LANCHOR5
 581 0244 A0860100 		.word	100000
 582 0248 00000000 		.word	.LANCHOR6
 583 024c 00000000 		.word	.LANCHOR0
 584 0250 80969800 		.word	10000000
 585 0254 43000000 		.word	.LC7
 586 0258 4B000000 		.word	.LC8
 587 025c 4F000000 		.word	.LC9
 588 0260 53000000 		.word	.LC10
 590              		.global	main_spi_no_resp
 591              		.global	main_spi_get_resp
 592              		.global	main_spi_auto
 593              		.section	.bss._spi_cs_active,"aw",%nobits
 594              		.set	.LANCHOR0,. + 0
 597              	_spi_cs_active:
 598 0000 00       		.space	1
 599              		.section	.bss.led1,"aw",%nobits
 600              		.align	2
 601              		.set	.LANCHOR4,. + 0
 604              	led1:
 605 0000 00000000 		.space	20
 605      00000000 
 605      00000000 
 605      00000000 
 605      00000000 
 606              		.section	.bss.main_spi_auto,"aw",%nobits
 607              		.set	.LANCHOR6,. + 0
 610              	main_spi_auto:
 611 0000 00       		.space	1
 612              		.section	.bss.main_spi_get_resp,"aw",%nobits
 613              		.set	.LANCHOR1,. + 0
 616              	main_spi_get_resp:
 617 0000 00       		.space	1
 618              		.section	.bss.main_spi_no_resp,"aw",%nobits
 619              		.set	.LANCHOR2,. + 0
 622              	main_spi_no_resp:
 623 0000 00       		.space	1
 624              		.section	.bss.prev_state.0,"aw",%nobits
 625              		.set	.LANCHOR5,. + 0
 628              	prev_state.0:
 629 0000 00       		.space	1
 630              		.section	.bss.reset_type,"aw",%nobits
 631              		.set	.LANCHOR3,. + 0
 634              	reset_type:
 635 0000 00       		.space	1
 636              		.ident	"GCC: (15:10.3-2021.07-4) 10.3.1 20210621 (release)"
ARM GAS  /tmp/ccDaGuGU.s 			page 12

