ARM GAS  /tmp/ccF7ckvx.s 			page 1


   1              		.cpu cortex-m3
   2              		.eabi_attribute 20, 1
   3              		.eabi_attribute 21, 1
   4              		.eabi_attribute 23, 3
   5              		.eabi_attribute 24, 1
   6              		.eabi_attribute 25, 1
   7              		.eabi_attribute 26, 1
   8              		.eabi_attribute 30, 4
   9              		.eabi_attribute 34, 1
  10              		.eabi_attribute 18, 4
  11              		.file	"stm32f1xx_ll_rcc.c"
  12              		.text
  13              		.section	.text.LL_RCC_DeInit,"ax",%progbits
  14              		.align	1
  15              		.global	LL_RCC_DeInit
  16              		.arch armv7-m
  17              		.syntax unified
  18              		.thumb
  19              		.thumb_func
  20              		.fpu softvfp
  22              	LL_RCC_DeInit:
  23              		@ args = 0, pretend = 0, frame = 0
  24              		@ frame_needed = 0, uses_anonymous_args = 0
  25              		@ link register save eliminated.
  26 0000 144B     		ldr	r3, .L9
  27 0002 1A68     		ldr	r2, [r3]
  28 0004 42F00102 		orr	r2, r2, #1
  29 0008 1A60     		str	r2, [r3]
  30              	.L2:
  31 000a 1A68     		ldr	r2, [r3]
  32 000c 9207     		lsls	r2, r2, #30
  33 000e FCD5     		bpl	.L2
  34 0010 5A68     		ldr	r2, [r3, #4]
  35 0012 22F00302 		bic	r2, r2, #3
  36 0016 5A60     		str	r2, [r3, #4]
  37              	.L3:
  38 0018 5A68     		ldr	r2, [r3, #4]
  39 001a 12F00C0F 		tst	r2, #12
  40 001e FBD1     		bne	.L3
  41 0020 1A68     		ldr	r2, [r3]
  42 0022 22F08072 		bic	r2, r2, #16777216
  43 0026 1A60     		str	r2, [r3]
  44              	.L4:
  45 0028 1868     		ldr	r0, [r3]
  46 002a 10F00070 		ands	r0, r0, #33554432
  47 002e FBD1     		bne	.L4
  48 0030 5860     		str	r0, [r3, #4]
  49 0032 1A68     		ldr	r2, [r3]
  50 0034 22F45022 		bic	r2, r2, #851968
  51 0038 1A60     		str	r2, [r3]
  52 003a 1A68     		ldr	r2, [r3]
  53 003c 22F0F802 		bic	r2, r2, #248
  54 0040 42F08002 		orr	r2, r2, #128
  55 0044 1A60     		str	r2, [r3]
  56 0046 9860     		str	r0, [r3, #8]
  57 0048 5A6A     		ldr	r2, [r3, #36]
  58 004a 42F08072 		orr	r2, r2, #16777216
ARM GAS  /tmp/ccF7ckvx.s 			page 2


  59 004e 5A62     		str	r2, [r3, #36]
  60 0050 7047     		bx	lr
  61              	.L10:
  62 0052 00BF     		.align	2
  63              	.L9:
  64 0054 00100240 		.word	1073876992
  66              		.section	.text.RCC_GetHCLKClockFreq,"ax",%progbits
  67              		.align	1
  68              		.global	RCC_GetHCLKClockFreq
  69              		.syntax unified
  70              		.thumb
  71              		.thumb_func
  72              		.fpu softvfp
  74              	RCC_GetHCLKClockFreq:
  75              		@ args = 0, pretend = 0, frame = 0
  76              		@ frame_needed = 0, uses_anonymous_args = 0
  77              		@ link register save eliminated.
  78 0000 034B     		ldr	r3, .L12
  79 0002 044A     		ldr	r2, .L12+4
  80 0004 5B68     		ldr	r3, [r3, #4]
  81 0006 C3F30313 		ubfx	r3, r3, #4, #4
  82 000a D35C     		ldrb	r3, [r2, r3]	@ zero_extendqisi2
  83 000c D840     		lsrs	r0, r0, r3
  84 000e 7047     		bx	lr
  85              	.L13:
  86              		.align	2
  87              	.L12:
  88 0010 00100240 		.word	1073876992
  89 0014 00000000 		.word	AHBPrescTable
  91              		.section	.text.RCC_GetPCLK1ClockFreq,"ax",%progbits
  92              		.align	1
  93              		.global	RCC_GetPCLK1ClockFreq
  94              		.syntax unified
  95              		.thumb
  96              		.thumb_func
  97              		.fpu softvfp
  99              	RCC_GetPCLK1ClockFreq:
 100              		@ args = 0, pretend = 0, frame = 0
 101              		@ frame_needed = 0, uses_anonymous_args = 0
 102              		@ link register save eliminated.
 103 0000 034B     		ldr	r3, .L15
 104 0002 044A     		ldr	r2, .L15+4
 105 0004 5B68     		ldr	r3, [r3, #4]
 106 0006 C3F30223 		ubfx	r3, r3, #8, #3
 107 000a D35C     		ldrb	r3, [r2, r3]	@ zero_extendqisi2
 108 000c D840     		lsrs	r0, r0, r3
 109 000e 7047     		bx	lr
 110              	.L16:
 111              		.align	2
 112              	.L15:
 113 0010 00100240 		.word	1073876992
 114 0014 00000000 		.word	APBPrescTable
 116              		.section	.text.RCC_GetPCLK2ClockFreq,"ax",%progbits
 117              		.align	1
 118              		.global	RCC_GetPCLK2ClockFreq
 119              		.syntax unified
 120              		.thumb
ARM GAS  /tmp/ccF7ckvx.s 			page 3


 121              		.thumb_func
 122              		.fpu softvfp
 124              	RCC_GetPCLK2ClockFreq:
 125              		@ args = 0, pretend = 0, frame = 0
 126              		@ frame_needed = 0, uses_anonymous_args = 0
 127              		@ link register save eliminated.
 128 0000 034B     		ldr	r3, .L18
 129 0002 044A     		ldr	r2, .L18+4
 130 0004 5B68     		ldr	r3, [r3, #4]
 131 0006 C3F3C223 		ubfx	r3, r3, #11, #3
 132 000a D35C     		ldrb	r3, [r2, r3]	@ zero_extendqisi2
 133 000c D840     		lsrs	r0, r0, r3
 134 000e 7047     		bx	lr
 135              	.L19:
 136              		.align	2
 137              	.L18:
 138 0010 00100240 		.word	1073876992
 139 0014 00000000 		.word	APBPrescTable
 141              		.section	.text.RCC_PLL_GetFreqDomain_SYS,"ax",%progbits
 142              		.align	1
 143              		.global	RCC_PLL_GetFreqDomain_SYS
 144              		.syntax unified
 145              		.thumb
 146              		.thumb_func
 147              		.fpu softvfp
 149              	RCC_PLL_GetFreqDomain_SYS:
 150              		@ args = 0, pretend = 0, frame = 0
 151              		@ frame_needed = 0, uses_anonymous_args = 0
 152              		@ link register save eliminated.
 153 0000 094A     		ldr	r2, .L23
 154 0002 5368     		ldr	r3, [r2, #4]
 155 0004 DB03     		lsls	r3, r3, #15
 156 0006 41BF     		itttt	mi
 157 0008 5068     		ldrmi	r0, [r2, #4]
 158 000a 084B     		ldrmi	r3, .L23+4
 159 000c C0F34040 		ubfxmi	r0, r0, #17, #1
 160 0010 0130     		addmi	r0, r0, #1
 161 0012 48BF     		it	mi
 162 0014 B3FBF0F0 		udivmi	r0, r3, r0
 163 0018 5368     		ldr	r3, [r2, #4]
 164 001a 58BF     		it	pl
 165 001c 0448     		ldrpl	r0, .L23+8
 166 001e C3F38343 		ubfx	r3, r3, #18, #4
 167 0022 0233     		adds	r3, r3, #2
 168 0024 5843     		muls	r0, r3, r0
 169 0026 7047     		bx	lr
 170              	.L24:
 171              		.align	2
 172              	.L23:
 173 0028 00100240 		.word	1073876992
 174 002c 0024F400 		.word	16000000
 175 0030 00093D00 		.word	4000000
 177              		.section	.text.LL_RCC_GetUSBClockFreq,"ax",%progbits
 178              		.align	1
 179              		.global	LL_RCC_GetUSBClockFreq
 180              		.syntax unified
 181              		.thumb
ARM GAS  /tmp/ccF7ckvx.s 			page 4


 182              		.thumb_func
 183              		.fpu softvfp
 185              	LL_RCC_GetUSBClockFreq:
 186              		@ args = 0, pretend = 0, frame = 0
 187              		@ frame_needed = 0, uses_anonymous_args = 0
 188 0000 08B5     		push	{r3, lr}
 189 0002 0B4B     		ldr	r3, .L34
 190 0004 5A68     		ldr	r2, [r3, #4]
 191 0006 1040     		ands	r0, r0, r2
 192 0008 B0F5800F 		cmp	r0, #4194304
 193 000c 1868     		ldr	r0, [r3]
 194 000e 06D1     		bne	.L26
 195 0010 10F00070 		ands	r0, r0, #33554432
 196 0014 0BD0     		beq	.L25
 197 0016 BDE80840 		pop	{r3, lr}
 198 001a FFF7FEBF 		b	RCC_PLL_GetFreqDomain_SYS
 199              	.L26:
 200 001e 10F00070 		ands	r0, r0, #33554432
 201 0022 04D0     		beq	.L25
 202 0024 FFF7FEFF 		bl	RCC_PLL_GetFreqDomain_SYS
 203 0028 00EB4000 		add	r0, r0, r0, lsl #1
 204 002c 4008     		lsrs	r0, r0, #1
 205              	.L25:
 206 002e 08BD     		pop	{r3, pc}
 207              	.L35:
 208              		.align	2
 209              	.L34:
 210 0030 00100240 		.word	1073876992
 212              		.section	.text.RCC_GetSystemClockFreq,"ax",%progbits
 213              		.align	1
 214              		.global	RCC_GetSystemClockFreq
 215              		.syntax unified
 216              		.thumb
 217              		.thumb_func
 218              		.fpu softvfp
 220              	RCC_GetSystemClockFreq:
 221              		@ args = 0, pretend = 0, frame = 0
 222              		@ frame_needed = 0, uses_anonymous_args = 0
 223              		@ link register save eliminated.
 224 0000 064B     		ldr	r3, .L40
 225 0002 5B68     		ldr	r3, [r3, #4]
 226 0004 03F00C03 		and	r3, r3, #12
 227 0008 042B     		cmp	r3, #4
 228 000a 03D0     		beq	.L38
 229 000c 082B     		cmp	r3, #8
 230 000e 03D1     		bne	.L39
 231 0010 FFF7FEBF 		b	RCC_PLL_GetFreqDomain_SYS
 232              	.L38:
 233 0014 0248     		ldr	r0, .L40+4
 234 0016 7047     		bx	lr
 235              	.L39:
 236 0018 0248     		ldr	r0, .L40+8
 237 001a 7047     		bx	lr
 238              	.L41:
 239              		.align	2
 240              	.L40:
 241 001c 00100240 		.word	1073876992
ARM GAS  /tmp/ccF7ckvx.s 			page 5


 242 0020 0024F400 		.word	16000000
 243 0024 00127A00 		.word	8000000
 245              		.section	.text.LL_RCC_GetSystemClocksFreq,"ax",%progbits
 246              		.align	1
 247              		.global	LL_RCC_GetSystemClocksFreq
 248              		.syntax unified
 249              		.thumb
 250              		.thumb_func
 251              		.fpu softvfp
 253              	LL_RCC_GetSystemClocksFreq:
 254              		@ args = 0, pretend = 0, frame = 0
 255              		@ frame_needed = 0, uses_anonymous_args = 0
 256 0000 08B5     		push	{r3, lr}
 257 0002 0146     		mov	r1, r0
 258 0004 FFF7FEFF 		bl	RCC_GetSystemClockFreq
 259 0008 0860     		str	r0, [r1]
 260 000a FFF7FEFF 		bl	RCC_GetHCLKClockFreq
 261 000e 4860     		str	r0, [r1, #4]
 262 0010 FFF7FEFF 		bl	RCC_GetPCLK1ClockFreq
 263 0014 8860     		str	r0, [r1, #8]
 264 0016 4868     		ldr	r0, [r1, #4]
 265 0018 FFF7FEFF 		bl	RCC_GetPCLK2ClockFreq
 266 001c C860     		str	r0, [r1, #12]
 267 001e 08BD     		pop	{r3, pc}
 269              		.section	.text.LL_RCC_GetADCClockFreq,"ax",%progbits
 270              		.align	1
 271              		.global	LL_RCC_GetADCClockFreq
 272              		.syntax unified
 273              		.thumb
 274              		.thumb_func
 275              		.fpu softvfp
 277              	LL_RCC_GetADCClockFreq:
 278              		@ args = 0, pretend = 0, frame = 0
 279              		@ frame_needed = 0, uses_anonymous_args = 0
 280 0000 0A4B     		ldr	r3, .L46
 281 0002 10B5     		push	{r4, lr}
 282 0004 5968     		ldr	r1, [r3, #4]
 283 0006 0446     		mov	r4, r0
 284              		.syntax unified
 285              	@ 380 "../sdk/stm32/CMSIS/inc/cmsis_gcc.h" 1
 286 0008 94FAA4F4 		rbit r4, r4
 287              	@ 0 "" 2
 288              		.thumb
 289              		.syntax unified
 290 000c B4FA84F4 		clz	r4, r4
 291 0010 0140     		ands	r1, r1, r0
 292 0012 FFF7FEFF 		bl	RCC_GetSystemClockFreq
 293 0016 FFF7FEFF 		bl	RCC_GetHCLKClockFreq
 294 001a FFF7FEFF 		bl	RCC_GetPCLK2ClockFreq
 295 001e E140     		lsrs	r1, r1, r4
 296 0020 0131     		adds	r1, r1, #1
 297 0022 4900     		lsls	r1, r1, #1
 298 0024 B0FBF1F0 		udiv	r0, r0, r1
 299 0028 10BD     		pop	{r4, pc}
 300              	.L47:
 301 002a 00BF     		.align	2
 302              	.L46:
ARM GAS  /tmp/ccF7ckvx.s 			page 6


 303 002c 00100240 		.word	1073876992
 305              		.ident	"GCC: (15:10.3-2021.07-4) 10.3.1 20210621 (release)"
ARM GAS  /tmp/ccF7ckvx.s 			page 7

