ARM GAS  /tmp/ccjO803V.s 			page 1


   1              		.cpu cortex-m3
   2              		.eabi_attribute 20, 1
   3              		.eabi_attribute 21, 1
   4              		.eabi_attribute 23, 3
   5              		.eabi_attribute 24, 1
   6              		.eabi_attribute 25, 1
   7              		.eabi_attribute 26, 1
   8              		.eabi_attribute 30, 4
   9              		.eabi_attribute 34, 1
  10              		.eabi_attribute 18, 4
  11              		.file	"stm32f1xx_ll_adc.c"
  12              		.text
  13              		.section	.text.LL_ADC_CommonDeInit,"ax",%progbits
  14              		.align	1
  15              		.global	LL_ADC_CommonDeInit
  16              		.arch armv7-m
  17              		.syntax unified
  18              		.thumb
  19              		.thumb_func
  20              		.fpu softvfp
  22              	LL_ADC_CommonDeInit:
  23              		@ args = 0, pretend = 0, frame = 0
  24              		@ frame_needed = 0, uses_anonymous_args = 0
  25              		@ link register save eliminated.
  26 0000 054B     		ldr	r3, .L2
  27 0002 0020     		movs	r0, #0
  28 0004 DA68     		ldr	r2, [r3, #12]
  29 0006 42F40072 		orr	r2, r2, #512
  30 000a DA60     		str	r2, [r3, #12]
  31 000c DA68     		ldr	r2, [r3, #12]
  32 000e 22F40072 		bic	r2, r2, #512
  33 0012 DA60     		str	r2, [r3, #12]
  34 0014 7047     		bx	lr
  35              	.L3:
  36 0016 00BF     		.align	2
  37              	.L2:
  38 0018 00100240 		.word	1073876992
  40              		.section	.text.LL_ADC_CommonInit,"ax",%progbits
  41              		.align	1
  42              		.global	LL_ADC_CommonInit
  43              		.syntax unified
  44              		.thumb
  45              		.thumb_func
  46              		.fpu softvfp
  48              	LL_ADC_CommonInit:
  49              		@ args = 0, pretend = 0, frame = 0
  50              		@ frame_needed = 0, uses_anonymous_args = 0
  51              		@ link register save eliminated.
  52 0000 0D4B     		ldr	r3, .L12
  53 0002 9842     		cmp	r0, r3
  54 0004 09BF     		itett	eq
  55 0006 03F58063 		addeq	r3, r3, #1024
  56 000a 0C4B     		ldrne	r3, .L12+4
  57 000c 8268     		ldreq	r2, [r0, #8]
  58 000e 9B68     		ldreq	r3, [r3, #8]
  59 0010 14BF     		ite	ne
  60 0012 9B68     		ldrne	r3, [r3, #8]
ARM GAS  /tmp/ccjO803V.s 			page 2


  61 0014 1343     		orreq	r3, r3, r2
  62 0016 DB43     		mvns	r3, r3
  63 0018 03F00103 		and	r3, r3, #1
  64 001c 53B1     		cbz	r3, .L9
  65 001e 4268     		ldr	r2, [r0, #4]
  66 0020 0B68     		ldr	r3, [r1]
  67 0022 22F47022 		bic	r2, r2, #983040
  68 0026 1BB1     		cbz	r3, .L8
  69 0028 1343     		orrs	r3, r3, r2
  70 002a 4360     		str	r3, [r0, #4]
  71              	.L11:
  72 002c 0020     		movs	r0, #0
  73 002e 7047     		bx	lr
  74              	.L8:
  75 0030 4260     		str	r2, [r0, #4]
  76 0032 FBE7     		b	.L11
  77              	.L9:
  78 0034 0120     		movs	r0, #1
  79 0036 7047     		bx	lr
  80              	.L13:
  81              		.align	2
  82              	.L12:
  83 0038 00240140 		.word	1073816576
  84 003c 003C0140 		.word	1073822720
  86              		.section	.text.LL_ADC_CommonStructInit,"ax",%progbits
  87              		.align	1
  88              		.global	LL_ADC_CommonStructInit
  89              		.syntax unified
  90              		.thumb
  91              		.thumb_func
  92              		.fpu softvfp
  94              	LL_ADC_CommonStructInit:
  95              		@ args = 0, pretend = 0, frame = 0
  96              		@ frame_needed = 0, uses_anonymous_args = 0
  97              		@ link register save eliminated.
  98 0000 0023     		movs	r3, #0
  99 0002 0360     		str	r3, [r0]
 100 0004 7047     		bx	lr
 102              		.section	.text.LL_ADC_DeInit,"ax",%progbits
 103              		.align	1
 104              		.global	LL_ADC_DeInit
 105              		.syntax unified
 106              		.thumb
 107              		.thumb_func
 108              		.fpu softvfp
 110              	LL_ADC_DeInit:
 111              		@ args = 0, pretend = 0, frame = 0
 112              		@ frame_needed = 0, uses_anonymous_args = 0
 113              		@ link register save eliminated.
 114 0000 8368     		ldr	r3, [r0, #8]
 115 0002 DA07     		lsls	r2, r3, #31
 116 0004 0BD5     		bpl	.L16
 117 0006 8368     		ldr	r3, [r0, #8]
 118 0008 43F46023 		orr	r3, r3, #917504
 119 000c 8360     		str	r3, [r0, #8]
 120 000e 8368     		ldr	r3, [r0, #8]
 121 0010 43F4E043 		orr	r3, r3, #28672
ARM GAS  /tmp/ccjO803V.s 			page 3


 122 0014 8360     		str	r3, [r0, #8]
 123 0016 8368     		ldr	r3, [r0, #8]
 124 0018 23F00103 		bic	r3, r3, #1
 125 001c 8360     		str	r3, [r0, #8]
 126              	.L16:
 127 001e 8368     		ldr	r3, [r0, #8]
 128 0020 DB07     		lsls	r3, r3, #31
 129 0022 39D4     		bmi	.L17
 130 0024 0368     		ldr	r3, [r0]
 131 0026 23F01F03 		bic	r3, r3, #31
 132 002a 0360     		str	r3, [r0]
 133 002c 4268     		ldr	r2, [r0, #4]
 134 002e 1B4B     		ldr	r3, .L21
 135 0030 1340     		ands	r3, r3, r2
 136 0032 4360     		str	r3, [r0, #4]
 137 0034 8268     		ldr	r2, [r0, #8]
 138 0036 1A4B     		ldr	r3, .L21+4
 139 0038 1340     		ands	r3, r3, r2
 140 003a 8360     		str	r3, [r0, #8]
 141 003c C368     		ldr	r3, [r0, #12]
 142 003e 03F07F43 		and	r3, r3, #-16777216
 143 0042 C360     		str	r3, [r0, #12]
 144 0044 0369     		ldr	r3, [r0, #16]
 145 0046 03F04043 		and	r3, r3, #-1073741824
 146 004a 0361     		str	r3, [r0, #16]
 147 004c 4269     		ldr	r2, [r0, #20]
 148 004e 154B     		ldr	r3, .L21+8
 149 0050 1A40     		ands	r2, r2, r3
 150 0052 4261     		str	r2, [r0, #20]
 151 0054 8269     		ldr	r2, [r0, #24]
 152 0056 1A40     		ands	r2, r2, r3
 153 0058 8261     		str	r2, [r0, #24]
 154 005a C269     		ldr	r2, [r0, #28]
 155 005c 1A40     		ands	r2, r2, r3
 156 005e C261     		str	r2, [r0, #28]
 157 0060 026A     		ldr	r2, [r0, #32]
 158 0062 1A40     		ands	r2, r2, r3
 159 0064 0262     		str	r2, [r0, #32]
 160 0066 426A     		ldr	r2, [r0, #36]
 161 0068 6FEA1232 		mvn	r2, r2, lsr #12
 162 006c 6FEA0232 		mvn	r2, r2, lsl #12
 163 0070 4262     		str	r2, [r0, #36]
 164 0072 826A     		ldr	r2, [r0, #40]
 165 0074 1340     		ands	r3, r3, r2
 166 0076 8362     		str	r3, [r0, #40]
 167 0078 C36A     		ldr	r3, [r0, #44]
 168 007a 03F07F43 		and	r3, r3, #-16777216
 169 007e C362     		str	r3, [r0, #44]
 170 0080 036B     		ldr	r3, [r0, #48]
 171 0082 03F04043 		and	r3, r3, #-1073741824
 172 0086 0363     		str	r3, [r0, #48]
 173 0088 436B     		ldr	r3, [r0, #52]
 174 008a 03F04043 		and	r3, r3, #-1073741824
 175 008e 4363     		str	r3, [r0, #52]
 176 0090 836B     		ldr	r3, [r0, #56]
 177 0092 9B0D     		lsrs	r3, r3, #22
 178 0094 9B05     		lsls	r3, r3, #22
ARM GAS  /tmp/ccjO803V.s 			page 4


 179 0096 8363     		str	r3, [r0, #56]
 180              	.L17:
 181 0098 0020     		movs	r0, #0
 182 009a 7047     		bx	lr
 183              	.L22:
 184              		.align	2
 185              	.L21:
 186 009c 000030FF 		.word	-13631488
 187 00a0 F00601FF 		.word	-16709904
 188 00a4 00F0FFFF 		.word	-4096
 190              		.section	.text.LL_ADC_Init,"ax",%progbits
 191              		.align	1
 192              		.global	LL_ADC_Init
 193              		.syntax unified
 194              		.thumb
 195              		.thumb_func
 196              		.fpu softvfp
 198              	LL_ADC_Init:
 199              		@ args = 0, pretend = 0, frame = 0
 200              		@ frame_needed = 0, uses_anonymous_args = 0
 201 0000 0246     		mov	r2, r0
 202 0002 8068     		ldr	r0, [r0, #8]
 203 0004 10B5     		push	{r4, lr}
 204 0006 10F00100 		ands	r0, r0, #1
 205 000a 0CD1     		bne	.L25
 206 000c 5368     		ldr	r3, [r2, #4]
 207 000e 4C68     		ldr	r4, [r1, #4]
 208 0010 23F48073 		bic	r3, r3, #256
 209 0014 2343     		orrs	r3, r3, r4
 210 0016 5360     		str	r3, [r2, #4]
 211 0018 9368     		ldr	r3, [r2, #8]
 212 001a 0968     		ldr	r1, [r1]
 213 001c 23F40063 		bic	r3, r3, #2048
 214 0020 0B43     		orrs	r3, r3, r1
 215 0022 9360     		str	r3, [r2, #8]
 216              	.L24:
 217 0024 10BD     		pop	{r4, pc}
 218              	.L25:
 219 0026 0120     		movs	r0, #1
 220 0028 FCE7     		b	.L24
 222              		.section	.text.LL_ADC_StructInit,"ax",%progbits
 223              		.align	1
 224              		.global	LL_ADC_StructInit
 225              		.syntax unified
 226              		.thumb
 227              		.thumb_func
 228              		.fpu softvfp
 230              	LL_ADC_StructInit:
 231              		@ args = 0, pretend = 0, frame = 0
 232              		@ frame_needed = 0, uses_anonymous_args = 0
 233              		@ link register save eliminated.
 234 0000 0022     		movs	r2, #0
 235 0002 4FF48073 		mov	r3, #256
 236 0006 C0E90023 		strd	r2, r3, [r0]
 237 000a 7047     		bx	lr
 239              		.section	.text.LL_ADC_REG_Init,"ax",%progbits
 240              		.align	1
ARM GAS  /tmp/ccjO803V.s 			page 5


 241              		.global	LL_ADC_REG_Init
 242              		.syntax unified
 243              		.thumb
 244              		.thumb_func
 245              		.fpu softvfp
 247              	LL_ADC_REG_Init:
 248              		@ args = 0, pretend = 0, frame = 0
 249              		@ frame_needed = 0, uses_anonymous_args = 0
 250 0000 8368     		ldr	r3, [r0, #8]
 251 0002 10B5     		push	{r4, lr}
 252 0004 DB07     		lsls	r3, r3, #31
 253 0006 1BD4     		bmi	.L31
 254 0008 4368     		ldr	r3, [r0, #4]
 255 000a 4A68     		ldr	r2, [r1, #4]
 256 000c 23F46843 		bic	r3, r3, #59392
 257 0010 12B1     		cbz	r2, .L29
 258 0012 8C68     		ldr	r4, [r1, #8]
 259 0014 1343     		orrs	r3, r3, r2
 260 0016 2343     		orrs	r3, r3, r4
 261              	.L29:
 262 0018 4360     		str	r3, [r0, #4]
 263 001a 8368     		ldr	r3, [r0, #8]
 264 001c 0C68     		ldr	r4, [r1]
 265 001e 23F46023 		bic	r3, r3, #917504
 266 0022 23F48173 		bic	r3, r3, #258
 267 0026 2343     		orrs	r3, r3, r4
 268 0028 CC68     		ldr	r4, [r1, #12]
 269 002a 0969     		ldr	r1, [r1, #16]
 270 002c 2343     		orrs	r3, r3, r4
 271 002e 0B43     		orrs	r3, r3, r1
 272 0030 8360     		str	r3, [r0, #8]
 273 0032 C36A     		ldr	r3, [r0, #44]
 274 0034 23F47003 		bic	r3, r3, #15728640
 275 0038 1343     		orrs	r3, r3, r2
 276 003a C362     		str	r3, [r0, #44]
 277 003c 0020     		movs	r0, #0
 278              	.L28:
 279 003e 10BD     		pop	{r4, pc}
 280              	.L31:
 281 0040 0120     		movs	r0, #1
 282 0042 FCE7     		b	.L28
 284              		.section	.text.LL_ADC_REG_StructInit,"ax",%progbits
 285              		.align	1
 286              		.global	LL_ADC_REG_StructInit
 287              		.syntax unified
 288              		.thumb
 289              		.thumb_func
 290              		.fpu softvfp
 292              	LL_ADC_REG_StructInit:
 293              		@ args = 0, pretend = 0, frame = 0
 294              		@ frame_needed = 0, uses_anonymous_args = 0
 295              		@ link register save eliminated.
 296 0000 0023     		movs	r3, #0
 297 0002 4FF46022 		mov	r2, #917504
 298 0006 C0E90233 		strd	r3, r3, [r0, #8]
 299 000a C0E90023 		strd	r2, r3, [r0]
 300 000e 0361     		str	r3, [r0, #16]
ARM GAS  /tmp/ccjO803V.s 			page 6


 301 0010 7047     		bx	lr
 303              		.section	.text.LL_ADC_INJ_Init,"ax",%progbits
 304              		.align	1
 305              		.global	LL_ADC_INJ_Init
 306              		.syntax unified
 307              		.thumb
 308              		.thumb_func
 309              		.fpu softvfp
 311              	LL_ADC_INJ_Init:
 312              		@ args = 0, pretend = 0, frame = 0
 313              		@ frame_needed = 0, uses_anonymous_args = 0
 314 0000 8368     		ldr	r3, [r0, #8]
 315 0002 10B5     		push	{r4, lr}
 316 0004 DB07     		lsls	r3, r3, #31
 317 0006 16D4     		bmi	.L37
 318 0008 4368     		ldr	r3, [r0, #4]
 319 000a CA68     		ldr	r2, [r1, #12]
 320 000c 4C68     		ldr	r4, [r1, #4]
 321 000e 23F4A053 		bic	r3, r3, #5120
 322 0012 1343     		orrs	r3, r3, r2
 323 0014 0CB1     		cbz	r4, .L35
 324 0016 8A68     		ldr	r2, [r1, #8]
 325 0018 1343     		orrs	r3, r3, r2
 326              	.L35:
 327 001a 4360     		str	r3, [r0, #4]
 328 001c 8268     		ldr	r2, [r0, #8]
 329 001e 0B68     		ldr	r3, [r1]
 330 0020 22F4E042 		bic	r2, r2, #28672
 331 0024 1A43     		orrs	r2, r2, r3
 332 0026 8260     		str	r2, [r0, #8]
 333 0028 836B     		ldr	r3, [r0, #56]
 334 002a 23F44013 		bic	r3, r3, #3145728
 335 002e 2343     		orrs	r3, r3, r4
 336 0030 8363     		str	r3, [r0, #56]
 337 0032 0020     		movs	r0, #0
 338              	.L34:
 339 0034 10BD     		pop	{r4, pc}
 340              	.L37:
 341 0036 0120     		movs	r0, #1
 342 0038 FCE7     		b	.L34
 344              		.section	.text.LL_ADC_INJ_StructInit,"ax",%progbits
 345              		.align	1
 346              		.global	LL_ADC_INJ_StructInit
 347              		.syntax unified
 348              		.thumb
 349              		.thumb_func
 350              		.fpu softvfp
 352              	LL_ADC_INJ_StructInit:
 353              		@ args = 0, pretend = 0, frame = 0
 354              		@ frame_needed = 0, uses_anonymous_args = 0
 355              		@ link register save eliminated.
 356 0000 0023     		movs	r3, #0
 357 0002 4FF4E042 		mov	r2, #28672
 358 0006 C0E90233 		strd	r3, r3, [r0, #8]
 359 000a C0E90023 		strd	r2, r3, [r0]
 360 000e 7047     		bx	lr
 362              		.ident	"GCC: (15:10.3-2021.07-4) 10.3.1 20210621 (release)"
ARM GAS  /tmp/ccjO803V.s 			page 7


ARM GAS  /tmp/ccjO803V.s 			page 8

