ARM GAS  /tmp/cc389V0e.s 			page 1


   1              		.cpu cortex-m3
   2              		.eabi_attribute 20, 1
   3              		.eabi_attribute 21, 1
   4              		.eabi_attribute 23, 3
   5              		.eabi_attribute 24, 1
   6              		.eabi_attribute 25, 1
   7              		.eabi_attribute 26, 1
   8              		.eabi_attribute 30, 4
   9              		.eabi_attribute 34, 1
  10              		.eabi_attribute 18, 4
  11              		.file	"stm32f1xx_hal_pcd_ex.c"
  12              		.text
  13              		.section	.text.HAL_PCDEx_PMAConfig,"ax",%progbits
  14              		.align	1
  15              		.global	HAL_PCDEx_PMAConfig
  16              		.arch armv7-m
  17              		.syntax unified
  18              		.thumb
  19              		.thumb_func
  20              		.fpu softvfp
  22              	HAL_PCDEx_PMAConfig:
  23              		@ args = 0, pretend = 0, frame = 0
  24              		@ frame_needed = 0, uses_anonymous_args = 0
  25 0000 10B5     		push	{r4, lr}
  26 0002 2824     		movs	r4, #40
  27 0004 11F0800F 		tst	r1, #128
  28 0008 1BBF     		ittet	ne
  29 000a 01F00701 		andne	r1, r1, #7
  30 000e 01FB0441 		mlane	r1, r1, r4, r4
  31 0012 04FB0100 		mlaeq	r0, r4, r1, r0
  32 0016 4018     		addne	r0, r0, r1
  33 0018 08BF     		it	eq
  34 001a 00F5B470 		addeq	r0, r0, #360
  35 001e 99B2     		uxth	r1, r3
  36 0020 1AB9     		cbnz	r2, .L4
  37 0022 0273     		strb	r2, [r0, #12]
  38 0024 C180     		strh	r1, [r0, #6]	@ movhi
  39              	.L5:
  40 0026 0020     		movs	r0, #0
  41 0028 10BD     		pop	{r4, pc}
  42              	.L4:
  43 002a 0122     		movs	r2, #1
  44 002c 8360     		str	r3, [r0, #8]
  45 002e 0273     		strb	r2, [r0, #12]
  46 0030 F9E7     		b	.L5
  48              		.section	.text.HAL_PCDEx_SetConnectionState,"ax",%progbits
  49              		.align	1
  50              		.weak	HAL_PCDEx_SetConnectionState
  51              		.syntax unified
  52              		.thumb
  53              		.thumb_func
  54              		.fpu softvfp
  56              	HAL_PCDEx_SetConnectionState:
  57              		@ args = 0, pretend = 0, frame = 0
  58              		@ frame_needed = 0, uses_anonymous_args = 0
  59              		@ link register save eliminated.
  60 0000 7047     		bx	lr
ARM GAS  /tmp/cc389V0e.s 			page 2


  62              		.section	.text.HAL_PCDEx_LPM_Callback,"ax",%progbits
  63              		.align	1
  64              		.weak	HAL_PCDEx_LPM_Callback
  65              		.syntax unified
  66              		.thumb
  67              		.thumb_func
  68              		.fpu softvfp
  70              	HAL_PCDEx_LPM_Callback:
  71              		@ args = 0, pretend = 0, frame = 0
  72              		@ frame_needed = 0, uses_anonymous_args = 0
  73              		@ link register save eliminated.
  74 0000 7047     		bx	lr
  76              		.section	.text.HAL_PCDEx_BCD_Callback,"ax",%progbits
  77              		.align	1
  78              		.weak	HAL_PCDEx_BCD_Callback
  79              		.syntax unified
  80              		.thumb
  81              		.thumb_func
  82              		.fpu softvfp
  84              	HAL_PCDEx_BCD_Callback:
  85              		@ args = 0, pretend = 0, frame = 0
  86              		@ frame_needed = 0, uses_anonymous_args = 0
  87              		@ link register save eliminated.
  88 0000 7047     		bx	lr
  90              		.ident	"GCC: (15:10.3-2021.07-4) 10.3.1 20210621 (release)"
ARM GAS  /tmp/cc389V0e.s 			page 3


DEFINED SYMBOLS
                            *ABS*:0000000000000000 stm32f1xx_hal_pcd_ex.c
     /tmp/cc389V0e.s:14     .text.HAL_PCDEx_PMAConfig:0000000000000000 $t
     /tmp/cc389V0e.s:22     .text.HAL_PCDEx_PMAConfig:0000000000000000 HAL_PCDEx_PMAConfig
     /tmp/cc389V0e.s:49     .text.HAL_PCDEx_SetConnectionState:0000000000000000 $t
     /tmp/cc389V0e.s:56     .text.HAL_PCDEx_SetConnectionState:0000000000000000 HAL_PCDEx_SetConnectionState
     /tmp/cc389V0e.s:63     .text.HAL_PCDEx_LPM_Callback:0000000000000000 $t
     /tmp/cc389V0e.s:70     .text.HAL_PCDEx_LPM_Callback:0000000000000000 HAL_PCDEx_LPM_Callback
     /tmp/cc389V0e.s:77     .text.HAL_PCDEx_BCD_Callback:0000000000000000 $t
     /tmp/cc389V0e.s:84     .text.HAL_PCDEx_BCD_Callback:0000000000000000 HAL_PCDEx_BCD_Callback

NO UNDEFINED SYMBOLS
