ARM GAS  /tmp/ccbDWIBn.s 			page 1


   1              		.cpu cortex-m3
   2              		.eabi_attribute 20, 1
   3              		.eabi_attribute 21, 1
   4              		.eabi_attribute 23, 3
   5              		.eabi_attribute 24, 1
   6              		.eabi_attribute 25, 1
   7              		.eabi_attribute 26, 1
   8              		.eabi_attribute 30, 4
   9              		.eabi_attribute 34, 1
  10              		.eabi_attribute 18, 4
  11              		.file	"stm32f1xx_ll_gpio.c"
  12              		.text
  13              		.section	.text.LL_APB2_GRP1_ForceReset,"ax",%progbits
  14              		.align	1
  15              		.arch armv7-m
  16              		.syntax unified
  17              		.thumb
  18              		.thumb_func
  19              		.fpu softvfp
  21              	LL_APB2_GRP1_ForceReset:
  22              		@ args = 0, pretend = 0, frame = 0
  23              		@ frame_needed = 0, uses_anonymous_args = 0
  24              		@ link register save eliminated.
  25 0000 024A     		ldr	r2, .L2
  26 0002 D368     		ldr	r3, [r2, #12]
  27 0004 0343     		orrs	r3, r3, r0
  28 0006 D360     		str	r3, [r2, #12]
  29 0008 7047     		bx	lr
  30              	.L3:
  31 000a 00BF     		.align	2
  32              	.L2:
  33 000c 00100240 		.word	1073876992
  35              		.section	.text.LL_GPIO_DeInit,"ax",%progbits
  36              		.align	1
  37              		.global	LL_GPIO_DeInit
  38              		.syntax unified
  39              		.thumb
  40              		.thumb_func
  41              		.fpu softvfp
  43              	LL_GPIO_DeInit:
  44              		@ args = 0, pretend = 0, frame = 0
  45              		@ frame_needed = 0, uses_anonymous_args = 0
  46 0000 08B5     		push	{r3, lr}
  47 0002 294B     		ldr	r3, .L14
  48 0004 9842     		cmp	r0, r3
  49 0006 09D1     		bne	.L5
  50 0008 0420     		movs	r0, #4
  51 000a FFF7FEFF 		bl	LL_APB2_GRP1_ForceReset
  52 000e 274A     		ldr	r2, .L14+4
  53 0010 D368     		ldr	r3, [r2, #12]
  54 0012 23F00403 		bic	r3, r3, #4
  55              	.L13:
  56 0016 0020     		movs	r0, #0
  57 0018 D360     		str	r3, [r2, #12]
  58              	.L6:
  59 001a 08BD     		pop	{r3, pc}
  60              	.L5:
ARM GAS  /tmp/ccbDWIBn.s 			page 2


  61 001c 244B     		ldr	r3, .L14+8
  62 001e 9842     		cmp	r0, r3
  63 0020 07D1     		bne	.L7
  64 0022 0820     		movs	r0, #8
  65 0024 FFF7FEFF 		bl	LL_APB2_GRP1_ForceReset
  66 0028 204A     		ldr	r2, .L14+4
  67 002a D368     		ldr	r3, [r2, #12]
  68 002c 23F00803 		bic	r3, r3, #8
  69 0030 F1E7     		b	.L13
  70              	.L7:
  71 0032 204B     		ldr	r3, .L14+12
  72 0034 9842     		cmp	r0, r3
  73 0036 07D1     		bne	.L8
  74 0038 1020     		movs	r0, #16
  75 003a FFF7FEFF 		bl	LL_APB2_GRP1_ForceReset
  76 003e 1B4A     		ldr	r2, .L14+4
  77 0040 D368     		ldr	r3, [r2, #12]
  78 0042 23F01003 		bic	r3, r3, #16
  79 0046 E6E7     		b	.L13
  80              	.L8:
  81 0048 1B4B     		ldr	r3, .L14+16
  82 004a 9842     		cmp	r0, r3
  83 004c 07D1     		bne	.L9
  84 004e 2020     		movs	r0, #32
  85 0050 FFF7FEFF 		bl	LL_APB2_GRP1_ForceReset
  86 0054 154A     		ldr	r2, .L14+4
  87 0056 D368     		ldr	r3, [r2, #12]
  88 0058 23F02003 		bic	r3, r3, #32
  89 005c DBE7     		b	.L13
  90              	.L9:
  91 005e 174B     		ldr	r3, .L14+20
  92 0060 9842     		cmp	r0, r3
  93 0062 07D1     		bne	.L10
  94 0064 4020     		movs	r0, #64
  95 0066 FFF7FEFF 		bl	LL_APB2_GRP1_ForceReset
  96 006a 104A     		ldr	r2, .L14+4
  97 006c D368     		ldr	r3, [r2, #12]
  98 006e 23F04003 		bic	r3, r3, #64
  99 0072 D0E7     		b	.L13
 100              	.L10:
 101 0074 124B     		ldr	r3, .L14+24
 102 0076 9842     		cmp	r0, r3
 103 0078 07D1     		bne	.L11
 104 007a 8020     		movs	r0, #128
 105 007c FFF7FEFF 		bl	LL_APB2_GRP1_ForceReset
 106 0080 0A4A     		ldr	r2, .L14+4
 107 0082 D368     		ldr	r3, [r2, #12]
 108 0084 23F08003 		bic	r3, r3, #128
 109 0088 C5E7     		b	.L13
 110              	.L11:
 111 008a 0E4B     		ldr	r3, .L14+28
 112 008c 9842     		cmp	r0, r3
 113 008e 08D1     		bne	.L12
 114 0090 4FF48070 		mov	r0, #256
 115 0094 FFF7FEFF 		bl	LL_APB2_GRP1_ForceReset
 116 0098 044A     		ldr	r2, .L14+4
 117 009a D368     		ldr	r3, [r2, #12]
ARM GAS  /tmp/ccbDWIBn.s 			page 3


 118 009c 23F48073 		bic	r3, r3, #256
 119 00a0 B9E7     		b	.L13
 120              	.L12:
 121 00a2 0120     		movs	r0, #1
 122 00a4 B9E7     		b	.L6
 123              	.L15:
 124 00a6 00BF     		.align	2
 125              	.L14:
 126 00a8 00080140 		.word	1073809408
 127 00ac 00100240 		.word	1073876992
 128 00b0 000C0140 		.word	1073810432
 129 00b4 00100140 		.word	1073811456
 130 00b8 00140140 		.word	1073812480
 131 00bc 00180140 		.word	1073813504
 132 00c0 001C0140 		.word	1073814528
 133 00c4 00200140 		.word	1073815552
 135              		.section	.text.LL_GPIO_Init,"ax",%progbits
 136              		.align	1
 137              		.global	LL_GPIO_Init
 138              		.syntax unified
 139              		.thumb
 140              		.thumb_func
 141              		.fpu softvfp
 143              	LL_GPIO_Init:
 144              		@ args = 0, pretend = 0, frame = 0
 145              		@ frame_needed = 0, uses_anonymous_args = 0
 146 0000 2DE9F04F 		push	{r4, r5, r6, r7, r8, r9, r10, fp, lr}
 147 0004 0D68     		ldr	r5, [r1]
 148 0006 0446     		mov	r4, r0
 149 0008 C5F30F25 		ubfx	r5, r5, #8, #16
 150 000c 4FF00F0A 		mov	r10, #15
 151              		.syntax unified
 152              	@ 380 "../sdk/stm32/CMSIS/inc/cmsis_gcc.h" 1
 153 0010 95FAA5F2 		rbit r2, r5
 154              	@ 0 "" 2
 155              		.thumb
 156              		.syntax unified
 157 0014 0327     		movs	r7, #3
 158 0016 B2FA82F2 		clz	r2, r2
 159 001a 4FF0040C 		mov	ip, #4
 160 001e 4FF0011E 		mov	lr, #65537
 161 0022 40F20118 		movw	r8, #257
 162              	.L18:
 163 0026 35FA02F0 		lsrs	r0, r5, r2
 164 002a 01D1     		bne	.L32
 165 002c BDE8F08F 		pop	{r4, r5, r6, r7, r8, r9, r10, fp, pc}
 166              	.L32:
 167 0030 0123     		movs	r3, #1
 168 0032 9340     		lsls	r3, r3, r2
 169 0034 2B42     		tst	r3, r5
 170 0036 65D0     		beq	.L20
 171 0038 072A     		cmp	r2, #7
 172 003a 88BF     		it	hi
 173 003c A2F10803 		subhi	r3, r2, #8
 174 0040 4E68     		ldr	r6, [r1, #4]
 175 0042 8ABF     		itet	hi
 176 0044 0EFA03F3 		lslhi	r3, lr, r3
ARM GAS  /tmp/ccbDWIBn.s 			page 4


 177 0048 08FA02F3 		lslls	r3, r8, r2
 178 004c 43F08063 		orrhi	r3, r3, #67108864
 179 0050 082E     		cmp	r6, #8
 180 0052 0ED1     		bne	.L23
 181 0054 4FEA1329 		lsr	r9, r3, #8
 182              		.syntax unified
 183              	@ 380 "../sdk/stm32/CMSIS/inc/cmsis_gcc.h" 1
 184 0058 99FAA9F9 		rbit r9, r9
 185              	@ 0 "" 2
 186              		.thumb
 187              		.syntax unified
 188 005c B9FA89F9 		clz	r9, r9
 189 0060 E068     		ldr	r0, [r4, #12]
 190 0062 20EA132B 		bic	fp, r0, r3, lsr #8
 191 0066 0869     		ldr	r0, [r1, #16]
 192 0068 00FA09F0 		lsl	r0, r0, r9
 193 006c 40EA0B00 		orr	r0, r0, fp
 194 0070 E060     		str	r0, [r4, #12]
 195              	.L23:
 196              		.syntax unified
 197              	@ 380 "../sdk/stm32/CMSIS/inc/cmsis_gcc.h" 1
 198 0072 93FAA3FB 		rbit fp, r3
 199              	@ 0 "" 2
 200              		.thumb
 201              		.syntax unified
 202 0076 BBFA8BFB 		clz	fp, fp
 203 007a 4FEA1369 		lsr	r9, r3, #24
 204 007e 54F80900 		ldr	r0, [r4, r9]
 205 0082 4FEA8B0B 		lsl	fp, fp, #2
 206 0086 0AFA0BFB 		lsl	fp, r10, fp
 207 008a 20EA0B00 		bic	r0, r0, fp
 208              		.syntax unified
 209              	@ 380 "../sdk/stm32/CMSIS/inc/cmsis_gcc.h" 1
 210 008e 93FAA3FB 		rbit fp, r3
 211              	@ 0 "" 2
 212              		.thumb
 213              		.syntax unified
 214 0092 BBFA8BFB 		clz	fp, fp
 215 0096 4FEA8B0B 		lsl	fp, fp, #2
 216 009a 06FA0BF6 		lsl	r6, r6, fp
 217 009e 0643     		orrs	r6, r6, r0
 218 00a0 44F80960 		str	r6, [r4, r9]
 219 00a4 4868     		ldr	r0, [r1, #4]
 220 00a6 20F00800 		bic	r0, r0, #8
 221 00aa 0128     		cmp	r0, #1
 222 00ac 2AD1     		bne	.L20
 223              		.syntax unified
 224              	@ 380 "../sdk/stm32/CMSIS/inc/cmsis_gcc.h" 1
 225 00ae 93FAA3FB 		rbit fp, r3
 226              	@ 0 "" 2
 227              		.thumb
 228              		.syntax unified
 229 00b2 BBFA8BFB 		clz	fp, fp
 230 00b6 4FEA8B0B 		lsl	fp, fp, #2
 231 00ba 07FA0BFB 		lsl	fp, r7, fp
 232 00be 26EA0B06 		bic	r6, r6, fp
 233              		.syntax unified
ARM GAS  /tmp/ccbDWIBn.s 			page 5


 234              	@ 380 "../sdk/stm32/CMSIS/inc/cmsis_gcc.h" 1
 235 00c2 93FAA3FB 		rbit fp, r3
 236              	@ 0 "" 2
 237              		.thumb
 238              		.syntax unified
 239 00c6 BBFA8BFB 		clz	fp, fp
 240 00ca 8868     		ldr	r0, [r1, #8]
 241 00cc 4FEA8B0B 		lsl	fp, fp, #2
 242 00d0 00FA0BF0 		lsl	r0, r0, fp
 243              		.syntax unified
 244              	@ 380 "../sdk/stm32/CMSIS/inc/cmsis_gcc.h" 1
 245 00d4 93FAA3FB 		rbit fp, r3
 246              	@ 0 "" 2
 247              		.thumb
 248              		.syntax unified
 249 00d8 BBFA8BFB 		clz	fp, fp
 250              		.syntax unified
 251              	@ 380 "../sdk/stm32/CMSIS/inc/cmsis_gcc.h" 1
 252 00dc 93FAA3F3 		rbit r3, r3
 253              	@ 0 "" 2
 254              		.thumb
 255              		.syntax unified
 256 00e0 B3FA83F3 		clz	r3, r3
 257 00e4 3043     		orrs	r0, r0, r6
 258 00e6 44F80900 		str	r0, [r4, r9]
 259 00ea CE68     		ldr	r6, [r1, #12]
 260 00ec 4FEA8B0B 		lsl	fp, fp, #2
 261 00f0 0CFA0BFB 		lsl	fp, ip, fp
 262 00f4 9B00     		lsls	r3, r3, #2
 263 00f6 20EA0B00 		bic	r0, r0, fp
 264 00fa 06FA03F3 		lsl	r3, r6, r3
 265 00fe 1843     		orrs	r0, r0, r3
 266 0100 44F80900 		str	r0, [r4, r9]
 267              	.L20:
 268 0104 0132     		adds	r2, r2, #1
 269 0106 8EE7     		b	.L18
 271              		.section	.text.LL_GPIO_StructInit,"ax",%progbits
 272              		.align	1
 273              		.global	LL_GPIO_StructInit
 274              		.syntax unified
 275              		.thumb
 276              		.thumb_func
 277              		.fpu softvfp
 279              	LL_GPIO_StructInit:
 280              		@ args = 0, pretend = 0, frame = 0
 281              		@ frame_needed = 0, uses_anonymous_args = 0
 282              		@ link register save eliminated.
 283 0000 0423     		movs	r3, #4
 284 0002 6FF07B42 		mvn	r2, #-83886080
 285 0006 C0E90023 		strd	r2, r3, [r0]
 286 000a 0222     		movs	r2, #2
 287 000c C0E90223 		strd	r2, r3, [r0, #8]
 288 0010 0023     		movs	r3, #0
 289 0012 0361     		str	r3, [r0, #16]
 290 0014 7047     		bx	lr
 292              		.ident	"GCC: (15:10.3-2021.07-4) 10.3.1 20210621 (release)"
ARM GAS  /tmp/ccbDWIBn.s 			page 6

