ARM GAS  /tmp/ccl0iGWc.s 			page 1


   1              		.cpu cortex-m3
   2              		.eabi_attribute 20, 1
   3              		.eabi_attribute 21, 1
   4              		.eabi_attribute 23, 3
   5              		.eabi_attribute 24, 1
   6              		.eabi_attribute 25, 1
   7              		.eabi_attribute 26, 1
   8              		.eabi_attribute 30, 4
   9              		.eabi_attribute 34, 1
  10              		.eabi_attribute 18, 4
  11              		.file	"system_stm32f1xx.c"
  12              		.text
  13              		.section	.text.SystemInit,"ax",%progbits
  14              		.align	1
  15              		.global	SystemInit
  16              		.arch armv7-m
  17              		.syntax unified
  18              		.thumb
  19              		.thumb_func
  20              		.fpu softvfp
  22              	SystemInit:
  23              		@ args = 0, pretend = 0, frame = 0
  24              		@ frame_needed = 0, uses_anonymous_args = 0
  25              		@ link register save eliminated.
  26 0000 7047     		bx	lr
  28              		.section	.text.SystemCoreClockUpdate,"ax",%progbits
  29              		.align	1
  30              		.global	SystemCoreClockUpdate
  31              		.syntax unified
  32              		.thumb
  33              		.thumb_func
  34              		.fpu softvfp
  36              	SystemCoreClockUpdate:
  37              		@ args = 0, pretend = 0, frame = 0
  38              		@ frame_needed = 0, uses_anonymous_args = 0
  39              		@ link register save eliminated.
  40 0000 1349     		ldr	r1, .L10
  41 0002 144A     		ldr	r2, .L10+4
  42 0004 4B68     		ldr	r3, [r1, #4]
  43 0006 03F00C03 		and	r3, r3, #12
  44 000a 042B     		cmp	r3, #4
  45 000c 0CD0     		beq	.L3
  46 000e 082B     		cmp	r3, #8
  47 0010 0CD0     		beq	.L4
  48 0012 114B     		ldr	r3, .L10+8
  49              	.L8:
  50 0014 1360     		str	r3, [r2]
  51 0016 4B68     		ldr	r3, [r1, #4]
  52 0018 1049     		ldr	r1, .L10+12
  53 001a C3F30313 		ubfx	r3, r3, #4, #4
  54 001e C95C     		ldrb	r1, [r1, r3]	@ zero_extendqisi2
  55 0020 1368     		ldr	r3, [r2]
  56 0022 CB40     		lsrs	r3, r3, r1
  57 0024 1360     		str	r3, [r2]
  58 0026 7047     		bx	lr
  59              	.L3:
  60 0028 0D4B     		ldr	r3, .L10+16
ARM GAS  /tmp/ccl0iGWc.s 			page 2


  61 002a F3E7     		b	.L8
  62              	.L4:
  63 002c 4B68     		ldr	r3, [r1, #4]
  64 002e 4868     		ldr	r0, [r1, #4]
  65 0030 C3F38343 		ubfx	r3, r3, #18, #4
  66 0034 C003     		lsls	r0, r0, #15
  67 0036 03F10203 		add	r3, r3, #2
  68 003a 02D4     		bmi	.L6
  69 003c 0948     		ldr	r0, .L10+20
  70              	.L9:
  71 003e 4343     		muls	r3, r0, r3
  72 0040 E8E7     		b	.L8
  73              	.L6:
  74 0042 4868     		ldr	r0, [r1, #4]
  75 0044 8003     		lsls	r0, r0, #14
  76 0046 4CBF     		ite	mi
  77 0048 0348     		ldrmi	r0, .L10+8
  78 004a 0548     		ldrpl	r0, .L10+16
  79 004c F7E7     		b	.L9
  80              	.L11:
  81 004e 00BF     		.align	2
  82              	.L10:
  83 0050 00100240 		.word	1073876992
  84 0054 00000000 		.word	.LANCHOR0
  85 0058 00127A00 		.word	8000000
  86 005c 00000000 		.word	.LANCHOR1
  87 0060 0024F400 		.word	16000000
  88 0064 00093D00 		.word	4000000
  90              		.global	APBPrescTable
  91              		.global	AHBPrescTable
  92              		.global	SystemCoreClock
  93              		.section	.data.SystemCoreClock,"aw"
  94              		.align	2
  95              		.set	.LANCHOR0,. + 0
  98              	SystemCoreClock:
  99 0000 0024F400 		.word	16000000
 100              		.section	.rodata.AHBPrescTable,"a"
 101              		.set	.LANCHOR1,. + 0
 104              	AHBPrescTable:
 105 0000 00000000 		.ascii	"\000\000\000\000\000\000\000\000\001\002\003\004\006"
 105      00000000 
 105      01020304 
 105      06
 106 000d 070809   		.ascii	"\007\010\011"
 107              		.section	.rodata.APBPrescTable,"a"
 110              	APBPrescTable:
 111 0000 00000000 		.ascii	"\000\000\000\000\001\002\003\004"
 111      01020304 
 112              		.ident	"GCC: (15:10.3-2021.07-4) 10.3.1 20210621 (release)"
ARM GAS  /tmp/ccl0iGWc.s 			page 3


DEFINED SYMBOLS
                            *ABS*:0000000000000000 system_stm32f1xx.c
     /tmp/ccl0iGWc.s:14     .text.SystemInit:0000000000000000 $t
     /tmp/ccl0iGWc.s:22     .text.SystemInit:0000000000000000 SystemInit
     /tmp/ccl0iGWc.s:29     .text.SystemCoreClockUpdate:0000000000000000 $t
     /tmp/ccl0iGWc.s:36     .text.SystemCoreClockUpdate:0000000000000000 SystemCoreClockUpdate
     /tmp/ccl0iGWc.s:83     .text.SystemCoreClockUpdate:0000000000000050 $d
     /tmp/ccl0iGWc.s:110    .rodata.APBPrescTable:0000000000000000 APBPrescTable
     /tmp/ccl0iGWc.s:104    .rodata.AHBPrescTable:0000000000000000 AHBPrescTable
     /tmp/ccl0iGWc.s:98     .data.SystemCoreClock:0000000000000000 SystemCoreClock
     /tmp/ccl0iGWc.s:94     .data.SystemCoreClock:0000000000000000 $d

NO UNDEFINED SYMBOLS
