ARM GAS  /tmp/cct1GCjt.s 			page 1


   1              		.cpu cortex-m3
   2              		.eabi_attribute 20, 1
   3              		.eabi_attribute 21, 1
   4              		.eabi_attribute 23, 3
   5              		.eabi_attribute 24, 1
   6              		.eabi_attribute 25, 1
   7              		.eabi_attribute 26, 1
   8              		.eabi_attribute 30, 4
   9              		.eabi_attribute 34, 1
  10              		.eabi_attribute 18, 4
  11              		.file	"usb_device.c"
  12              		.text
  13              		.section	.text.usb_clock_init,"ax",%progbits
  14              		.align	1
  15              		.global	usb_clock_init
  16              		.arch armv7-m
  17              		.syntax unified
  18              		.thumb
  19              		.thumb_func
  20              		.fpu softvfp
  22              	usb_clock_init:
  23              		@ args = 0, pretend = 0, frame = 0
  24              		@ frame_needed = 0, uses_anonymous_args = 0
  25              		@ link register save eliminated.
  26 0000 FFF7FEBF 		b	sys_usb_clock_config
  28              		.section	.text.usb_device_init,"ax",%progbits
  29              		.align	1
  30              		.global	usb_device_init
  31              		.syntax unified
  32              		.thumb
  33              		.thumb_func
  34              		.fpu softvfp
  36              	usb_device_init:
  37              		@ args = 0, pretend = 0, frame = 0
  38              		@ frame_needed = 0, uses_anonymous_args = 0
  39 0000 08B5     		push	{r3, lr}
  40 0002 4FF48053 		mov	r3, #4096
  41 0006 1548     		ldr	r0, .L16
  42 0008 0122     		movs	r2, #1
  43 000a 0C21     		movs	r1, #12
  44 000c 4361     		str	r3, [r0, #20]
  45 000e FFF7FEFF 		bl	gpio_pin_init
  46 0012 0520     		movs	r0, #5
  47 0014 FFF7FEFF 		bl	time_delay_ms
  48 0018 FFF7FEFF 		bl	sys_usb_clock_config
  49 001c 0022     		movs	r2, #0
  50 001e 1049     		ldr	r1, .L16+4
  51 0020 1048     		ldr	r0, .L16+8
  52 0022 FFF7FEFF 		bl	USBD_Init
  53 0026 08B1     		cbz	r0, .L3
  54 0028 FFF7FEFF 		bl	Error_Handler
  55              	.L3:
  56 002c 0E49     		ldr	r1, .L16+12
  57 002e 0D48     		ldr	r0, .L16+8
  58 0030 FFF7FEFF 		bl	USBD_RegisterClass
  59 0034 08B1     		cbz	r0, .L4
  60 0036 FFF7FEFF 		bl	Error_Handler
ARM GAS  /tmp/cct1GCjt.s 			page 2


  61              	.L4:
  62 003a 0C49     		ldr	r1, .L16+16
  63 003c 0948     		ldr	r0, .L16+8
  64 003e FFF7FEFF 		bl	USBD_CDC_RegisterInterface
  65 0042 08B1     		cbz	r0, .L5
  66 0044 FFF7FEFF 		bl	Error_Handler
  67              	.L5:
  68 0048 0648     		ldr	r0, .L16+8
  69 004a FFF7FEFF 		bl	USBD_Start
  70 004e 18B1     		cbz	r0, .L2
  71 0050 BDE80840 		pop	{r3, lr}
  72 0054 FFF7FEBF 		b	Error_Handler
  73              	.L2:
  74 0058 08BD     		pop	{r3, pc}
  75              	.L17:
  76 005a 00BF     		.align	2
  77              	.L16:
  78 005c 00080140 		.word	1073809408
  79 0060 00000000 		.word	FS_Desc
  80 0064 00000000 		.word	.LANCHOR0
  81 0068 00000000 		.word	USBD_CDC
  82 006c 00000000 		.word	USBD_Interface_fops_FS
  84              		.section	.text.usb_device_connected,"ax",%progbits
  85              		.align	1
  86              		.global	usb_device_connected
  87              		.syntax unified
  88              		.thumb
  89              		.thumb_func
  90              		.fpu softvfp
  92              	usb_device_connected:
  93              		@ args = 0, pretend = 0, frame = 0
  94              		@ frame_needed = 0, uses_anonymous_args = 0
  95              		@ link register save eliminated.
  96 0000 064B     		ldr	r3, .L21
  97 0002 93F89C22 		ldrb	r2, [r3, #668]	@ zero_extendqisi2
  98 0006 032A     		cmp	r2, #3
  99 0008 05D1     		bne	.L20
 100 000a D3F8BC02 		ldr	r0, [r3, #700]
 101 000e 0038     		subs	r0, r0, #0
 102 0010 18BF     		it	ne
 103 0012 0120     		movne	r0, #1
 104 0014 7047     		bx	lr
 105              	.L20:
 106 0016 0020     		movs	r0, #0
 107 0018 7047     		bx	lr
 108              	.L22:
 109 001a 00BF     		.align	2
 110              	.L21:
 111 001c 00000000 		.word	.LANCHOR0
 113              		.section	.text.USB_LP_CAN1_RX0_IRQHandler,"ax",%progbits
 114              		.align	1
 115              		.global	USB_LP_CAN1_RX0_IRQHandler
 116              		.syntax unified
 117              		.thumb
 118              		.thumb_func
 119              		.fpu softvfp
 121              	USB_LP_CAN1_RX0_IRQHandler:
ARM GAS  /tmp/cct1GCjt.s 			page 3


 122              		@ args = 0, pretend = 0, frame = 0
 123              		@ frame_needed = 0, uses_anonymous_args = 0
 124              		@ link register save eliminated.
 125 0000 0148     		ldr	r0, .L24
 126 0002 FFF7FEBF 		b	HAL_PCD_IRQHandler
 127              	.L25:
 128 0006 00BF     		.align	2
 129              	.L24:
 130 0008 00000000 		.word	hpcd_USB_FS
 132              		.global	hUsbDeviceFS
 133              		.section	.bss.hUsbDeviceFS,"aw",%nobits
 134              		.align	2
 135              		.set	.LANCHOR0,. + 0
 138              	hUsbDeviceFS:
 139 0000 00000000 		.space	720
 139      00000000 
 139      00000000 
 139      00000000 
 139      00000000 
 140              		.ident	"GCC: (15:10.3-2021.07-4) 10.3.1 20210621 (release)"
ARM GAS  /tmp/cct1GCjt.s 			page 4

