ARM GAS  /tmp/cclSm6Og.s 			page 1


   1              		.cpu cortex-m3
   2              		.eabi_attribute 20, 1
   3              		.eabi_attribute 21, 1
   4              		.eabi_attribute 23, 3
   5              		.eabi_attribute 24, 1
   6              		.eabi_attribute 25, 1
   7              		.eabi_attribute 26, 1
   8              		.eabi_attribute 30, 4
   9              		.eabi_attribute 34, 1
  10              		.eabi_attribute 18, 4
  11              		.file	"usbd_ctlreq.c"
  12              		.text
  13              		.section	.text.USBD_CtlError.constprop.0,"ax",%progbits
  14              		.align	1
  15              		.arch armv7-m
  16              		.syntax unified
  17              		.thumb
  18              		.thumb_func
  19              		.fpu softvfp
  21              	USBD_CtlError.constprop.0:
  22              		@ args = 0, pretend = 0, frame = 0
  23              		@ frame_needed = 0, uses_anonymous_args = 0
  24 0000 10B5     		push	{r4, lr}
  25 0002 0446     		mov	r4, r0
  26 0004 8021     		movs	r1, #128
  27 0006 FFF7FEFF 		bl	USBD_LL_StallEP
  28 000a 2046     		mov	r0, r4
  29 000c BDE81040 		pop	{r4, lr}
  30 0010 0021     		movs	r1, #0
  31 0012 FFF7FEBF 		b	USBD_LL_StallEP
  33              		.section	.text.USBD_StdDevReq,"ax",%progbits
  34              		.align	1
  35              		.global	USBD_StdDevReq
  36              		.syntax unified
  37              		.thumb
  38              		.thumb_func
  39              		.fpu softvfp
  41              	USBD_StdDevReq:
  42              		@ args = 0, pretend = 0, frame = 8
  43              		@ frame_needed = 0, uses_anonymous_args = 0
  44 0000 F7B5     		push	{r0, r1, r2, r4, r5, r6, r7, lr}
  45 0002 0D78     		ldrb	r5, [r1]	@ zero_extendqisi2
  46 0004 0446     		mov	r4, r0
  47 0006 05F06005 		and	r5, r5, #96
  48 000a 202D     		cmp	r5, #32
  49 000c 0E46     		mov	r6, r1
  50 000e 14D0     		beq	.L3
  51 0010 402D     		cmp	r5, #64
  52 0012 12D0     		beq	.L3
  53 0014 002D     		cmp	r5, #0
  54 0016 40F00081 		bne	.L5
  55 001a 4F78     		ldrb	r7, [r1, #1]	@ zero_extendqisi2
  56 001c 092F     		cmp	r7, #9
  57 001e 00F2FC80 		bhi	.L5
  58 0022 DFE817F0 		tbh	[pc, r7, lsl #1]
  59              	.L7:
  60 0026 0101     		.2byte	(.L13-.L7)/2
ARM GAS  /tmp/cclSm6Og.s 			page 2


  61 0028 2301     		.2byte	(.L12-.L7)/2
  62 002a FA00     		.2byte	(.L5-.L7)/2
  63 002c 1901     		.2byte	(.L11-.L7)/2
  64 002e FA00     		.2byte	(.L5-.L7)/2
  65 0030 8200     		.2byte	(.L10-.L7)/2
  66 0032 1300     		.2byte	(.L9-.L7)/2
  67 0034 FA00     		.2byte	(.L5-.L7)/2
  68 0036 E900     		.2byte	(.L8-.L7)/2
  69 0038 9E00     		.2byte	(.L6-.L7)/2
  70              		.p2align 1
  71              	.L3:
  72 003a 3146     		mov	r1, r6
  73 003c 2046     		mov	r0, r4
  74 003e D4F8B832 		ldr	r3, [r4, #696]
  75 0042 9B68     		ldr	r3, [r3, #8]
  76 0044 03B0     		add	sp, sp, #12
  77              		@ sp needed
  78 0046 BDE8F040 		pop	{r4, r5, r6, r7, lr}
  79 004a 1847     		bx	r3
  80              	.L9:
  81 004c 0023     		movs	r3, #0
  82 004e ADF80630 		strh	r3, [sp, #6]	@ movhi
  83 0052 4B88     		ldrh	r3, [r1, #2]
  84 0054 1A0A     		lsrs	r2, r3, #8
  85 0056 013A     		subs	r2, r2, #1
  86 0058 062A     		cmp	r2, #6
  87 005a 37D8     		bhi	.L34
  88 005c DFE802F0 		tbb	[pc, r2]
  89              	.L16:
  90 0060 04       		.byte	(.L20-.L16)/2
  91 0061 1C       		.byte	(.L19-.L16)/2
  92 0062 29       		.byte	(.L18-.L16)/2
  93 0063 36       		.byte	(.L34-.L16)/2
  94 0064 36       		.byte	(.L34-.L16)/2
  95 0065 50       		.byte	(.L17-.L16)/2
  96 0066 5A       		.byte	(.L15-.L16)/2
  97 0067 00       		.p2align 1
  98              	.L20:
  99 0068 D0F8B432 		ldr	r3, [r0, #692]
 100 006c 1B68     		ldr	r3, [r3]
 101              	.L90:
 102 006e 207C     		ldrb	r0, [r4, #16]	@ zero_extendqisi2
 103 0070 0DF10601 		add	r1, sp, #6
 104 0074 9847     		blx	r3
 105              	.L21:
 106 0076 F288     		ldrh	r2, [r6, #6]
 107 0078 002A     		cmp	r2, #0
 108 007a 00F0F380 		beq	.L95
 109 007e BDF80630 		ldrh	r3, [sp, #6]
 110 0082 1BB3     		cbz	r3, .L34
 111 0084 9A42     		cmp	r2, r3
 112 0086 28BF     		it	cs
 113 0088 1A46     		movcs	r2, r3
 114 008a 0146     		mov	r1, r0
 115 008c ADF80620 		strh	r2, [sp, #6]	@ movhi
 116              	.L94:
 117 0090 2046     		mov	r0, r4
ARM GAS  /tmp/cclSm6Og.s 			page 3


 118 0092 FFF7FEFF 		bl	USBD_CtlSendData
 119 0096 1CE0     		b	.L32
 120              	.L19:
 121 0098 027C     		ldrb	r2, [r0, #16]	@ zero_extendqisi2
 122 009a D0F8B832 		ldr	r3, [r0, #696]
 123 009e 32B9     		cbnz	r2, .L22
 124 00a0 9B6A     		ldr	r3, [r3, #40]
 125              	.L104:
 126 00a2 0DF10600 		add	r0, sp, #6
 127 00a6 9847     		blx	r3
 128 00a8 0223     		movs	r3, #2
 129              	.L89:
 130 00aa 4370     		strb	r3, [r0, #1]
 131 00ac E3E7     		b	.L21
 132              	.L22:
 133 00ae DB6A     		ldr	r3, [r3, #44]
 134 00b0 F7E7     		b	.L104
 135              	.L18:
 136 00b2 DBB2     		uxtb	r3, r3
 137 00b4 052B     		cmp	r3, #5
 138 00b6 09D8     		bhi	.L34
 139 00b8 DFE803F0 		tbb	[pc, r3]
 140              	.L24:
 141 00bc 03       		.byte	(.L29-.L24)/2
 142 00bd 0E       		.byte	(.L28-.L24)/2
 143 00be 12       		.byte	(.L27-.L24)/2
 144 00bf 16       		.byte	(.L26-.L24)/2
 145 00c0 1A       		.byte	(.L25-.L24)/2
 146 00c1 1E       		.byte	(.L23-.L24)/2
 147              		.p2align 1
 148              	.L29:
 149 00c2 D0F8B432 		ldr	r3, [r0, #692]
 150 00c6 5B68     		ldr	r3, [r3, #4]
 151              	.L99:
 152 00c8 002B     		cmp	r3, #0
 153 00ca D0D1     		bne	.L90
 154              	.L34:
 155 00cc 2046     		mov	r0, r4
 156              	.L91:
 157 00ce FFF7FEFF 		bl	USBD_CtlError.constprop.0
 158              	.L32:
 159 00d2 2846     		mov	r0, r5
 160 00d4 03B0     		add	sp, sp, #12
 161              		@ sp needed
 162 00d6 F0BD     		pop	{r4, r5, r6, r7, pc}
 163              	.L28:
 164 00d8 D0F8B432 		ldr	r3, [r0, #692]
 165 00dc 9B68     		ldr	r3, [r3, #8]
 166 00de F3E7     		b	.L99
 167              	.L27:
 168 00e0 D0F8B432 		ldr	r3, [r0, #692]
 169 00e4 DB68     		ldr	r3, [r3, #12]
 170 00e6 EFE7     		b	.L99
 171              	.L26:
 172 00e8 D0F8B432 		ldr	r3, [r0, #692]
 173 00ec 1B69     		ldr	r3, [r3, #16]
 174 00ee EBE7     		b	.L99
ARM GAS  /tmp/cclSm6Og.s 			page 4


 175              	.L25:
 176 00f0 D0F8B432 		ldr	r3, [r0, #692]
 177 00f4 5B69     		ldr	r3, [r3, #20]
 178 00f6 E7E7     		b	.L99
 179              	.L23:
 180 00f8 D0F8B432 		ldr	r3, [r0, #692]
 181 00fc 9B69     		ldr	r3, [r3, #24]
 182 00fe E3E7     		b	.L99
 183              	.L17:
 184 0100 037C     		ldrb	r3, [r0, #16]	@ zero_extendqisi2
 185 0102 002B     		cmp	r3, #0
 186 0104 E2D1     		bne	.L34
 187 0106 D0F8B832 		ldr	r3, [r0, #696]
 188 010a 0DF10600 		add	r0, sp, #6
 189 010e 5B6B     		ldr	r3, [r3, #52]
 190 0110 9847     		blx	r3
 191 0112 B0E7     		b	.L21
 192              	.L15:
 193 0114 037C     		ldrb	r3, [r0, #16]	@ zero_extendqisi2
 194 0116 002B     		cmp	r3, #0
 195 0118 D8D1     		bne	.L34
 196 011a D0F8B832 		ldr	r3, [r0, #696]
 197 011e 0DF10600 		add	r0, sp, #6
 198 0122 1B6B     		ldr	r3, [r3, #48]
 199 0124 9847     		blx	r3
 200 0126 0723     		movs	r3, #7
 201 0128 BFE7     		b	.L89
 202              	.L10:
 203 012a 8B88     		ldrh	r3, [r1, #4]
 204 012c 002B     		cmp	r3, #0
 205 012e CDD1     		bne	.L34
 206 0130 CB88     		ldrh	r3, [r1, #6]
 207 0132 002B     		cmp	r3, #0
 208 0134 CAD1     		bne	.L34
 209 0136 4E88     		ldrh	r6, [r1, #2]
 210 0138 7F2E     		cmp	r6, #127
 211 013a C7D8     		bhi	.L34
 212 013c 90F89C32 		ldrb	r3, [r0, #668]	@ zero_extendqisi2
 213 0140 032B     		cmp	r3, #3
 214 0142 C3D0     		beq	.L34
 215 0144 F1B2     		uxtb	r1, r6
 216 0146 80F89E12 		strb	r1, [r0, #670]
 217 014a FFF7FEFF 		bl	USBD_LL_SetUSBAddress
 218 014e 2046     		mov	r0, r4
 219 0150 FFF7FEFF 		bl	USBD_CtlSendStatus
 220 0154 1EB1     		cbz	r6, .L36
 221 0156 0223     		movs	r3, #2
 222              	.L93:
 223 0158 84F89C32 		strb	r3, [r4, #668]
 224 015c B9E7     		b	.L32
 225              	.L36:
 226 015e 0123     		movs	r3, #1
 227 0160 FAE7     		b	.L93
 228              	.L6:
 229 0162 8E78     		ldrb	r6, [r1, #2]	@ zero_extendqisi2
 230 0164 474F     		ldr	r7, .L105
 231 0166 012E     		cmp	r6, #1
ARM GAS  /tmp/cclSm6Og.s 			page 5


 232 0168 3E70     		strb	r6, [r7]
 233 016a 03D9     		bls	.L37
 234 016c FFF7FEFF 		bl	USBD_CtlError.constprop.0
 235              	.L96:
 236 0170 0325     		movs	r5, #3
 237 0172 AEE7     		b	.L32
 238              	.L37:
 239 0174 90F89C32 		ldrb	r3, [r0, #668]	@ zero_extendqisi2
 240 0178 022B     		cmp	r3, #2
 241 017a DAB2     		uxtb	r2, r3
 242 017c 08D0     		beq	.L38
 243 017e 032A     		cmp	r2, #3
 244 0180 14D0     		beq	.L39
 245 0182 FFF7FEFF 		bl	USBD_CtlError.constprop.0
 246 0186 2046     		mov	r0, r4
 247 0188 3978     		ldrb	r1, [r7]	@ zero_extendqisi2
 248 018a FFF7FEFF 		bl	USBD_ClrClassConfig
 249 018e EFE7     		b	.L96
 250              	.L38:
 251 0190 002E     		cmp	r6, #0
 252 0192 67D0     		beq	.L95
 253 0194 0121     		movs	r1, #1
 254 0196 4160     		str	r1, [r0, #4]
 255 0198 FFF7FEFF 		bl	USBD_SetClassConfig
 256 019c 0546     		mov	r5, r0
 257 019e 2046     		mov	r0, r4
 258 01a0 002D     		cmp	r5, #0
 259 01a2 94D1     		bne	.L91
 260 01a4 FFF7FEFF 		bl	USBD_CtlSendStatus
 261 01a8 0323     		movs	r3, #3
 262 01aa D5E7     		b	.L93
 263              	.L39:
 264 01ac 5EB9     		cbnz	r6, .L43
 265 01ae 0223     		movs	r3, #2
 266 01b0 3146     		mov	r1, r6
 267 01b2 80F89C32 		strb	r3, [r0, #668]
 268 01b6 4660     		str	r6, [r0, #4]
 269 01b8 FFF7FEFF 		bl	USBD_ClrClassConfig
 270 01bc 2046     		mov	r0, r4
 271 01be FFF7FEFF 		bl	USBD_CtlSendStatus
 272              	.L97:
 273 01c2 3546     		mov	r5, r6
 274 01c4 85E7     		b	.L32
 275              	.L43:
 276 01c6 4168     		ldr	r1, [r0, #4]
 277 01c8 0129     		cmp	r1, #1
 278 01ca 4BD0     		beq	.L95
 279 01cc C9B2     		uxtb	r1, r1
 280 01ce FFF7FEFF 		bl	USBD_ClrClassConfig
 281 01d2 3978     		ldrb	r1, [r7]	@ zero_extendqisi2
 282 01d4 2046     		mov	r0, r4
 283 01d6 6160     		str	r1, [r4, #4]
 284 01d8 FFF7FEFF 		bl	USBD_SetClassConfig
 285 01dc 0646     		mov	r6, r0
 286 01de 0028     		cmp	r0, #0
 287 01e0 40D0     		beq	.L95
 288 01e2 2046     		mov	r0, r4
ARM GAS  /tmp/cclSm6Og.s 			page 6


 289 01e4 FFF7FEFF 		bl	USBD_CtlError.constprop.0
 290 01e8 2046     		mov	r0, r4
 291 01ea 2179     		ldrb	r1, [r4, #4]	@ zero_extendqisi2
 292 01ec FFF7FEFF 		bl	USBD_ClrClassConfig
 293 01f0 0223     		movs	r3, #2
 294 01f2 84F89C32 		strb	r3, [r4, #668]
 295 01f6 E4E7     		b	.L97
 296              	.L8:
 297 01f8 CA88     		ldrh	r2, [r1, #6]
 298 01fa 012A     		cmp	r2, #1
 299 01fc 7FF466AF 		bne	.L34
 300 0200 90F89C12 		ldrb	r1, [r0, #668]	@ zero_extendqisi2
 301 0204 0229     		cmp	r1, #2
 302 0206 CBB2     		uxtb	r3, r1
 303 0208 05D8     		bhi	.L44
 304 020a 33B1     		cbz	r3, .L5
 305 020c 0146     		mov	r1, r0
 306 020e 0023     		movs	r3, #0
 307 0210 41F8083F 		str	r3, [r1, #8]!
 308 0214 3CE7     		b	.L94
 309              	.L44:
 310 0216 032B     		cmp	r3, #3
 311 0218 04D0     		beq	.L46
 312              	.L5:
 313 021a 2046     		mov	r0, r4
 314 021c FFF7FEFF 		bl	USBD_CtlError.constprop.0
 315 0220 0025     		movs	r5, #0
 316 0222 56E7     		b	.L32
 317              	.L46:
 318 0224 011D     		adds	r1, r0, #4
 319 0226 33E7     		b	.L94
 320              	.L13:
 321 0228 90F89C32 		ldrb	r3, [r0, #668]	@ zero_extendqisi2
 322 022c 013B     		subs	r3, r3, #1
 323 022e 022B     		cmp	r3, #2
 324 0230 F3D8     		bhi	.L5
 325 0232 CB88     		ldrh	r3, [r1, #6]
 326 0234 022B     		cmp	r3, #2
 327 0236 7FF449AF 		bne	.L34
 328 023a 0123     		movs	r3, #1
 329 023c C360     		str	r3, [r0, #12]
 330 023e D0F8A432 		ldr	r3, [r0, #676]
 331 0242 0BB1     		cbz	r3, .L47
 332 0244 0323     		movs	r3, #3
 333 0246 C360     		str	r3, [r0, #12]
 334              	.L47:
 335 0248 0222     		movs	r2, #2
 336 024a 2046     		mov	r0, r4
 337 024c 04F10C01 		add	r1, r4, #12
 338 0250 FFF7FEFF 		bl	USBD_CtlSendData
 339 0254 3D46     		mov	r5, r7
 340 0256 3CE7     		b	.L32
 341              	.L11:
 342 0258 4B88     		ldrh	r3, [r1, #2]
 343 025a 012B     		cmp	r3, #1
 344 025c 7FF439AF 		bne	.L32
 345              	.L92:
ARM GAS  /tmp/cclSm6Og.s 			page 7


 346 0260 C4F8A432 		str	r3, [r4, #676]
 347              	.L95:
 348 0264 2046     		mov	r0, r4
 349 0266 FFF7FEFF 		bl	USBD_CtlSendStatus
 350 026a 32E7     		b	.L32
 351              	.L12:
 352 026c 90F89C32 		ldrb	r3, [r0, #668]	@ zero_extendqisi2
 353 0270 013B     		subs	r3, r3, #1
 354 0272 022B     		cmp	r3, #2
 355 0274 D1D8     		bhi	.L5
 356 0276 4B88     		ldrh	r3, [r1, #2]
 357 0278 012B     		cmp	r3, #1
 358 027a 7FF42AAF 		bne	.L32
 359 027e 0023     		movs	r3, #0
 360 0280 EEE7     		b	.L92
 361              	.L106:
 362 0282 00BF     		.align	2
 363              	.L105:
 364 0284 00000000 		.word	.LANCHOR0
 366              		.section	.text.USBD_StdItfReq,"ax",%progbits
 367              		.align	1
 368              		.global	USBD_StdItfReq
 369              		.syntax unified
 370              		.thumb
 371              		.thumb_func
 372              		.fpu softvfp
 374              	USBD_StdItfReq:
 375              		@ args = 0, pretend = 0, frame = 0
 376              		@ frame_needed = 0, uses_anonymous_args = 0
 377 0000 70B5     		push	{r4, r5, r6, lr}
 378 0002 0B78     		ldrb	r3, [r1]	@ zero_extendqisi2
 379 0004 0446     		mov	r4, r0
 380 0006 03F06002 		and	r2, r3, #96
 381 000a 402A     		cmp	r2, #64
 382 000c 0E46     		mov	r6, r1
 383 000e 01D0     		beq	.L108
 384 0010 5B06     		lsls	r3, r3, #25
 385 0012 16D4     		bmi	.L109
 386              	.L108:
 387 0014 94F89C32 		ldrb	r3, [r4, #668]	@ zero_extendqisi2
 388 0018 013B     		subs	r3, r3, #1
 389 001a 022B     		cmp	r3, #2
 390 001c 11D8     		bhi	.L109
 391 001e 3379     		ldrb	r3, [r6, #4]	@ zero_extendqisi2
 392 0020 012B     		cmp	r3, #1
 393 0022 0ED8     		bhi	.L109
 394 0024 D4F8B832 		ldr	r3, [r4, #696]
 395 0028 3146     		mov	r1, r6
 396 002a 9B68     		ldr	r3, [r3, #8]
 397 002c 2046     		mov	r0, r4
 398 002e 9847     		blx	r3
 399 0030 F388     		ldrh	r3, [r6, #6]
 400 0032 0546     		mov	r5, r0
 401 0034 1BB9     		cbnz	r3, .L111
 402 0036 10B9     		cbnz	r0, .L111
 403 0038 2046     		mov	r0, r4
 404 003a FFF7FEFF 		bl	USBD_CtlSendStatus
ARM GAS  /tmp/cclSm6Og.s 			page 8


 405              	.L111:
 406 003e 2846     		mov	r0, r5
 407 0040 70BD     		pop	{r4, r5, r6, pc}
 408              	.L109:
 409 0042 2046     		mov	r0, r4
 410 0044 FFF7FEFF 		bl	USBD_CtlError.constprop.0
 411 0048 0025     		movs	r5, #0
 412 004a F8E7     		b	.L111
 414              		.section	.text.USBD_StdEPReq,"ax",%progbits
 415              		.align	1
 416              		.global	USBD_StdEPReq
 417              		.syntax unified
 418              		.thumb
 419              		.thumb_func
 420              		.fpu softvfp
 422              	USBD_StdEPReq:
 423              		@ args = 0, pretend = 0, frame = 0
 424              		@ frame_needed = 0, uses_anonymous_args = 0
 425 0000 70B5     		push	{r4, r5, r6, lr}
 426 0002 0B78     		ldrb	r3, [r1]	@ zero_extendqisi2
 427 0004 0446     		mov	r4, r0
 428 0006 03F06003 		and	r3, r3, #96
 429 000a 202B     		cmp	r3, #32
 430 000c 0D46     		mov	r5, r1
 431 000e 52D0     		beq	.L170
 432 0010 402B     		cmp	r3, #64
 433 0012 50D0     		beq	.L170
 434 0014 6BBB     		cbnz	r3, .L118
 435 0016 6B78     		ldrb	r3, [r5, #1]	@ zero_extendqisi2
 436 0018 8A88     		ldrh	r2, [r1, #4]
 437 001a 012B     		cmp	r3, #1
 438 001c 0979     		ldrb	r1, [r1, #4]	@ zero_extendqisi2
 439 001e 39D0     		beq	.L119
 440 0020 032B     		cmp	r3, #3
 441 0022 1FD0     		beq	.L120
 442 0024 2BBB     		cbnz	r3, .L118
 443 0026 90F89C32 		ldrb	r3, [r0, #668]	@ zero_extendqisi2
 444 002a 022B     		cmp	r3, #2
 445 002c D8B2     		uxtb	r0, r3
 446 002e 53D0     		beq	.L130
 447 0030 0328     		cmp	r0, #3
 448 0032 1ED1     		bne	.L118
 449 0034 12F0800F 		tst	r2, #128
 450 0038 4FF01402 		mov	r2, #20
 451 003c 01F00F03 		and	r3, r1, #15
 452 0040 02FB0343 		mla	r3, r2, r3, r4
 453 0044 59D0     		beq	.L134
 454 0046 9B8C     		ldrh	r3, [r3, #36]
 455 0048 9BB1     		cbz	r3, .L118
 456 004a 1423     		movs	r3, #20
 457 004c 01F07F05 		and	r5, r1, #127
 458 0050 05FB0333 		mla	r3, r5, r3, r3
 459 0054 E518     		adds	r5, r4, r3
 460              	.L137:
 461 0056 11F07F03 		ands	r3, r1, #127
 462 005a 5AD1     		bne	.L138
 463              	.L167:
ARM GAS  /tmp/cclSm6Og.s 			page 9


 464 005c 2B60     		str	r3, [r5]
 465              	.L139:
 466 005e 0222     		movs	r2, #2
 467 0060 2946     		mov	r1, r5
 468 0062 46E0     		b	.L169
 469              	.L120:
 470 0064 90F89C32 		ldrb	r3, [r0, #668]	@ zero_extendqisi2
 471 0068 022B     		cmp	r3, #2
 472 006a DAB2     		uxtb	r2, r3
 473 006c 2BD0     		beq	.L127
 474 006e 032A     		cmp	r2, #3
 475 0070 03D0     		beq	.L123
 476              	.L118:
 477 0072 2046     		mov	r0, r4
 478 0074 FFF7FEFF 		bl	USBD_CtlError.constprop.0
 479 0078 0AE0     		b	.L125
 480              	.L123:
 481 007a 6B88     		ldrh	r3, [r5, #2]
 482 007c 2BB9     		cbnz	r3, .L126
 483 007e 4A06     		lsls	r2, r1, #25
 484 0080 03D0     		beq	.L126
 485 0082 EB88     		ldrh	r3, [r5, #6]
 486 0084 0BB9     		cbnz	r3, .L126
 487 0086 FFF7FEFF 		bl	USBD_LL_StallEP
 488              	.L126:
 489 008a 2046     		mov	r0, r4
 490 008c FFF7FEFF 		bl	USBD_CtlSendStatus
 491              	.L125:
 492 0090 0020     		movs	r0, #0
 493 0092 70BD     		pop	{r4, r5, r6, pc}
 494              	.L119:
 495 0094 90F89C32 		ldrb	r3, [r0, #668]	@ zero_extendqisi2
 496 0098 022B     		cmp	r3, #2
 497 009a DAB2     		uxtb	r2, r3
 498 009c 13D0     		beq	.L127
 499 009e 032A     		cmp	r2, #3
 500 00a0 E7D1     		bne	.L118
 501 00a2 6B88     		ldrh	r3, [r5, #2]
 502 00a4 002B     		cmp	r3, #0
 503 00a6 F3D1     		bne	.L125
 504 00a8 4E06     		lsls	r6, r1, #25
 505 00aa 01D0     		beq	.L129
 506 00ac FFF7FEFF 		bl	USBD_LL_ClearStallEP
 507              	.L129:
 508 00b0 2046     		mov	r0, r4
 509 00b2 FFF7FEFF 		bl	USBD_CtlSendStatus
 510              	.L170:
 511 00b6 D4F8B832 		ldr	r3, [r4, #696]
 512 00ba 2946     		mov	r1, r5
 513 00bc 2046     		mov	r0, r4
 514 00be BDE87040 		pop	{r4, r5, r6, lr}
 515 00c2 9B68     		ldr	r3, [r3, #8]
 516 00c4 1847     		bx	r3
 517              	.L127:
 518 00c6 4B06     		lsls	r3, r1, #25
 519 00c8 D3D0     		beq	.L118
 520 00ca FFF7FEFF 		bl	USBD_LL_StallEP
ARM GAS  /tmp/cclSm6Og.s 			page 10


 521 00ce 8021     		movs	r1, #128
 522 00d0 2046     		mov	r0, r4
 523 00d2 FFF7FEFF 		bl	USBD_LL_StallEP
 524 00d6 DBE7     		b	.L125
 525              	.L130:
 526 00d8 4906     		lsls	r1, r1, #25
 527 00da CAD1     		bne	.L118
 528 00dc 1306     		lsls	r3, r2, #24
 529 00de 4FF00003 		mov	r3, #0
 530 00e2 4FF00202 		mov	r2, #2
 531 00e6 4CBF     		ite	mi
 532 00e8 04F11401 		addmi	r1, r4, #20
 533 00ec 04F5AA71 		addpl	r1, r4, #340
 534 00f0 0B60     		str	r3, [r1]
 535              	.L169:
 536 00f2 2046     		mov	r0, r4
 537 00f4 FFF7FEFF 		bl	USBD_CtlSendData
 538 00f8 CAE7     		b	.L125
 539              	.L134:
 540 00fa B3F86431 		ldrh	r3, [r3, #356]
 541 00fe 002B     		cmp	r3, #0
 542 0100 B7D0     		beq	.L118
 543 0102 1423     		movs	r3, #20
 544 0104 01F07F05 		and	r5, r1, #127
 545 0108 03FB0545 		mla	r5, r3, r5, r4
 546 010c 05F5AA75 		add	r5, r5, #340
 547 0110 A1E7     		b	.L137
 548              	.L138:
 549 0112 2046     		mov	r0, r4
 550 0114 FFF7FEFF 		bl	USBD_LL_IsStallEP
 551 0118 08B1     		cbz	r0, .L140
 552 011a 0123     		movs	r3, #1
 553 011c 9EE7     		b	.L167
 554              	.L140:
 555 011e 2860     		str	r0, [r5]
 556 0120 9DE7     		b	.L139
 558              		.section	.text.USBD_ParseSetupRequest,"ax",%progbits
 559              		.align	1
 560              		.global	USBD_ParseSetupRequest
 561              		.syntax unified
 562              		.thumb
 563              		.thumb_func
 564              		.fpu softvfp
 566              	USBD_ParseSetupRequest:
 567              		@ args = 0, pretend = 0, frame = 0
 568              		@ frame_needed = 0, uses_anonymous_args = 0
 569              		@ link register save eliminated.
 570 0000 0B78     		ldrb	r3, [r1]	@ zero_extendqisi2
 571 0002 0370     		strb	r3, [r0]
 572 0004 4B78     		ldrb	r3, [r1, #1]	@ zero_extendqisi2
 573 0006 4370     		strb	r3, [r0, #1]
 574 0008 4B88     		ldrh	r3, [r1, #2]	@ unaligned
 575 000a 4380     		strh	r3, [r0, #2]	@ movhi
 576 000c 8B88     		ldrh	r3, [r1, #4]	@ unaligned
 577 000e 8380     		strh	r3, [r0, #4]	@ movhi
 578 0010 CB88     		ldrh	r3, [r1, #6]	@ unaligned
 579 0012 C380     		strh	r3, [r0, #6]	@ movhi
ARM GAS  /tmp/cclSm6Og.s 			page 11


 580 0014 7047     		bx	lr
 582              		.section	.text.USBD_CtlError,"ax",%progbits
 583              		.align	1
 584              		.global	USBD_CtlError
 585              		.syntax unified
 586              		.thumb
 587              		.thumb_func
 588              		.fpu softvfp
 590              	USBD_CtlError:
 591              		@ args = 0, pretend = 0, frame = 0
 592              		@ frame_needed = 0, uses_anonymous_args = 0
 593 0000 10B5     		push	{r4, lr}
 594 0002 0446     		mov	r4, r0
 595 0004 8021     		movs	r1, #128
 596 0006 FFF7FEFF 		bl	USBD_LL_StallEP
 597 000a 2046     		mov	r0, r4
 598 000c BDE81040 		pop	{r4, lr}
 599 0010 0021     		movs	r1, #0
 600 0012 FFF7FEBF 		b	USBD_LL_StallEP
 602              		.section	.text.USBD_GetString,"ax",%progbits
 603              		.align	1
 604              		.global	USBD_GetString
 605              		.syntax unified
 606              		.thumb
 607              		.thumb_func
 608              		.fpu softvfp
 610              	USBD_GetString:
 611              		@ args = 0, pretend = 0, frame = 0
 612              		@ frame_needed = 0, uses_anonymous_args = 0
 613 0000 30B5     		push	{r4, r5, lr}
 614 0002 88B1     		cbz	r0, .L174
 615 0004 0024     		movs	r4, #0
 616 0006 0138     		subs	r0, r0, #1
 617              	.L175:
 618 0008 2346     		mov	r3, r4
 619 000a 0134     		adds	r4, r4, #1
 620 000c 055D     		ldrb	r5, [r0, r4]	@ zero_extendqisi2
 621 000e 002D     		cmp	r5, #0
 622 0010 FAD1     		bne	.L175
 623 0012 DBB2     		uxtb	r3, r3
 624 0014 0133     		adds	r3, r3, #1
 625 0016 5B00     		lsls	r3, r3, #1
 626 0018 1380     		strh	r3, [r2]	@ movhi
 627 001a 0B70     		strb	r3, [r1]
 628 001c 0323     		movs	r3, #3
 629 001e 4B70     		strb	r3, [r1, #1]
 630 0020 0223     		movs	r3, #2
 631              	.L176:
 632 0022 10F8012F 		ldrb	r2, [r0, #1]!	@ zero_extendqisi2
 633 0026 02B9     		cbnz	r2, .L177
 634              	.L174:
 635 0028 30BD     		pop	{r4, r5, pc}
 636              	.L177:
 637 002a CA54     		strb	r2, [r1, r3]
 638 002c 5A1C     		adds	r2, r3, #1
 639 002e D2B2     		uxtb	r2, r2
 640 0030 0233     		adds	r3, r3, #2
ARM GAS  /tmp/cclSm6Og.s 			page 12


 641 0032 8D54     		strb	r5, [r1, r2]
 642 0034 DBB2     		uxtb	r3, r3
 643 0036 F4E7     		b	.L176
 645              		.section	.bss.cfgidx.0,"aw",%nobits
 646              		.set	.LANCHOR0,. + 0
 649              	cfgidx.0:
 650 0000 00       		.space	1
 651              		.ident	"GCC: (15:10.3-2021.07-4) 10.3.1 20210621 (release)"
ARM GAS  /tmp/cclSm6Og.s 			page 13

