ARM GAS  /tmp/ccUwt3Kj.s 			page 1


   1              		.cpu cortex-m3
   2              		.eabi_attribute 20, 1
   3              		.eabi_attribute 21, 1
   4              		.eabi_attribute 23, 3
   5              		.eabi_attribute 24, 1
   6              		.eabi_attribute 25, 1
   7              		.eabi_attribute 26, 1
   8              		.eabi_attribute 30, 4
   9              		.eabi_attribute 34, 1
  10              		.eabi_attribute 18, 4
  11              		.file	"usbd_ioreq.c"
  12              		.text
  13              		.section	.text.USBD_CtlSendData,"ax",%progbits
  14              		.align	1
  15              		.global	USBD_CtlSendData
  16              		.arch armv7-m
  17              		.syntax unified
  18              		.thumb
  19              		.thumb_func
  20              		.fpu softvfp
  22              	USBD_CtlSendData:
  23              		@ args = 0, pretend = 0, frame = 0
  24              		@ frame_needed = 0, uses_anonymous_args = 0
  25 0000 1346     		mov	r3, r2
  26 0002 0222     		movs	r2, #2
  27 0004 10B5     		push	{r4, lr}
  28 0006 C0E90633 		strd	r3, r3, [r0, #24]
  29 000a C0F89422 		str	r2, [r0, #660]
  30 000e 0A46     		mov	r2, r1
  31 0010 0021     		movs	r1, #0
  32 0012 FFF7FEFF 		bl	USBD_LL_Transmit
  33 0016 0020     		movs	r0, #0
  34 0018 10BD     		pop	{r4, pc}
  36              		.section	.text.USBD_CtlContinueSendData,"ax",%progbits
  37              		.align	1
  38              		.global	USBD_CtlContinueSendData
  39              		.syntax unified
  40              		.thumb
  41              		.thumb_func
  42              		.fpu softvfp
  44              	USBD_CtlContinueSendData:
  45              		@ args = 0, pretend = 0, frame = 0
  46              		@ frame_needed = 0, uses_anonymous_args = 0
  47 0000 08B5     		push	{r3, lr}
  48 0002 1346     		mov	r3, r2
  49 0004 0A46     		mov	r2, r1
  50 0006 0021     		movs	r1, #0
  51 0008 FFF7FEFF 		bl	USBD_LL_Transmit
  52 000c 0020     		movs	r0, #0
  53 000e 08BD     		pop	{r3, pc}
  55              		.section	.text.USBD_CtlPrepareRx,"ax",%progbits
  56              		.align	1
  57              		.global	USBD_CtlPrepareRx
  58              		.syntax unified
  59              		.thumb
  60              		.thumb_func
  61              		.fpu softvfp
ARM GAS  /tmp/ccUwt3Kj.s 			page 2


  63              	USBD_CtlPrepareRx:
  64              		@ args = 0, pretend = 0, frame = 0
  65              		@ frame_needed = 0, uses_anonymous_args = 0
  66 0000 1346     		mov	r3, r2
  67 0002 0322     		movs	r2, #3
  68 0004 10B5     		push	{r4, lr}
  69 0006 C0E95633 		strd	r3, r3, [r0, #344]
  70 000a C0F89422 		str	r2, [r0, #660]
  71 000e 0A46     		mov	r2, r1
  72 0010 0021     		movs	r1, #0
  73 0012 FFF7FEFF 		bl	USBD_LL_PrepareReceive
  74 0016 0020     		movs	r0, #0
  75 0018 10BD     		pop	{r4, pc}
  77              		.section	.text.USBD_CtlContinueRx,"ax",%progbits
  78              		.align	1
  79              		.global	USBD_CtlContinueRx
  80              		.syntax unified
  81              		.thumb
  82              		.thumb_func
  83              		.fpu softvfp
  85              	USBD_CtlContinueRx:
  86              		@ args = 0, pretend = 0, frame = 0
  87              		@ frame_needed = 0, uses_anonymous_args = 0
  88 0000 08B5     		push	{r3, lr}
  89 0002 1346     		mov	r3, r2
  90 0004 0A46     		mov	r2, r1
  91 0006 0021     		movs	r1, #0
  92 0008 FFF7FEFF 		bl	USBD_LL_PrepareReceive
  93 000c 0020     		movs	r0, #0
  94 000e 08BD     		pop	{r3, pc}
  96              		.section	.text.USBD_CtlSendStatus,"ax",%progbits
  97              		.align	1
  98              		.global	USBD_CtlSendStatus
  99              		.syntax unified
 100              		.thumb
 101              		.thumb_func
 102              		.fpu softvfp
 104              	USBD_CtlSendStatus:
 105              		@ args = 0, pretend = 0, frame = 0
 106              		@ frame_needed = 0, uses_anonymous_args = 0
 107 0000 08B5     		push	{r3, lr}
 108 0002 0422     		movs	r2, #4
 109 0004 0023     		movs	r3, #0
 110 0006 C0F89422 		str	r2, [r0, #660]
 111 000a 1946     		mov	r1, r3
 112 000c 1A46     		mov	r2, r3
 113 000e FFF7FEFF 		bl	USBD_LL_Transmit
 114 0012 0020     		movs	r0, #0
 115 0014 08BD     		pop	{r3, pc}
 117              		.section	.text.USBD_CtlReceiveStatus,"ax",%progbits
 118              		.align	1
 119              		.global	USBD_CtlReceiveStatus
 120              		.syntax unified
 121              		.thumb
 122              		.thumb_func
 123              		.fpu softvfp
 125              	USBD_CtlReceiveStatus:
ARM GAS  /tmp/ccUwt3Kj.s 			page 3


 126              		@ args = 0, pretend = 0, frame = 0
 127              		@ frame_needed = 0, uses_anonymous_args = 0
 128 0000 08B5     		push	{r3, lr}
 129 0002 0522     		movs	r2, #5
 130 0004 0023     		movs	r3, #0
 131 0006 C0F89422 		str	r2, [r0, #660]
 132 000a 1946     		mov	r1, r3
 133 000c 1A46     		mov	r2, r3
 134 000e FFF7FEFF 		bl	USBD_LL_PrepareReceive
 135 0012 0020     		movs	r0, #0
 136 0014 08BD     		pop	{r3, pc}
 138              		.section	.text.USBD_GetRxCount,"ax",%progbits
 139              		.align	1
 140              		.global	USBD_GetRxCount
 141              		.syntax unified
 142              		.thumb
 143              		.thumb_func
 144              		.fpu softvfp
 146              	USBD_GetRxCount:
 147              		@ args = 0, pretend = 0, frame = 0
 148              		@ frame_needed = 0, uses_anonymous_args = 0
 149              		@ link register save eliminated.
 150 0000 FFF7FEBF 		b	USBD_LL_GetRxDataSize
 152              		.ident	"GCC: (15:10.3-2021.07-4) 10.3.1 20210621 (release)"
ARM GAS  /tmp/ccUwt3Kj.s 			page 4

