ARM GAS  /tmp/ccP9VA4z.s 			page 1


   1              		.cpu cortex-m3
   2              		.eabi_attribute 20, 1
   3              		.eabi_attribute 21, 1
   4              		.eabi_attribute 23, 3
   5              		.eabi_attribute 24, 1
   6              		.eabi_attribute 25, 1
   7              		.eabi_attribute 26, 1
   8              		.eabi_attribute 30, 4
   9              		.eabi_attribute 34, 1
  10              		.eabi_attribute 18, 4
  11              		.file	"usbd_cdc_if.c"
  12              		.text
  13              		.section	.text.CDC_DeInit_FS,"ax",%progbits
  14              		.align	1
  15              		.arch armv7-m
  16              		.syntax unified
  17              		.thumb
  18              		.thumb_func
  19              		.fpu softvfp
  21              	CDC_DeInit_FS:
  22              		@ args = 0, pretend = 0, frame = 0
  23              		@ frame_needed = 0, uses_anonymous_args = 0
  24              		@ link register save eliminated.
  25 0000 0020     		movs	r0, #0
  26 0002 7047     		bx	lr
  28              		.section	.text.CDC_Control_FS,"ax",%progbits
  29              		.align	1
  30              		.syntax unified
  31              		.thumb
  32              		.thumb_func
  33              		.fpu softvfp
  35              	CDC_Control_FS:
  36              		@ args = 0, pretend = 0, frame = 0
  37              		@ frame_needed = 0, uses_anonymous_args = 0
  38              		@ link register save eliminated.
  39 0000 0020     		movs	r0, #0
  40 0002 7047     		bx	lr
  42              		.section	.text.CDC_Receive_FS,"ax",%progbits
  43              		.align	1
  44              		.syntax unified
  45              		.thumb
  46              		.thumb_func
  47              		.fpu softvfp
  49              	CDC_Receive_FS:
  50              		@ args = 0, pretend = 0, frame = 0
  51              		@ frame_needed = 0, uses_anonymous_args = 0
  52 0000 074B     		ldr	r3, .L8
  53 0002 10B5     		push	{r4, lr}
  54 0004 1B68     		ldr	r3, [r3]
  55 0006 0446     		mov	r4, r0
  56 0008 0BB1     		cbz	r3, .L4
  57 000a 0968     		ldr	r1, [r1]
  58 000c 9847     		blx	r3
  59              	.L4:
  60 000e 2146     		mov	r1, r4
  61 0010 0448     		ldr	r0, .L8+4
  62 0012 FFF7FEFF 		bl	USBD_CDC_SetRxBuffer
ARM GAS  /tmp/ccP9VA4z.s 			page 2


  63 0016 0348     		ldr	r0, .L8+4
  64 0018 FFF7FEFF 		bl	USBD_CDC_ReceivePacket
  65 001c 0020     		movs	r0, #0
  66 001e 10BD     		pop	{r4, pc}
  67              	.L9:
  68              		.align	2
  69              	.L8:
  70 0020 00000000 		.word	.LANCHOR0
  71 0024 00000000 		.word	hUsbDeviceFS
  73              		.section	.text.CDC_Init_FS,"ax",%progbits
  74              		.align	1
  75              		.syntax unified
  76              		.thumb
  77              		.thumb_func
  78              		.fpu softvfp
  80              	CDC_Init_FS:
  81              		@ args = 0, pretend = 0, frame = 0
  82              		@ frame_needed = 0, uses_anonymous_args = 0
  83 0000 10B5     		push	{r4, lr}
  84 0002 064C     		ldr	r4, .L11
  85 0004 0022     		movs	r2, #0
  86 0006 2046     		mov	r0, r4
  87 0008 0549     		ldr	r1, .L11+4
  88 000a FFF7FEFF 		bl	USBD_CDC_SetTxBuffer
  89 000e 2046     		mov	r0, r4
  90 0010 0449     		ldr	r1, .L11+8
  91 0012 FFF7FEFF 		bl	USBD_CDC_SetRxBuffer
  92 0016 0020     		movs	r0, #0
  93 0018 10BD     		pop	{r4, pc}
  94              	.L12:
  95 001a 00BF     		.align	2
  96              	.L11:
  97 001c 00000000 		.word	hUsbDeviceFS
  98 0020 00000000 		.word	.LANCHOR1
  99 0024 00000000 		.word	.LANCHOR2
 101              		.section	.text.usbd_cdc_rx_init,"ax",%progbits
 102              		.align	1
 103              		.global	usbd_cdc_rx_init
 104              		.syntax unified
 105              		.thumb
 106              		.thumb_func
 107              		.fpu softvfp
 109              	usbd_cdc_rx_init:
 110              		@ args = 0, pretend = 0, frame = 0
 111              		@ frame_needed = 0, uses_anonymous_args = 0
 112              		@ link register save eliminated.
 113 0000 014B     		ldr	r3, .L14
 114 0002 1860     		str	r0, [r3]
 115 0004 0020     		movs	r0, #0
 116 0006 7047     		bx	lr
 117              	.L15:
 118              		.align	2
 119              	.L14:
 120 0008 00000000 		.word	.LANCHOR0
 122              		.section	.text.usbd_cdc_tx,"ax",%progbits
 123              		.align	1
 124              		.global	usbd_cdc_tx
ARM GAS  /tmp/ccP9VA4z.s 			page 3


 125              		.syntax unified
 126              		.thumb
 127              		.thumb_func
 128              		.fpu softvfp
 130              	usbd_cdc_tx:
 131              		@ args = 0, pretend = 0, frame = 0
 132              		@ frame_needed = 0, uses_anonymous_args = 0
 133 0000 10B5     		push	{r4, lr}
 134 0002 094C     		ldr	r4, .L18
 135 0004 0A46     		mov	r2, r1
 136 0006 D4F8BC32 		ldr	r3, [r4, #700]
 137 000a D3F81432 		ldr	r3, [r3, #532]
 138 000e 43B9     		cbnz	r3, .L17
 139 0010 0146     		mov	r1, r0
 140 0012 2046     		mov	r0, r4
 141 0014 FFF7FEFF 		bl	USBD_CDC_SetTxBuffer
 142 0018 2046     		mov	r0, r4
 143 001a BDE81040 		pop	{r4, lr}
 144 001e FFF7FEBF 		b	USBD_CDC_TransmitPacket
 145              	.L17:
 146 0022 0120     		movs	r0, #1
 147 0024 10BD     		pop	{r4, pc}
 148              	.L19:
 149 0026 00BF     		.align	2
 150              	.L18:
 151 0028 00000000 		.word	hUsbDeviceFS
 153              		.section	.text.usbd_cdc_tx_busy,"ax",%progbits
 154              		.align	1
 155              		.global	usbd_cdc_tx_busy
 156              		.syntax unified
 157              		.thumb
 158              		.thumb_func
 159              		.fpu softvfp
 161              	usbd_cdc_tx_busy:
 162              		@ args = 0, pretend = 0, frame = 0
 163              		@ frame_needed = 0, uses_anonymous_args = 0
 164              		@ link register save eliminated.
 165 0000 044B     		ldr	r3, .L21
 166 0002 D3F8BC32 		ldr	r3, [r3, #700]
 167 0006 D3F81402 		ldr	r0, [r3, #532]
 168 000a 0038     		subs	r0, r0, #0
 169 000c 18BF     		it	ne
 170 000e 0120     		movne	r0, #1
 171 0010 7047     		bx	lr
 172              	.L22:
 173 0012 00BF     		.align	2
 174              	.L21:
 175 0014 00000000 		.word	hUsbDeviceFS
 177              		.global	USBD_Interface_fops_FS
 178              		.global	UserTxBufferFS
 179              		.global	UserRxBufferFS
 180              		.section	.bss.UserRxBufferFS,"aw",%nobits
 181              		.set	.LANCHOR2,. + 0
 184              	UserRxBufferFS:
 185 0000 00000000 		.space	1000
 185      00000000 
 185      00000000 
ARM GAS  /tmp/ccP9VA4z.s 			page 4


 185      00000000 
 185      00000000 
 186              		.section	.bss.UserTxBufferFS,"aw",%nobits
 187              		.set	.LANCHOR1,. + 0
 190              	UserTxBufferFS:
 191 0000 00000000 		.space	1000
 191      00000000 
 191      00000000 
 191      00000000 
 191      00000000 
 192              		.section	.bss._rx_handler,"aw",%nobits
 193              		.align	2
 194              		.set	.LANCHOR0,. + 0
 197              	_rx_handler:
 198 0000 00000000 		.space	4
 199              		.section	.data.USBD_Interface_fops_FS,"aw"
 200              		.align	2
 203              	USBD_Interface_fops_FS:
 204 0000 00000000 		.word	CDC_Init_FS
 205 0004 00000000 		.word	CDC_DeInit_FS
 206 0008 00000000 		.word	CDC_Control_FS
 207 000c 00000000 		.word	CDC_Receive_FS
 208 0010 00000000 		.space	4
 209              		.ident	"GCC: (15:10.3-2021.07-4) 10.3.1 20210621 (release)"
ARM GAS  /tmp/ccP9VA4z.s 			page 5

