ARM GAS  /tmp/ccgNOB5Q.s 			page 1


   1              		.cpu cortex-m3
   2              		.eabi_attribute 20, 1
   3              		.eabi_attribute 21, 1
   4              		.eabi_attribute 23, 3
   5              		.eabi_attribute 24, 1
   6              		.eabi_attribute 25, 1
   7              		.eabi_attribute 26, 1
   8              		.eabi_attribute 30, 4
   9              		.eabi_attribute 34, 1
  10              		.eabi_attribute 18, 4
  11              		.file	"usbd_cdc.c"
  12              		.text
  13              		.section	.text.USBD_CDC_EP0_RxReady,"ax",%progbits
  14              		.align	1
  15              		.arch armv7-m
  16              		.syntax unified
  17              		.thumb
  18              		.thumb_func
  19              		.fpu softvfp
  21              	USBD_CDC_EP0_RxReady:
  22              		@ args = 0, pretend = 0, frame = 0
  23              		@ frame_needed = 0, uses_anonymous_args = 0
  24 0000 10B5     		push	{r4, lr}
  25 0002 D0F8BC42 		ldr	r4, [r0, #700]
  26 0006 84B1     		cbz	r4, .L3
  27 0008 D0F8C032 		ldr	r3, [r0, #704]
  28 000c 5BB1     		cbz	r3, .L5
  29 000e 94F80002 		ldrb	r0, [r4, #512]	@ zero_extendqisi2
  30 0012 FF28     		cmp	r0, #255
  31 0014 07D0     		beq	.L5
  32 0016 9B68     		ldr	r3, [r3, #8]
  33 0018 2146     		mov	r1, r4
  34 001a 94F80122 		ldrb	r2, [r4, #513]	@ zero_extendqisi2
  35 001e 9847     		blx	r3
  36 0020 FF23     		movs	r3, #255
  37 0022 84F80032 		strb	r3, [r4, #512]
  38              	.L5:
  39 0026 0020     		movs	r0, #0
  40 0028 00E0     		b	.L2
  41              	.L3:
  42 002a 0320     		movs	r0, #3
  43              	.L2:
  44 002c 10BD     		pop	{r4, pc}
  46              		.section	.text.USBD_CDC_GetFSCfgDesc,"ax",%progbits
  47              		.align	1
  48              		.syntax unified
  49              		.thumb
  50              		.thumb_func
  51              		.fpu softvfp
  53              	USBD_CDC_GetFSCfgDesc:
  54              		@ args = 0, pretend = 0, frame = 0
  55              		@ frame_needed = 0, uses_anonymous_args = 0
  56              		@ link register save eliminated.
  57 0000 4323     		movs	r3, #67
  58 0002 0380     		strh	r3, [r0]	@ movhi
  59 0004 0048     		ldr	r0, .L7
  60 0006 7047     		bx	lr
ARM GAS  /tmp/ccgNOB5Q.s 			page 2


  61              	.L8:
  62              		.align	2
  63              	.L7:
  64 0008 00000000 		.word	.LANCHOR0
  66              		.section	.text.USBD_CDC_GetHSCfgDesc,"ax",%progbits
  67              		.align	1
  68              		.syntax unified
  69              		.thumb
  70              		.thumb_func
  71              		.fpu softvfp
  73              	USBD_CDC_GetHSCfgDesc:
  74              		@ args = 0, pretend = 0, frame = 0
  75              		@ frame_needed = 0, uses_anonymous_args = 0
  76              		@ link register save eliminated.
  77 0000 4323     		movs	r3, #67
  78 0002 0380     		strh	r3, [r0]	@ movhi
  79 0004 0048     		ldr	r0, .L10
  80 0006 7047     		bx	lr
  81              	.L11:
  82              		.align	2
  83              	.L10:
  84 0008 00000000 		.word	.LANCHOR1
  86              		.section	.text.USBD_CDC_GetOtherSpeedCfgDesc,"ax",%progbits
  87              		.align	1
  88              		.syntax unified
  89              		.thumb
  90              		.thumb_func
  91              		.fpu softvfp
  93              	USBD_CDC_GetOtherSpeedCfgDesc:
  94              		@ args = 0, pretend = 0, frame = 0
  95              		@ frame_needed = 0, uses_anonymous_args = 0
  96              		@ link register save eliminated.
  97 0000 4323     		movs	r3, #67
  98 0002 0380     		strh	r3, [r0]	@ movhi
  99 0004 0048     		ldr	r0, .L13
 100 0006 7047     		bx	lr
 101              	.L14:
 102              		.align	2
 103              	.L13:
 104 0008 00000000 		.word	.LANCHOR2
 106              		.section	.text.USBD_CDC_GetDeviceQualifierDescriptor,"ax",%progbits
 107              		.align	1
 108              		.global	USBD_CDC_GetDeviceQualifierDescriptor
 109              		.syntax unified
 110              		.thumb
 111              		.thumb_func
 112              		.fpu softvfp
 114              	USBD_CDC_GetDeviceQualifierDescriptor:
 115              		@ args = 0, pretend = 0, frame = 0
 116              		@ frame_needed = 0, uses_anonymous_args = 0
 117              		@ link register save eliminated.
 118 0000 0A23     		movs	r3, #10
 119 0002 0380     		strh	r3, [r0]	@ movhi
 120 0004 0048     		ldr	r0, .L16
 121 0006 7047     		bx	lr
 122              	.L17:
 123              		.align	2
ARM GAS  /tmp/ccgNOB5Q.s 			page 3


 124              	.L16:
 125 0008 00000000 		.word	.LANCHOR3
 127              		.section	.text.USBD_CDC_DataOut,"ax",%progbits
 128              		.align	1
 129              		.syntax unified
 130              		.thumb
 131              		.thumb_func
 132              		.fpu softvfp
 134              	USBD_CDC_DataOut:
 135              		@ args = 0, pretend = 0, frame = 0
 136              		@ frame_needed = 0, uses_anonymous_args = 0
 137 0000 38B5     		push	{r3, r4, r5, lr}
 138 0002 D0F8BC42 		ldr	r4, [r0, #700]
 139 0006 0546     		mov	r5, r0
 140 0008 6CB1     		cbz	r4, .L20
 141 000a FFF7FEFF 		bl	USBD_LL_GetRxDataSize
 142 000e D5F8C032 		ldr	r3, [r5, #704]
 143 0012 C4F80C02 		str	r0, [r4, #524]
 144 0016 DB68     		ldr	r3, [r3, #12]
 145 0018 D4F80402 		ldr	r0, [r4, #516]
 146 001c 04F50371 		add	r1, r4, #524
 147 0020 9847     		blx	r3
 148 0022 0020     		movs	r0, #0
 149              	.L19:
 150 0024 38BD     		pop	{r3, r4, r5, pc}
 151              	.L20:
 152 0026 0320     		movs	r0, #3
 153 0028 FCE7     		b	.L19
 155              		.section	.text.USBD_CDC_DataIn,"ax",%progbits
 156              		.align	1
 157              		.syntax unified
 158              		.thumb
 159              		.thumb_func
 160              		.fpu softvfp
 162              	USBD_CDC_DataIn:
 163              		@ args = 0, pretend = 0, frame = 0
 164              		@ frame_needed = 0, uses_anonymous_args = 0
 165 0000 F8B5     		push	{r3, r4, r5, r6, r7, lr}
 166 0002 D0F8BC62 		ldr	r6, [r0, #700]
 167 0006 0546     		mov	r5, r0
 168 0008 0A46     		mov	r2, r1
 169 000a 36B3     		cbz	r6, .L24
 170 000c 1423     		movs	r3, #20
 171 000e 03FB0103 		mla	r3, r3, r1, r0
 172 0012 9C69     		ldr	r4, [r3, #24]
 173 0014 94B1     		cbz	r4, .L23
 174 0016 4FF0280C 		mov	ip, #40
 175 001a D0F8C472 		ldr	r7, [r0, #708]
 176 001e 0CFB0177 		mla	r7, ip, r1, r7
 177 0022 BF6B     		ldr	r7, [r7, #56]
 178 0024 B4FBF7FC 		udiv	ip, r4, r7
 179 0028 07FB1C44 		mls	r4, r7, ip, r4
 180 002c 34B9     		cbnz	r4, .L23
 181 002e 9C61     		str	r4, [r3, #24]
 182 0030 2246     		mov	r2, r4
 183 0032 2346     		mov	r3, r4
 184 0034 FFF7FEFF 		bl	USBD_LL_Transmit
ARM GAS  /tmp/ccgNOB5Q.s 			page 4


 185              	.L25:
 186 0038 2046     		mov	r0, r4
 187 003a 0DE0     		b	.L22
 188              	.L23:
 189 003c 0027     		movs	r7, #0
 190 003e D5F8C032 		ldr	r3, [r5, #704]
 191 0042 C6F81472 		str	r7, [r6, #532]
 192 0046 1C69     		ldr	r4, [r3, #16]
 193 0048 002C     		cmp	r4, #0
 194 004a F5D0     		beq	.L25
 195 004c D6F80802 		ldr	r0, [r6, #520]
 196 0050 06F50471 		add	r1, r6, #528
 197 0054 A047     		blx	r4
 198 0056 3846     		mov	r0, r7
 199              	.L22:
 200 0058 F8BD     		pop	{r3, r4, r5, r6, r7, pc}
 201              	.L24:
 202 005a 0320     		movs	r0, #3
 203 005c FCE7     		b	.L22
 205              		.section	.text.USBD_CDC_Setup,"ax",%progbits
 206              		.align	1
 207              		.syntax unified
 208              		.thumb
 209              		.thumb_func
 210              		.fpu softvfp
 212              	USBD_CDC_Setup:
 213              		@ args = 0, pretend = 0, frame = 8
 214              		@ frame_needed = 0, uses_anonymous_args = 0
 215 0000 2DE9F743 		push	{r0, r1, r2, r4, r5, r6, r7, r8, r9, lr}
 216 0004 4FF00008 		mov	r8, #0
 217 0008 D0F8BC72 		ldr	r7, [r0, #700]
 218 000c 0546     		mov	r5, r0
 219 000e 0E46     		mov	r6, r1
 220 0010 8DF80580 		strb	r8, [sp, #5]
 221 0014 ADF80680 		strh	r8, [sp, #6]	@ movhi
 222 0018 002F     		cmp	r7, #0
 223 001a 6AD0     		beq	.L40
 224 001c 0A78     		ldrb	r2, [r1]	@ zero_extendqisi2
 225 001e 12F06004 		ands	r4, r2, #96
 226 0022 2BD0     		beq	.L31
 227 0024 202C     		cmp	r4, #32
 228 0026 60D1     		bne	.L32
 229 0028 CC88     		ldrh	r4, [r1, #6]
 230 002a 4B78     		ldrb	r3, [r1, #1]	@ zero_extendqisi2
 231 002c FCB1     		cbz	r4, .L33
 232 002e 1206     		lsls	r2, r2, #24
 233 0030 14D5     		bpl	.L34
 234 0032 D0F8C022 		ldr	r2, [r0, #704]
 235 0036 3946     		mov	r1, r7
 236 0038 D2F80890 		ldr	r9, [r2, #8]
 237 003c 1846     		mov	r0, r3
 238 003e 2246     		mov	r2, r4
 239 0040 C847     		blx	r9
 240 0042 F288     		ldrh	r2, [r6, #6]
 241 0044 3946     		mov	r1, r7
 242 0046 072A     		cmp	r2, #7
 243 0048 28BF     		it	cs
ARM GAS  /tmp/ccgNOB5Q.s 			page 5


 244 004a 0722     		movcs	r2, #7
 245 004c 2846     		mov	r0, r5
 246 004e FFF7FEFF 		bl	USBD_CtlSendData
 247              	.L41:
 248 0052 4446     		mov	r4, r8
 249              	.L30:
 250 0054 2046     		mov	r0, r4
 251 0056 03B0     		add	sp, sp, #12
 252              		@ sp needed
 253 0058 BDE8F083 		pop	{r4, r5, r6, r7, r8, r9, pc}
 254              	.L34:
 255 005c 2246     		mov	r2, r4
 256 005e 3946     		mov	r1, r7
 257 0060 87F80032 		strb	r3, [r7, #512]
 258 0064 87F80142 		strb	r4, [r7, #513]
 259 0068 FFF7FEFF 		bl	USBD_CtlPrepareRx
 260 006c F1E7     		b	.L41
 261              	.L33:
 262 006e D0F8C022 		ldr	r2, [r0, #704]
 263 0072 1846     		mov	r0, r3
 264 0074 9568     		ldr	r5, [r2, #8]
 265 0076 2246     		mov	r2, r4
 266 0078 A847     		blx	r5
 267 007a EBE7     		b	.L30
 268              	.L31:
 269 007c 4F78     		ldrb	r7, [r1, #1]	@ zero_extendqisi2
 270 007e 0B2F     		cmp	r7, #11
 271 0080 33D8     		bhi	.L32
 272 0082 01A3     		adr	r3, .L36
 273 0084 53F827F0 		ldr	pc, [r3, r7, lsl #2]
 274              		.p2align 2
 275              	.L36:
 276 0088 B9000000 		.word	.L38+1
 277 008c 55000000 		.word	.L30+1
 278 0090 EB000000 		.word	.L32+1
 279 0094 EB000000 		.word	.L32+1
 280 0098 EB000000 		.word	.L32+1
 281 009c EB000000 		.word	.L32+1
 282 00a0 EB000000 		.word	.L32+1
 283 00a4 EB000000 		.word	.L32+1
 284 00a8 EB000000 		.word	.L32+1
 285 00ac EB000000 		.word	.L32+1
 286 00b0 CF000000 		.word	.L37+1
 287 00b4 E3000000 		.word	.L35+1
 288              		.p2align 1
 289              	.L38:
 290 00b8 90F89C32 		ldrb	r3, [r0, #668]	@ zero_extendqisi2
 291 00bc 032B     		cmp	r3, #3
 292 00be 14D1     		bne	.L32
 293 00c0 0222     		movs	r2, #2
 294 00c2 0DF10601 		add	r1, sp, #6
 295 00c6 FFF7FEFF 		bl	USBD_CtlSendData
 296 00ca 3C46     		mov	r4, r7
 297 00cc C2E7     		b	.L30
 298              	.L37:
 299 00ce 90F89C32 		ldrb	r3, [r0, #668]	@ zero_extendqisi2
 300 00d2 032B     		cmp	r3, #3
ARM GAS  /tmp/ccgNOB5Q.s 			page 6


 301 00d4 09D1     		bne	.L32
 302 00d6 0122     		movs	r2, #1
 303 00d8 0DF10501 		add	r1, sp, #5
 304 00dc FFF7FEFF 		bl	USBD_CtlSendData
 305 00e0 B8E7     		b	.L30
 306              	.L35:
 307 00e2 90F89C32 		ldrb	r3, [r0, #668]	@ zero_extendqisi2
 308 00e6 032B     		cmp	r3, #3
 309 00e8 B4D0     		beq	.L30
 310              	.L32:
 311 00ea 3146     		mov	r1, r6
 312 00ec 2846     		mov	r0, r5
 313 00ee FFF7FEFF 		bl	USBD_CtlError
 314              	.L40:
 315 00f2 0324     		movs	r4, #3
 316 00f4 AEE7     		b	.L30
 318 00f6 00BF     		.section	.text.USBD_CDC_DeInit,"ax",%progbits
 319              		.align	1
 320              		.syntax unified
 321              		.thumb
 322              		.thumb_func
 323              		.fpu softvfp
 325              	USBD_CDC_DeInit:
 326              		@ args = 0, pretend = 0, frame = 0
 327              		@ frame_needed = 0, uses_anonymous_args = 0
 328 0000 38B5     		push	{r3, r4, r5, lr}
 329 0002 0446     		mov	r4, r0
 330 0004 0025     		movs	r5, #0
 331 0006 8121     		movs	r1, #129
 332 0008 FFF7FEFF 		bl	USBD_LL_CloseEP
 333 000c 0121     		movs	r1, #1
 334 000e 2046     		mov	r0, r4
 335 0010 2587     		strh	r5, [r4, #56]	@ movhi
 336 0012 FFF7FEFF 		bl	USBD_LL_CloseEP
 337 0016 8221     		movs	r1, #130
 338 0018 2046     		mov	r0, r4
 339 001a A4F87851 		strh	r5, [r4, #376]	@ movhi
 340 001e FFF7FEFF 		bl	USBD_LL_CloseEP
 341 0022 D4F8BC32 		ldr	r3, [r4, #700]
 342 0026 E564     		str	r5, [r4, #76]
 343 0028 4BB1     		cbz	r3, .L43
 344 002a D4F8C032 		ldr	r3, [r4, #704]
 345 002e 5B68     		ldr	r3, [r3, #4]
 346 0030 9847     		blx	r3
 347 0032 D4F8BC02 		ldr	r0, [r4, #700]
 348 0036 FFF7FEFF 		bl	USBD_static_free
 349 003a C4F8BC52 		str	r5, [r4, #700]
 350              	.L43:
 351 003e 0020     		movs	r0, #0
 352 0040 38BD     		pop	{r3, r4, r5, pc}
 354              		.section	.text.USBD_CDC_Init,"ax",%progbits
 355              		.align	1
 356              		.syntax unified
 357              		.thumb
 358              		.thumb_func
 359              		.fpu softvfp
 361              	USBD_CDC_Init:
ARM GAS  /tmp/ccgNOB5Q.s 			page 7


 362              		@ args = 0, pretend = 0, frame = 0
 363              		@ frame_needed = 0, uses_anonymous_args = 0
 364 0000 2DE9F041 		push	{r4, r5, r6, r7, r8, lr}
 365 0004 0446     		mov	r4, r0
 366 0006 4FF40770 		mov	r0, #540
 367 000a FFF7FEFF 		bl	USBD_static_malloc
 368 000e 0546     		mov	r5, r0
 369 0010 C4F8BC02 		str	r0, [r4, #700]
 370 0014 18B9     		cbnz	r0, .L48
 371 0016 0226     		movs	r6, #2
 372              	.L49:
 373 0018 3046     		mov	r0, r6
 374 001a BDE8F081 		pop	{r4, r5, r6, r7, r8, pc}
 375              	.L48:
 376 001e 237C     		ldrb	r3, [r4, #16]	@ zero_extendqisi2
 377 0020 93BB     		cbnz	r3, .L50
 378 0022 4FF40073 		mov	r3, #512
 379 0026 0222     		movs	r2, #2
 380 0028 8121     		movs	r1, #129
 381 002a 2046     		mov	r0, r4
 382 002c 0126     		movs	r6, #1
 383 002e FFF7FEFF 		bl	USBD_LL_OpenEP
 384 0032 4FF40073 		mov	r3, #512
 385 0036 2687     		strh	r6, [r4, #56]	@ movhi
 386              	.L53:
 387 0038 3146     		mov	r1, r6
 388 003a 0222     		movs	r2, #2
 389 003c 2046     		mov	r0, r4
 390 003e FFF7FEFF 		bl	USBD_LL_OpenEP
 391 0042 1023     		movs	r3, #16
 392 0044 4FF00108 		mov	r8, #1
 393 0048 0027     		movs	r7, #0
 394 004a 0322     		movs	r2, #3
 395 004c 8221     		movs	r1, #130
 396 004e A4F87861 		strh	r6, [r4, #376]	@ movhi
 397 0052 A4F84E30 		strh	r3, [r4, #78]	@ movhi
 398 0056 2046     		mov	r0, r4
 399 0058 0823     		movs	r3, #8
 400 005a FFF7FEFF 		bl	USBD_LL_OpenEP
 401 005e D4F8C032 		ldr	r3, [r4, #704]
 402 0062 A4F84C80 		strh	r8, [r4, #76]	@ movhi
 403 0066 1B68     		ldr	r3, [r3]
 404 0068 9847     		blx	r3
 405 006a C5F81472 		str	r7, [r5, #532]
 406 006e C5F81872 		str	r7, [r5, #536]
 407 0072 267C     		ldrb	r6, [r4, #16]	@ zero_extendqisi2
 408 0074 96B9     		cbnz	r6, .L52
 409 0076 4FF40073 		mov	r3, #512
 410 007a 4146     		mov	r1, r8
 411 007c 2046     		mov	r0, r4
 412 007e D5F80422 		ldr	r2, [r5, #516]
 413 0082 FFF7FEFF 		bl	USBD_LL_PrepareReceive
 414 0086 C7E7     		b	.L49
 415              	.L50:
 416 0088 0126     		movs	r6, #1
 417 008a 4023     		movs	r3, #64
 418 008c 0222     		movs	r2, #2
ARM GAS  /tmp/ccgNOB5Q.s 			page 8


 419 008e 8121     		movs	r1, #129
 420 0090 2046     		mov	r0, r4
 421 0092 FFF7FEFF 		bl	USBD_LL_OpenEP
 422 0096 4023     		movs	r3, #64
 423 0098 2687     		strh	r6, [r4, #56]	@ movhi
 424 009a CDE7     		b	.L53
 425              	.L52:
 426 009c 4023     		movs	r3, #64
 427 009e 4146     		mov	r1, r8
 428 00a0 2046     		mov	r0, r4
 429 00a2 D5F80422 		ldr	r2, [r5, #516]
 430 00a6 FFF7FEFF 		bl	USBD_LL_PrepareReceive
 431 00aa 3E46     		mov	r6, r7
 432 00ac B4E7     		b	.L49
 434              		.section	.text.USBD_CDC_RegisterInterface,"ax",%progbits
 435              		.align	1
 436              		.global	USBD_CDC_RegisterInterface
 437              		.syntax unified
 438              		.thumb
 439              		.thumb_func
 440              		.fpu softvfp
 442              	USBD_CDC_RegisterInterface:
 443              		@ args = 0, pretend = 0, frame = 0
 444              		@ frame_needed = 0, uses_anonymous_args = 0
 445              		@ link register save eliminated.
 446 0000 19B1     		cbz	r1, .L56
 447 0002 C0F8C012 		str	r1, [r0, #704]
 448 0006 0020     		movs	r0, #0
 449 0008 7047     		bx	lr
 450              	.L56:
 451 000a 0320     		movs	r0, #3
 452 000c 7047     		bx	lr
 454              		.section	.text.USBD_CDC_SetTxBuffer,"ax",%progbits
 455              		.align	1
 456              		.global	USBD_CDC_SetTxBuffer
 457              		.syntax unified
 458              		.thumb
 459              		.thumb_func
 460              		.fpu softvfp
 462              	USBD_CDC_SetTxBuffer:
 463              		@ args = 0, pretend = 0, frame = 0
 464              		@ frame_needed = 0, uses_anonymous_args = 0
 465              		@ link register save eliminated.
 466 0000 D0F8BC32 		ldr	r3, [r0, #700]
 467 0004 2BB1     		cbz	r3, .L59
 468 0006 0020     		movs	r0, #0
 469 0008 C3F80812 		str	r1, [r3, #520]
 470 000c C3F81022 		str	r2, [r3, #528]
 471 0010 7047     		bx	lr
 472              	.L59:
 473 0012 0320     		movs	r0, #3
 474 0014 7047     		bx	lr
 476              		.section	.text.USBD_CDC_SetRxBuffer,"ax",%progbits
 477              		.align	1
 478              		.global	USBD_CDC_SetRxBuffer
 479              		.syntax unified
 480              		.thumb
ARM GAS  /tmp/ccgNOB5Q.s 			page 9


 481              		.thumb_func
 482              		.fpu softvfp
 484              	USBD_CDC_SetRxBuffer:
 485              		@ args = 0, pretend = 0, frame = 0
 486              		@ frame_needed = 0, uses_anonymous_args = 0
 487              		@ link register save eliminated.
 488 0000 D0F8BC32 		ldr	r3, [r0, #700]
 489 0004 1BB1     		cbz	r3, .L62
 490 0006 0020     		movs	r0, #0
 491 0008 C3F80412 		str	r1, [r3, #516]
 492 000c 7047     		bx	lr
 493              	.L62:
 494 000e 0320     		movs	r0, #3
 495 0010 7047     		bx	lr
 497              		.section	.text.USBD_CDC_TransmitPacket,"ax",%progbits
 498              		.align	1
 499              		.global	USBD_CDC_TransmitPacket
 500              		.syntax unified
 501              		.thumb
 502              		.thumb_func
 503              		.fpu softvfp
 505              	USBD_CDC_TransmitPacket:
 506              		@ args = 0, pretend = 0, frame = 0
 507              		@ frame_needed = 0, uses_anonymous_args = 0
 508 0000 D0F8BC22 		ldr	r2, [r0, #700]
 509 0004 10B5     		push	{r4, lr}
 510 0006 7AB1     		cbz	r2, .L65
 511 0008 D2F81442 		ldr	r4, [r2, #532]
 512 000c 0123     		movs	r3, #1
 513 000e 6CB9     		cbnz	r4, .L66
 514 0010 C2F81432 		str	r3, [r2, #532]
 515 0014 D2F81032 		ldr	r3, [r2, #528]
 516 0018 8121     		movs	r1, #129
 517 001a D2F80822 		ldr	r2, [r2, #520]
 518 001e C362     		str	r3, [r0, #44]
 519 0020 FFF7FEFF 		bl	USBD_LL_Transmit
 520 0024 2046     		mov	r0, r4
 521              	.L64:
 522 0026 10BD     		pop	{r4, pc}
 523              	.L65:
 524 0028 0320     		movs	r0, #3
 525 002a FCE7     		b	.L64
 526              	.L66:
 527 002c 1846     		mov	r0, r3
 528 002e FAE7     		b	.L64
 530              		.section	.text.USBD_CDC_ReceivePacket,"ax",%progbits
 531              		.align	1
 532              		.global	USBD_CDC_ReceivePacket
 533              		.syntax unified
 534              		.thumb
 535              		.thumb_func
 536              		.fpu softvfp
 538              	USBD_CDC_ReceivePacket:
 539              		@ args = 0, pretend = 0, frame = 0
 540              		@ frame_needed = 0, uses_anonymous_args = 0
 541 0000 D0F8BC22 		ldr	r2, [r0, #700]
 542 0004 10B5     		push	{r4, lr}
ARM GAS  /tmp/ccgNOB5Q.s 			page 10


 543 0006 82B1     		cbz	r2, .L70
 544 0008 047C     		ldrb	r4, [r0, #16]	@ zero_extendqisi2
 545 000a D2F80422 		ldr	r2, [r2, #516]
 546 000e 34B9     		cbnz	r4, .L69
 547 0010 4FF40073 		mov	r3, #512
 548 0014 0121     		movs	r1, #1
 549 0016 FFF7FEFF 		bl	USBD_LL_PrepareReceive
 550              	.L68:
 551 001a 2046     		mov	r0, r4
 552 001c 10BD     		pop	{r4, pc}
 553              	.L69:
 554 001e 4023     		movs	r3, #64
 555 0020 0121     		movs	r1, #1
 556 0022 FFF7FEFF 		bl	USBD_LL_PrepareReceive
 557 0026 0024     		movs	r4, #0
 558 0028 F7E7     		b	.L68
 559              	.L70:
 560 002a 0324     		movs	r4, #3
 561 002c F5E7     		b	.L68
 563              		.global	USBD_CDC
 564              		.section	.data.USBD_CDC,"aw"
 565              		.align	2
 568              	USBD_CDC:
 569 0000 00000000 		.word	USBD_CDC_Init
 570 0004 00000000 		.word	USBD_CDC_DeInit
 571 0008 00000000 		.word	USBD_CDC_Setup
 572 000c 00000000 		.word	0
 573 0010 00000000 		.word	USBD_CDC_EP0_RxReady
 574 0014 00000000 		.word	USBD_CDC_DataIn
 575 0018 00000000 		.word	USBD_CDC_DataOut
 576 001c 00000000 		.word	0
 577 0020 00000000 		.word	0
 578 0024 00000000 		.word	0
 579 0028 00000000 		.word	USBD_CDC_GetHSCfgDesc
 580 002c 00000000 		.word	USBD_CDC_GetFSCfgDesc
 581 0030 00000000 		.word	USBD_CDC_GetOtherSpeedCfgDesc
 582 0034 00000000 		.word	USBD_CDC_GetDeviceQualifierDescriptor
 583              		.section	.data.USBD_CDC_CfgFSDesc,"aw"
 584              		.align	2
 585              		.set	.LANCHOR0,. + 0
 588              	USBD_CDC_CfgFSDesc:
 589 0000 09024300 		.ascii	"\011\002C\000\002\001\000\3002\011\004\000\000\001\002"
 589      020100C0 
 589      32090400 
 589      000102
 590 000f 02010005 		.ascii	"\002\001\000\005$\000\020\001\005$\001\000\001\004$"
 590      24001001 
 590      05240100 
 590      010424
 591 001e 02020524 		.ascii	"\002\002\005$\006\000\001\007\005\202\003\010\000\020"
 591      06000107 
 591      05820308 
 591      0010
 592 002c 09040100 		.ascii	"\011\004\001\000\002\012\000\000\000\007\005\001\002"
 592      020A0000 
 592      00070501 
 592      02
ARM GAS  /tmp/ccgNOB5Q.s 			page 11


 593 0039 40000007 		.ascii	"@\000\000\007\005\201\002@\000\000"
 593      05810240 
 593      0000
 594              		.section	.data.USBD_CDC_CfgHSDesc,"aw"
 595              		.align	2
 596              		.set	.LANCHOR1,. + 0
 599              	USBD_CDC_CfgHSDesc:
 600 0000 09024300 		.ascii	"\011\002C\000\002\001\000\3002\011\004\000\000\001\002"
 600      020100C0 
 600      32090400 
 600      000102
 601 000f 02010005 		.ascii	"\002\001\000\005$\000\020\001\005$\001\000\001\004$"
 601      24001001 
 601      05240100 
 601      010424
 602 001e 02020524 		.ascii	"\002\002\005$\006\000\001\007\005\202\003\010\000\020"
 602      06000107 
 602      05820308 
 602      0010
 603 002c 09040100 		.ascii	"\011\004\001\000\002\012\000\000\000\007\005\001\002"
 603      020A0000 
 603      00070501 
 603      02
 604 0039 00020007 		.ascii	"\000\002\000\007\005\201\002\000\002\000"
 604      05810200 
 604      0200
 605              		.section	.data.USBD_CDC_DeviceQualifierDesc,"aw"
 606              		.align	2
 607              		.set	.LANCHOR3,. + 0
 610              	USBD_CDC_DeviceQualifierDesc:
 611 0000 0A060002 		.ascii	"\012\006\000\002\000\000\000@\001\000"
 611      00000040 
 611      0100
 612              		.section	.data.USBD_CDC_OtherSpeedCfgDesc,"aw"
 613              		.align	2
 614              		.set	.LANCHOR2,. + 0
 617              	USBD_CDC_OtherSpeedCfgDesc:
 618 0000 09074300 		.ascii	"\011\007C\000\002\001\004\3002\011\004\000\000\001\002"
 618      020104C0 
 618      32090400 
 618      000102
 619 000f 02010005 		.ascii	"\002\001\000\005$\000\020\001\005$\001\000\001\004$"
 619      24001001 
 619      05240100 
 619      010424
 620 001e 02020524 		.ascii	"\002\002\005$\006\000\001\007\005\202\003\010\000\020"
 620      06000107 
 620      05820308 
 620      0010
 621 002c 09040100 		.ascii	"\011\004\001\000\002\012\000\000\000\007\005\001\002"
 621      020A0000 
 621      00070501 
 621      02
 622 0039 40000007 		.ascii	"@\000\000\007\005\201\002@\000\000"
 622      05810240 
 622      0000
 623              		.ident	"GCC: (15:10.3-2021.07-4) 10.3.1 20210621 (release)"
ARM GAS  /tmp/ccgNOB5Q.s 			page 12


ARM GAS  /tmp/ccgNOB5Q.s 			page 13

